
Flightcontroller.elf:     file format elf32-littlearm

Sections:
Idx Name          Size      VMA       LMA       File off  Algn
  0 .isr_vector   000001e0  08000000  08000000  00010000  2**0
                  CONTENTS, ALLOC, LOAD, READONLY, DATA
  1 .text         00006b44  080001e0  080001e0  000101e0  2**4
                  CONTENTS, ALLOC, LOAD, READONLY, CODE
  2 .rodata       000000d0  08006d24  08006d24  00016d24  2**2
                  CONTENTS, ALLOC, LOAD, READONLY, DATA
  3 .ARM.extab    00000000  08006df4  08006df4  00020178  2**0
                  CONTENTS
  4 .ARM          00000008  08006df4  08006df4  00016df4  2**2
                  CONTENTS, ALLOC, LOAD, READONLY, DATA
  5 .preinit_array 00000000  08006dfc  08006dfc  00020178  2**0
                  CONTENTS, ALLOC, LOAD, DATA
  6 .init_array   00000008  08006dfc  08006dfc  00016dfc  2**2
                  CONTENTS, ALLOC, LOAD, DATA
  7 .fini_array   00000008  08006e04  08006e04  00016e04  2**2
                  CONTENTS, ALLOC, LOAD, DATA
  8 .data         00000178  20000000  08006e0c  00020000  2**2
                  CONTENTS, ALLOC, LOAD, DATA
  9 .bss          00000dcc  20000178  08006f84  00020178  2**3
                  ALLOC
 10 ._user_heap_stack 00002404  20000f44  08006f84  00020f44  2**0
                  ALLOC
 11 .ARM.attributes 00000030  00000000  00000000  00020178  2**0
                  CONTENTS, READONLY
 12 .comment      0000007b  00000000  00000000  000201a8  2**0
                  CONTENTS, READONLY
 13 .debug_frame  00000580  00000000  00000000  00020224  2**2
                  CONTENTS, READONLY, DEBUGGING

Disassembly of section .text:

080001e0 <__do_global_dtors_aux>:
 80001e0:	b510      	push	{r4, lr}
 80001e2:	4c05      	ldr	r4, [pc, #20]	; (80001f8 <__do_global_dtors_aux+0x18>)
 80001e4:	7823      	ldrb	r3, [r4, #0]
 80001e6:	b933      	cbnz	r3, 80001f6 <__do_global_dtors_aux+0x16>
 80001e8:	4b04      	ldr	r3, [pc, #16]	; (80001fc <__do_global_dtors_aux+0x1c>)
 80001ea:	b113      	cbz	r3, 80001f2 <__do_global_dtors_aux+0x12>
 80001ec:	4804      	ldr	r0, [pc, #16]	; (8000200 <__do_global_dtors_aux+0x20>)
 80001ee:	f3af 8000 	nop.w
 80001f2:	2301      	movs	r3, #1
 80001f4:	7023      	strb	r3, [r4, #0]
 80001f6:	bd10      	pop	{r4, pc}
 80001f8:	20000178 	.word	0x20000178
 80001fc:	00000000 	.word	0x00000000
 8000200:	08006d0c 	.word	0x08006d0c

08000204 <frame_dummy>:
 8000204:	b508      	push	{r3, lr}
 8000206:	4b03      	ldr	r3, [pc, #12]	; (8000214 <frame_dummy+0x10>)
 8000208:	b11b      	cbz	r3, 8000212 <frame_dummy+0xe>
 800020a:	4903      	ldr	r1, [pc, #12]	; (8000218 <frame_dummy+0x14>)
 800020c:	4803      	ldr	r0, [pc, #12]	; (800021c <frame_dummy+0x18>)
 800020e:	f3af 8000 	nop.w
 8000212:	bd08      	pop	{r3, pc}
 8000214:	00000000 	.word	0x00000000
 8000218:	2000017c 	.word	0x2000017c
 800021c:	08006d0c 	.word	0x08006d0c

08000220 <memchr>:
 8000220:	f001 01ff 	and.w	r1, r1, #255	; 0xff
 8000224:	2a10      	cmp	r2, #16
 8000226:	db2b      	blt.n	8000280 <memchr+0x60>
 8000228:	f010 0f07 	tst.w	r0, #7
 800022c:	d008      	beq.n	8000240 <memchr+0x20>
 800022e:	f810 3b01 	ldrb.w	r3, [r0], #1
 8000232:	3a01      	subs	r2, #1
 8000234:	428b      	cmp	r3, r1
 8000236:	d02d      	beq.n	8000294 <memchr+0x74>
 8000238:	f010 0f07 	tst.w	r0, #7
 800023c:	b342      	cbz	r2, 8000290 <memchr+0x70>
 800023e:	d1f6      	bne.n	800022e <memchr+0xe>
 8000240:	b4f0      	push	{r4, r5, r6, r7}
 8000242:	ea41 2101 	orr.w	r1, r1, r1, lsl #8
 8000246:	ea41 4101 	orr.w	r1, r1, r1, lsl #16
 800024a:	f022 0407 	bic.w	r4, r2, #7
 800024e:	f07f 0700 	mvns.w	r7, #0
 8000252:	2300      	movs	r3, #0
 8000254:	e8f0 5602 	ldrd	r5, r6, [r0], #8
 8000258:	3c08      	subs	r4, #8
 800025a:	ea85 0501 	eor.w	r5, r5, r1
 800025e:	ea86 0601 	eor.w	r6, r6, r1
 8000262:	fa85 f547 	uadd8	r5, r5, r7
 8000266:	faa3 f587 	sel	r5, r3, r7
 800026a:	fa86 f647 	uadd8	r6, r6, r7
 800026e:	faa5 f687 	sel	r6, r5, r7
 8000272:	b98e      	cbnz	r6, 8000298 <memchr+0x78>
 8000274:	d1ee      	bne.n	8000254 <memchr+0x34>
 8000276:	bcf0      	pop	{r4, r5, r6, r7}
 8000278:	f001 01ff 	and.w	r1, r1, #255	; 0xff
 800027c:	f002 0207 	and.w	r2, r2, #7
 8000280:	b132      	cbz	r2, 8000290 <memchr+0x70>
 8000282:	f810 3b01 	ldrb.w	r3, [r0], #1
 8000286:	3a01      	subs	r2, #1
 8000288:	ea83 0301 	eor.w	r3, r3, r1
 800028c:	b113      	cbz	r3, 8000294 <memchr+0x74>
 800028e:	d1f8      	bne.n	8000282 <memchr+0x62>
 8000290:	2000      	movs	r0, #0
 8000292:	4770      	bx	lr
 8000294:	3801      	subs	r0, #1
 8000296:	4770      	bx	lr
 8000298:	2d00      	cmp	r5, #0
 800029a:	bf06      	itte	eq
 800029c:	4635      	moveq	r5, r6
 800029e:	3803      	subeq	r0, #3
 80002a0:	3807      	subne	r0, #7
 80002a2:	f015 0f01 	tst.w	r5, #1
 80002a6:	d107      	bne.n	80002b8 <memchr+0x98>
 80002a8:	3001      	adds	r0, #1
 80002aa:	f415 7f80 	tst.w	r5, #256	; 0x100
 80002ae:	bf02      	ittt	eq
 80002b0:	3001      	addeq	r0, #1
 80002b2:	f415 3fc0 	tsteq.w	r5, #98304	; 0x18000
 80002b6:	3001      	addeq	r0, #1
 80002b8:	bcf0      	pop	{r4, r5, r6, r7}
 80002ba:	3801      	subs	r0, #1
 80002bc:	4770      	bx	lr
 80002be:	bf00      	nop

080002c0 <__aeabi_drsub>:
 80002c0:	f081 4100 	eor.w	r1, r1, #2147483648	; 0x80000000
 80002c4:	e002      	b.n	80002cc <__adddf3>
 80002c6:	bf00      	nop

080002c8 <__aeabi_dsub>:
 80002c8:	f083 4300 	eor.w	r3, r3, #2147483648	; 0x80000000

080002cc <__adddf3>:
 80002cc:	b530      	push	{r4, r5, lr}
 80002ce:	ea4f 0441 	mov.w	r4, r1, lsl #1
 80002d2:	ea4f 0543 	mov.w	r5, r3, lsl #1
 80002d6:	ea94 0f05 	teq	r4, r5
 80002da:	bf08      	it	eq
 80002dc:	ea90 0f02 	teqeq	r0, r2
 80002e0:	bf1f      	itttt	ne
 80002e2:	ea54 0c00 	orrsne.w	ip, r4, r0
 80002e6:	ea55 0c02 	orrsne.w	ip, r5, r2
 80002ea:	ea7f 5c64 	mvnsne.w	ip, r4, asr #21
 80002ee:	ea7f 5c65 	mvnsne.w	ip, r5, asr #21
 80002f2:	f000 80e2 	beq.w	80004ba <__adddf3+0x1ee>
 80002f6:	ea4f 5454 	mov.w	r4, r4, lsr #21
 80002fa:	ebd4 5555 	rsbs	r5, r4, r5, lsr #21
 80002fe:	bfb8      	it	lt
 8000300:	426d      	neglt	r5, r5
 8000302:	dd0c      	ble.n	800031e <__adddf3+0x52>
 8000304:	442c      	add	r4, r5
 8000306:	ea80 0202 	eor.w	r2, r0, r2
 800030a:	ea81 0303 	eor.w	r3, r1, r3
 800030e:	ea82 0000 	eor.w	r0, r2, r0
 8000312:	ea83 0101 	eor.w	r1, r3, r1
 8000316:	ea80 0202 	eor.w	r2, r0, r2
 800031a:	ea81 0303 	eor.w	r3, r1, r3
 800031e:	2d36      	cmp	r5, #54	; 0x36
 8000320:	bf88      	it	hi
 8000322:	bd30      	pophi	{r4, r5, pc}
 8000324:	f011 4f00 	tst.w	r1, #2147483648	; 0x80000000
 8000328:	ea4f 3101 	mov.w	r1, r1, lsl #12
 800032c:	f44f 1c80 	mov.w	ip, #1048576	; 0x100000
 8000330:	ea4c 3111 	orr.w	r1, ip, r1, lsr #12
 8000334:	d002      	beq.n	800033c <__adddf3+0x70>
 8000336:	4240      	negs	r0, r0
 8000338:	eb61 0141 	sbc.w	r1, r1, r1, lsl #1
 800033c:	f013 4f00 	tst.w	r3, #2147483648	; 0x80000000
 8000340:	ea4f 3303 	mov.w	r3, r3, lsl #12
 8000344:	ea4c 3313 	orr.w	r3, ip, r3, lsr #12
 8000348:	d002      	beq.n	8000350 <__adddf3+0x84>
 800034a:	4252      	negs	r2, r2
 800034c:	eb63 0343 	sbc.w	r3, r3, r3, lsl #1
 8000350:	ea94 0f05 	teq	r4, r5
 8000354:	f000 80a7 	beq.w	80004a6 <__adddf3+0x1da>
 8000358:	f1a4 0401 	sub.w	r4, r4, #1
 800035c:	f1d5 0e20 	rsbs	lr, r5, #32
 8000360:	db0d      	blt.n	800037e <__adddf3+0xb2>
 8000362:	fa02 fc0e 	lsl.w	ip, r2, lr
 8000366:	fa22 f205 	lsr.w	r2, r2, r5
 800036a:	1880      	adds	r0, r0, r2
 800036c:	f141 0100 	adc.w	r1, r1, #0
 8000370:	fa03 f20e 	lsl.w	r2, r3, lr
 8000374:	1880      	adds	r0, r0, r2
 8000376:	fa43 f305 	asr.w	r3, r3, r5
 800037a:	4159      	adcs	r1, r3
 800037c:	e00e      	b.n	800039c <__adddf3+0xd0>
 800037e:	f1a5 0520 	sub.w	r5, r5, #32
 8000382:	f10e 0e20 	add.w	lr, lr, #32
 8000386:	2a01      	cmp	r2, #1
 8000388:	fa03 fc0e 	lsl.w	ip, r3, lr
 800038c:	bf28      	it	cs
 800038e:	f04c 0c02 	orrcs.w	ip, ip, #2
 8000392:	fa43 f305 	asr.w	r3, r3, r5
 8000396:	18c0      	adds	r0, r0, r3
 8000398:	eb51 71e3 	adcs.w	r1, r1, r3, asr #31
 800039c:	f001 4500 	and.w	r5, r1, #2147483648	; 0x80000000
 80003a0:	d507      	bpl.n	80003b2 <__adddf3+0xe6>
 80003a2:	f04f 0e00 	mov.w	lr, #0
 80003a6:	f1dc 0c00 	rsbs	ip, ip, #0
 80003aa:	eb7e 0000 	sbcs.w	r0, lr, r0
 80003ae:	eb6e 0101 	sbc.w	r1, lr, r1
 80003b2:	f5b1 1f80 	cmp.w	r1, #1048576	; 0x100000
 80003b6:	d31b      	bcc.n	80003f0 <__adddf3+0x124>
 80003b8:	f5b1 1f00 	cmp.w	r1, #2097152	; 0x200000
 80003bc:	d30c      	bcc.n	80003d8 <__adddf3+0x10c>
 80003be:	0849      	lsrs	r1, r1, #1
 80003c0:	ea5f 0030 	movs.w	r0, r0, rrx
 80003c4:	ea4f 0c3c 	mov.w	ip, ip, rrx
 80003c8:	f104 0401 	add.w	r4, r4, #1
 80003cc:	ea4f 5244 	mov.w	r2, r4, lsl #21
 80003d0:	f512 0f80 	cmn.w	r2, #4194304	; 0x400000
 80003d4:	f080 809a 	bcs.w	800050c <__adddf3+0x240>
 80003d8:	f1bc 4f00 	cmp.w	ip, #2147483648	; 0x80000000
 80003dc:	bf08      	it	eq
 80003de:	ea5f 0c50 	movseq.w	ip, r0, lsr #1
 80003e2:	f150 0000 	adcs.w	r0, r0, #0
 80003e6:	eb41 5104 	adc.w	r1, r1, r4, lsl #20
 80003ea:	ea41 0105 	orr.w	r1, r1, r5
 80003ee:	bd30      	pop	{r4, r5, pc}
 80003f0:	ea5f 0c4c 	movs.w	ip, ip, lsl #1
 80003f4:	4140      	adcs	r0, r0
 80003f6:	eb41 0101 	adc.w	r1, r1, r1
 80003fa:	f411 1f80 	tst.w	r1, #1048576	; 0x100000
 80003fe:	f1a4 0401 	sub.w	r4, r4, #1
 8000402:	d1e9      	bne.n	80003d8 <__adddf3+0x10c>
 8000404:	f091 0f00 	teq	r1, #0
 8000408:	bf04      	itt	eq
 800040a:	4601      	moveq	r1, r0
 800040c:	2000      	moveq	r0, #0
 800040e:	fab1 f381 	clz	r3, r1
 8000412:	bf08      	it	eq
 8000414:	3320      	addeq	r3, #32
 8000416:	f1a3 030b 	sub.w	r3, r3, #11
 800041a:	f1b3 0220 	subs.w	r2, r3, #32
 800041e:	da0c      	bge.n	800043a <__adddf3+0x16e>
 8000420:	320c      	adds	r2, #12
 8000422:	dd08      	ble.n	8000436 <__adddf3+0x16a>
 8000424:	f102 0c14 	add.w	ip, r2, #20
 8000428:	f1c2 020c 	rsb	r2, r2, #12
 800042c:	fa01 f00c 	lsl.w	r0, r1, ip
 8000430:	fa21 f102 	lsr.w	r1, r1, r2
 8000434:	e00c      	b.n	8000450 <__adddf3+0x184>
 8000436:	f102 0214 	add.w	r2, r2, #20
 800043a:	bfd8      	it	le
 800043c:	f1c2 0c20 	rsble	ip, r2, #32
 8000440:	fa01 f102 	lsl.w	r1, r1, r2
 8000444:	fa20 fc0c 	lsr.w	ip, r0, ip
 8000448:	bfdc      	itt	le
 800044a:	ea41 010c 	orrle.w	r1, r1, ip
 800044e:	4090      	lslle	r0, r2
 8000450:	1ae4      	subs	r4, r4, r3
 8000452:	bfa2      	ittt	ge
 8000454:	eb01 5104 	addge.w	r1, r1, r4, lsl #20
 8000458:	4329      	orrge	r1, r5
 800045a:	bd30      	popge	{r4, r5, pc}
 800045c:	ea6f 0404 	mvn.w	r4, r4
 8000460:	3c1f      	subs	r4, #31
 8000462:	da1c      	bge.n	800049e <__adddf3+0x1d2>
 8000464:	340c      	adds	r4, #12
 8000466:	dc0e      	bgt.n	8000486 <__adddf3+0x1ba>
 8000468:	f104 0414 	add.w	r4, r4, #20
 800046c:	f1c4 0220 	rsb	r2, r4, #32
 8000470:	fa20 f004 	lsr.w	r0, r0, r4
 8000474:	fa01 f302 	lsl.w	r3, r1, r2
 8000478:	ea40 0003 	orr.w	r0, r0, r3
 800047c:	fa21 f304 	lsr.w	r3, r1, r4
 8000480:	ea45 0103 	orr.w	r1, r5, r3
 8000484:	bd30      	pop	{r4, r5, pc}
 8000486:	f1c4 040c 	rsb	r4, r4, #12
 800048a:	f1c4 0220 	rsb	r2, r4, #32
 800048e:	fa20 f002 	lsr.w	r0, r0, r2
 8000492:	fa01 f304 	lsl.w	r3, r1, r4
 8000496:	ea40 0003 	orr.w	r0, r0, r3
 800049a:	4629      	mov	r1, r5
 800049c:	bd30      	pop	{r4, r5, pc}
 800049e:	fa21 f004 	lsr.w	r0, r1, r4
 80004a2:	4629      	mov	r1, r5
 80004a4:	bd30      	pop	{r4, r5, pc}
 80004a6:	f094 0f00 	teq	r4, #0
 80004aa:	f483 1380 	eor.w	r3, r3, #1048576	; 0x100000
 80004ae:	bf06      	itte	eq
 80004b0:	f481 1180 	eoreq.w	r1, r1, #1048576	; 0x100000
 80004b4:	3401      	addeq	r4, #1
 80004b6:	3d01      	subne	r5, #1
 80004b8:	e74e      	b.n	8000358 <__adddf3+0x8c>
 80004ba:	ea7f 5c64 	mvns.w	ip, r4, asr #21
 80004be:	bf18      	it	ne
 80004c0:	ea7f 5c65 	mvnsne.w	ip, r5, asr #21
 80004c4:	d029      	beq.n	800051a <__adddf3+0x24e>
 80004c6:	ea94 0f05 	teq	r4, r5
 80004ca:	bf08      	it	eq
 80004cc:	ea90 0f02 	teqeq	r0, r2
 80004d0:	d005      	beq.n	80004de <__adddf3+0x212>
 80004d2:	ea54 0c00 	orrs.w	ip, r4, r0
 80004d6:	bf04      	itt	eq
 80004d8:	4619      	moveq	r1, r3
 80004da:	4610      	moveq	r0, r2
 80004dc:	bd30      	pop	{r4, r5, pc}
 80004de:	ea91 0f03 	teq	r1, r3
 80004e2:	bf1e      	ittt	ne
 80004e4:	2100      	movne	r1, #0
 80004e6:	2000      	movne	r0, #0
 80004e8:	bd30      	popne	{r4, r5, pc}
 80004ea:	ea5f 5c54 	movs.w	ip, r4, lsr #21
 80004ee:	d105      	bne.n	80004fc <__adddf3+0x230>
 80004f0:	0040      	lsls	r0, r0, #1
 80004f2:	4149      	adcs	r1, r1
 80004f4:	bf28      	it	cs
 80004f6:	f041 4100 	orrcs.w	r1, r1, #2147483648	; 0x80000000
 80004fa:	bd30      	pop	{r4, r5, pc}
 80004fc:	f514 0480 	adds.w	r4, r4, #4194304	; 0x400000
 8000500:	bf3c      	itt	cc
 8000502:	f501 1180 	addcc.w	r1, r1, #1048576	; 0x100000
 8000506:	bd30      	popcc	{r4, r5, pc}
 8000508:	f001 4500 	and.w	r5, r1, #2147483648	; 0x80000000
 800050c:	f045 41fe 	orr.w	r1, r5, #2130706432	; 0x7f000000
 8000510:	f441 0170 	orr.w	r1, r1, #15728640	; 0xf00000
 8000514:	f04f 0000 	mov.w	r0, #0
 8000518:	bd30      	pop	{r4, r5, pc}
 800051a:	ea7f 5c64 	mvns.w	ip, r4, asr #21
 800051e:	bf1a      	itte	ne
 8000520:	4619      	movne	r1, r3
 8000522:	4610      	movne	r0, r2
 8000524:	ea7f 5c65 	mvnseq.w	ip, r5, asr #21
 8000528:	bf1c      	itt	ne
 800052a:	460b      	movne	r3, r1
 800052c:	4602      	movne	r2, r0
 800052e:	ea50 3401 	orrs.w	r4, r0, r1, lsl #12
 8000532:	bf06      	itte	eq
 8000534:	ea52 3503 	orrseq.w	r5, r2, r3, lsl #12
 8000538:	ea91 0f03 	teqeq	r1, r3
 800053c:	f441 2100 	orrne.w	r1, r1, #524288	; 0x80000
 8000540:	bd30      	pop	{r4, r5, pc}
 8000542:	bf00      	nop

08000544 <__aeabi_ui2d>:
 8000544:	f090 0f00 	teq	r0, #0
 8000548:	bf04      	itt	eq
 800054a:	2100      	moveq	r1, #0
 800054c:	4770      	bxeq	lr
 800054e:	b530      	push	{r4, r5, lr}
 8000550:	f44f 6480 	mov.w	r4, #1024	; 0x400
 8000554:	f104 0432 	add.w	r4, r4, #50	; 0x32
 8000558:	f04f 0500 	mov.w	r5, #0
 800055c:	f04f 0100 	mov.w	r1, #0
 8000560:	e750      	b.n	8000404 <__adddf3+0x138>
 8000562:	bf00      	nop

08000564 <__aeabi_i2d>:
 8000564:	f090 0f00 	teq	r0, #0
 8000568:	bf04      	itt	eq
 800056a:	2100      	moveq	r1, #0
 800056c:	4770      	bxeq	lr
 800056e:	b530      	push	{r4, r5, lr}
 8000570:	f44f 6480 	mov.w	r4, #1024	; 0x400
 8000574:	f104 0432 	add.w	r4, r4, #50	; 0x32
 8000578:	f010 4500 	ands.w	r5, r0, #2147483648	; 0x80000000
 800057c:	bf48      	it	mi
 800057e:	4240      	negmi	r0, r0
 8000580:	f04f 0100 	mov.w	r1, #0
 8000584:	e73e      	b.n	8000404 <__adddf3+0x138>
 8000586:	bf00      	nop

08000588 <__aeabi_f2d>:
 8000588:	0042      	lsls	r2, r0, #1
 800058a:	ea4f 01e2 	mov.w	r1, r2, asr #3
 800058e:	ea4f 0131 	mov.w	r1, r1, rrx
 8000592:	ea4f 7002 	mov.w	r0, r2, lsl #28
 8000596:	bf1f      	itttt	ne
 8000598:	f012 437f 	andsne.w	r3, r2, #4278190080	; 0xff000000
 800059c:	f093 4f7f 	teqne	r3, #4278190080	; 0xff000000
 80005a0:	f081 5160 	eorne.w	r1, r1, #939524096	; 0x38000000
 80005a4:	4770      	bxne	lr
 80005a6:	f032 427f 	bics.w	r2, r2, #4278190080	; 0xff000000
 80005aa:	bf08      	it	eq
 80005ac:	4770      	bxeq	lr
 80005ae:	f093 4f7f 	teq	r3, #4278190080	; 0xff000000
 80005b2:	bf04      	itt	eq
 80005b4:	f441 2100 	orreq.w	r1, r1, #524288	; 0x80000
 80005b8:	4770      	bxeq	lr
 80005ba:	b530      	push	{r4, r5, lr}
 80005bc:	f44f 7460 	mov.w	r4, #896	; 0x380
 80005c0:	f001 4500 	and.w	r5, r1, #2147483648	; 0x80000000
 80005c4:	f021 4100 	bic.w	r1, r1, #2147483648	; 0x80000000
 80005c8:	e71c      	b.n	8000404 <__adddf3+0x138>
 80005ca:	bf00      	nop

080005cc <__aeabi_ul2d>:
 80005cc:	ea50 0201 	orrs.w	r2, r0, r1
 80005d0:	bf08      	it	eq
 80005d2:	4770      	bxeq	lr
 80005d4:	b530      	push	{r4, r5, lr}
 80005d6:	f04f 0500 	mov.w	r5, #0
 80005da:	e00a      	b.n	80005f2 <__aeabi_l2d+0x16>

080005dc <__aeabi_l2d>:
 80005dc:	ea50 0201 	orrs.w	r2, r0, r1
 80005e0:	bf08      	it	eq
 80005e2:	4770      	bxeq	lr
 80005e4:	b530      	push	{r4, r5, lr}
 80005e6:	f011 4500 	ands.w	r5, r1, #2147483648	; 0x80000000
 80005ea:	d502      	bpl.n	80005f2 <__aeabi_l2d+0x16>
 80005ec:	4240      	negs	r0, r0
 80005ee:	eb61 0141 	sbc.w	r1, r1, r1, lsl #1
 80005f2:	f44f 6480 	mov.w	r4, #1024	; 0x400
 80005f6:	f104 0432 	add.w	r4, r4, #50	; 0x32
 80005fa:	ea5f 5c91 	movs.w	ip, r1, lsr #22
 80005fe:	f43f aed8 	beq.w	80003b2 <__adddf3+0xe6>
 8000602:	f04f 0203 	mov.w	r2, #3
 8000606:	ea5f 0cdc 	movs.w	ip, ip, lsr #3
 800060a:	bf18      	it	ne
 800060c:	3203      	addne	r2, #3
 800060e:	ea5f 0cdc 	movs.w	ip, ip, lsr #3
 8000612:	bf18      	it	ne
 8000614:	3203      	addne	r2, #3
 8000616:	eb02 02dc 	add.w	r2, r2, ip, lsr #3
 800061a:	f1c2 0320 	rsb	r3, r2, #32
 800061e:	fa00 fc03 	lsl.w	ip, r0, r3
 8000622:	fa20 f002 	lsr.w	r0, r0, r2
 8000626:	fa01 fe03 	lsl.w	lr, r1, r3
 800062a:	ea40 000e 	orr.w	r0, r0, lr
 800062e:	fa21 f102 	lsr.w	r1, r1, r2
 8000632:	4414      	add	r4, r2
 8000634:	e6bd      	b.n	80003b2 <__adddf3+0xe6>
 8000636:	bf00      	nop

08000638 <__aeabi_dmul>:
 8000638:	b570      	push	{r4, r5, r6, lr}
 800063a:	f04f 0cff 	mov.w	ip, #255	; 0xff
 800063e:	f44c 6ce0 	orr.w	ip, ip, #1792	; 0x700
 8000642:	ea1c 5411 	ands.w	r4, ip, r1, lsr #20
 8000646:	bf1d      	ittte	ne
 8000648:	ea1c 5513 	andsne.w	r5, ip, r3, lsr #20
 800064c:	ea94 0f0c 	teqne	r4, ip
 8000650:	ea95 0f0c 	teqne	r5, ip
 8000654:	f000 f8de 	bleq	8000814 <__aeabi_dmul+0x1dc>
 8000658:	442c      	add	r4, r5
 800065a:	ea81 0603 	eor.w	r6, r1, r3
 800065e:	ea21 514c 	bic.w	r1, r1, ip, lsl #21
 8000662:	ea23 534c 	bic.w	r3, r3, ip, lsl #21
 8000666:	ea50 3501 	orrs.w	r5, r0, r1, lsl #12
 800066a:	bf18      	it	ne
 800066c:	ea52 3503 	orrsne.w	r5, r2, r3, lsl #12
 8000670:	f441 1180 	orr.w	r1, r1, #1048576	; 0x100000
 8000674:	f443 1380 	orr.w	r3, r3, #1048576	; 0x100000
 8000678:	d038      	beq.n	80006ec <__aeabi_dmul+0xb4>
 800067a:	fba0 ce02 	umull	ip, lr, r0, r2
 800067e:	f04f 0500 	mov.w	r5, #0
 8000682:	fbe1 e502 	umlal	lr, r5, r1, r2
 8000686:	f006 4200 	and.w	r2, r6, #2147483648	; 0x80000000
 800068a:	fbe0 e503 	umlal	lr, r5, r0, r3
 800068e:	f04f 0600 	mov.w	r6, #0
 8000692:	fbe1 5603 	umlal	r5, r6, r1, r3
 8000696:	f09c 0f00 	teq	ip, #0
 800069a:	bf18      	it	ne
 800069c:	f04e 0e01 	orrne.w	lr, lr, #1
 80006a0:	f1a4 04ff 	sub.w	r4, r4, #255	; 0xff
 80006a4:	f5b6 7f00 	cmp.w	r6, #512	; 0x200
 80006a8:	f564 7440 	sbc.w	r4, r4, #768	; 0x300
 80006ac:	d204      	bcs.n	80006b8 <__aeabi_dmul+0x80>
 80006ae:	ea5f 0e4e 	movs.w	lr, lr, lsl #1
 80006b2:	416d      	adcs	r5, r5
 80006b4:	eb46 0606 	adc.w	r6, r6, r6
 80006b8:	ea42 21c6 	orr.w	r1, r2, r6, lsl #11
 80006bc:	ea41 5155 	orr.w	r1, r1, r5, lsr #21
 80006c0:	ea4f 20c5 	mov.w	r0, r5, lsl #11
 80006c4:	ea40 505e 	orr.w	r0, r0, lr, lsr #21
 80006c8:	ea4f 2ece 	mov.w	lr, lr, lsl #11
 80006cc:	f1b4 0cfd 	subs.w	ip, r4, #253	; 0xfd
 80006d0:	bf88      	it	hi
 80006d2:	f5bc 6fe0 	cmphi.w	ip, #1792	; 0x700
 80006d6:	d81e      	bhi.n	8000716 <__aeabi_dmul+0xde>
 80006d8:	f1be 4f00 	cmp.w	lr, #2147483648	; 0x80000000
 80006dc:	bf08      	it	eq
 80006de:	ea5f 0e50 	movseq.w	lr, r0, lsr #1
 80006e2:	f150 0000 	adcs.w	r0, r0, #0
 80006e6:	eb41 5104 	adc.w	r1, r1, r4, lsl #20
 80006ea:	bd70      	pop	{r4, r5, r6, pc}
 80006ec:	f006 4600 	and.w	r6, r6, #2147483648	; 0x80000000
 80006f0:	ea46 0101 	orr.w	r1, r6, r1
 80006f4:	ea40 0002 	orr.w	r0, r0, r2
 80006f8:	ea81 0103 	eor.w	r1, r1, r3
 80006fc:	ebb4 045c 	subs.w	r4, r4, ip, lsr #1
 8000700:	bfc2      	ittt	gt
 8000702:	ebd4 050c 	rsbsgt	r5, r4, ip
 8000706:	ea41 5104 	orrgt.w	r1, r1, r4, lsl #20
 800070a:	bd70      	popgt	{r4, r5, r6, pc}
 800070c:	f441 1180 	orr.w	r1, r1, #1048576	; 0x100000
 8000710:	f04f 0e00 	mov.w	lr, #0
 8000714:	3c01      	subs	r4, #1
 8000716:	f300 80ab 	bgt.w	8000870 <__aeabi_dmul+0x238>
 800071a:	f114 0f36 	cmn.w	r4, #54	; 0x36
 800071e:	bfde      	ittt	le
 8000720:	2000      	movle	r0, #0
 8000722:	f001 4100 	andle.w	r1, r1, #2147483648	; 0x80000000
 8000726:	bd70      	pople	{r4, r5, r6, pc}
 8000728:	f1c4 0400 	rsb	r4, r4, #0
 800072c:	3c20      	subs	r4, #32
 800072e:	da35      	bge.n	800079c <__aeabi_dmul+0x164>
 8000730:	340c      	adds	r4, #12
 8000732:	dc1b      	bgt.n	800076c <__aeabi_dmul+0x134>
 8000734:	f104 0414 	add.w	r4, r4, #20
 8000738:	f1c4 0520 	rsb	r5, r4, #32
 800073c:	fa00 f305 	lsl.w	r3, r0, r5
 8000740:	fa20 f004 	lsr.w	r0, r0, r4
 8000744:	fa01 f205 	lsl.w	r2, r1, r5
 8000748:	ea40 0002 	orr.w	r0, r0, r2
 800074c:	f001 4200 	and.w	r2, r1, #2147483648	; 0x80000000
 8000750:	f021 4100 	bic.w	r1, r1, #2147483648	; 0x80000000
 8000754:	eb10 70d3 	adds.w	r0, r0, r3, lsr #31
 8000758:	fa21 f604 	lsr.w	r6, r1, r4
 800075c:	eb42 0106 	adc.w	r1, r2, r6
 8000760:	ea5e 0e43 	orrs.w	lr, lr, r3, lsl #1
 8000764:	bf08      	it	eq
 8000766:	ea20 70d3 	biceq.w	r0, r0, r3, lsr #31
 800076a:	bd70      	pop	{r4, r5, r6, pc}
 800076c:	f1c4 040c 	rsb	r4, r4, #12
 8000770:	f1c4 0520 	rsb	r5, r4, #32
 8000774:	fa00 f304 	lsl.w	r3, r0, r4
 8000778:	fa20 f005 	lsr.w	r0, r0, r5
 800077c:	fa01 f204 	lsl.w	r2, r1, r4
 8000780:	ea40 0002 	orr.w	r0, r0, r2
 8000784:	f001 4100 	and.w	r1, r1, #2147483648	; 0x80000000
 8000788:	eb10 70d3 	adds.w	r0, r0, r3, lsr #31
 800078c:	f141 0100 	adc.w	r1, r1, #0
 8000790:	ea5e 0e43 	orrs.w	lr, lr, r3, lsl #1
 8000794:	bf08      	it	eq
 8000796:	ea20 70d3 	biceq.w	r0, r0, r3, lsr #31
 800079a:	bd70      	pop	{r4, r5, r6, pc}
 800079c:	f1c4 0520 	rsb	r5, r4, #32
 80007a0:	fa00 f205 	lsl.w	r2, r0, r5
 80007a4:	ea4e 0e02 	orr.w	lr, lr, r2
 80007a8:	fa20 f304 	lsr.w	r3, r0, r4
 80007ac:	fa01 f205 	lsl.w	r2, r1, r5
 80007b0:	ea43 0302 	orr.w	r3, r3, r2
 80007b4:	fa21 f004 	lsr.w	r0, r1, r4
 80007b8:	f001 4100 	and.w	r1, r1, #2147483648	; 0x80000000
 80007bc:	fa21 f204 	lsr.w	r2, r1, r4
 80007c0:	ea20 0002 	bic.w	r0, r0, r2
 80007c4:	eb00 70d3 	add.w	r0, r0, r3, lsr #31
 80007c8:	ea5e 0e43 	orrs.w	lr, lr, r3, lsl #1
 80007cc:	bf08      	it	eq
 80007ce:	ea20 70d3 	biceq.w	r0, r0, r3, lsr #31
 80007d2:	bd70      	pop	{r4, r5, r6, pc}
 80007d4:	f094 0f00 	teq	r4, #0
 80007d8:	d10f      	bne.n	80007fa <__aeabi_dmul+0x1c2>
 80007da:	f001 4600 	and.w	r6, r1, #2147483648	; 0x80000000
 80007de:	0040      	lsls	r0, r0, #1
 80007e0:	eb41 0101 	adc.w	r1, r1, r1
 80007e4:	f411 1f80 	tst.w	r1, #1048576	; 0x100000
 80007e8:	bf08      	it	eq
 80007ea:	3c01      	subeq	r4, #1
 80007ec:	d0f7      	beq.n	80007de <__aeabi_dmul+0x1a6>
 80007ee:	ea41 0106 	orr.w	r1, r1, r6
 80007f2:	f095 0f00 	teq	r5, #0
 80007f6:	bf18      	it	ne
 80007f8:	4770      	bxne	lr
 80007fa:	f003 4600 	and.w	r6, r3, #2147483648	; 0x80000000
 80007fe:	0052      	lsls	r2, r2, #1
 8000800:	eb43 0303 	adc.w	r3, r3, r3
 8000804:	f413 1f80 	tst.w	r3, #1048576	; 0x100000
 8000808:	bf08      	it	eq
 800080a:	3d01      	subeq	r5, #1
 800080c:	d0f7      	beq.n	80007fe <__aeabi_dmul+0x1c6>
 800080e:	ea43 0306 	orr.w	r3, r3, r6
 8000812:	4770      	bx	lr
 8000814:	ea94 0f0c 	teq	r4, ip
 8000818:	ea0c 5513 	and.w	r5, ip, r3, lsr #20
 800081c:	bf18      	it	ne
 800081e:	ea95 0f0c 	teqne	r5, ip
 8000822:	d00c      	beq.n	800083e <__aeabi_dmul+0x206>
 8000824:	ea50 0641 	orrs.w	r6, r0, r1, lsl #1
 8000828:	bf18      	it	ne
 800082a:	ea52 0643 	orrsne.w	r6, r2, r3, lsl #1
 800082e:	d1d1      	bne.n	80007d4 <__aeabi_dmul+0x19c>
 8000830:	ea81 0103 	eor.w	r1, r1, r3
 8000834:	f001 4100 	and.w	r1, r1, #2147483648	; 0x80000000
 8000838:	f04f 0000 	mov.w	r0, #0
 800083c:	bd70      	pop	{r4, r5, r6, pc}
 800083e:	ea50 0641 	orrs.w	r6, r0, r1, lsl #1
 8000842:	bf06      	itte	eq
 8000844:	4610      	moveq	r0, r2
 8000846:	4619      	moveq	r1, r3
 8000848:	ea52 0643 	orrsne.w	r6, r2, r3, lsl #1
 800084c:	d019      	beq.n	8000882 <__aeabi_dmul+0x24a>
 800084e:	ea94 0f0c 	teq	r4, ip
 8000852:	d102      	bne.n	800085a <__aeabi_dmul+0x222>
 8000854:	ea50 3601 	orrs.w	r6, r0, r1, lsl #12
 8000858:	d113      	bne.n	8000882 <__aeabi_dmul+0x24a>
 800085a:	ea95 0f0c 	teq	r5, ip
 800085e:	d105      	bne.n	800086c <__aeabi_dmul+0x234>
 8000860:	ea52 3603 	orrs.w	r6, r2, r3, lsl #12
 8000864:	bf1c      	itt	ne
 8000866:	4610      	movne	r0, r2
 8000868:	4619      	movne	r1, r3
 800086a:	d10a      	bne.n	8000882 <__aeabi_dmul+0x24a>
 800086c:	ea81 0103 	eor.w	r1, r1, r3
 8000870:	f001 4100 	and.w	r1, r1, #2147483648	; 0x80000000
 8000874:	f041 41fe 	orr.w	r1, r1, #2130706432	; 0x7f000000
 8000878:	f441 0170 	orr.w	r1, r1, #15728640	; 0xf00000
 800087c:	f04f 0000 	mov.w	r0, #0
 8000880:	bd70      	pop	{r4, r5, r6, pc}
 8000882:	f041 41fe 	orr.w	r1, r1, #2130706432	; 0x7f000000
 8000886:	f441 0178 	orr.w	r1, r1, #16252928	; 0xf80000
 800088a:	bd70      	pop	{r4, r5, r6, pc}

0800088c <__aeabi_ddiv>:
 800088c:	b570      	push	{r4, r5, r6, lr}
 800088e:	f04f 0cff 	mov.w	ip, #255	; 0xff
 8000892:	f44c 6ce0 	orr.w	ip, ip, #1792	; 0x700
 8000896:	ea1c 5411 	ands.w	r4, ip, r1, lsr #20
 800089a:	bf1d      	ittte	ne
 800089c:	ea1c 5513 	andsne.w	r5, ip, r3, lsr #20
 80008a0:	ea94 0f0c 	teqne	r4, ip
 80008a4:	ea95 0f0c 	teqne	r5, ip
 80008a8:	f000 f8a7 	bleq	80009fa <__aeabi_ddiv+0x16e>
 80008ac:	eba4 0405 	sub.w	r4, r4, r5
 80008b0:	ea81 0e03 	eor.w	lr, r1, r3
 80008b4:	ea52 3503 	orrs.w	r5, r2, r3, lsl #12
 80008b8:	ea4f 3101 	mov.w	r1, r1, lsl #12
 80008bc:	f000 8088 	beq.w	80009d0 <__aeabi_ddiv+0x144>
 80008c0:	ea4f 3303 	mov.w	r3, r3, lsl #12
 80008c4:	f04f 5580 	mov.w	r5, #268435456	; 0x10000000
 80008c8:	ea45 1313 	orr.w	r3, r5, r3, lsr #4
 80008cc:	ea43 6312 	orr.w	r3, r3, r2, lsr #24
 80008d0:	ea4f 2202 	mov.w	r2, r2, lsl #8
 80008d4:	ea45 1511 	orr.w	r5, r5, r1, lsr #4
 80008d8:	ea45 6510 	orr.w	r5, r5, r0, lsr #24
 80008dc:	ea4f 2600 	mov.w	r6, r0, lsl #8
 80008e0:	f00e 4100 	and.w	r1, lr, #2147483648	; 0x80000000
 80008e4:	429d      	cmp	r5, r3
 80008e6:	bf08      	it	eq
 80008e8:	4296      	cmpeq	r6, r2
 80008ea:	f144 04fd 	adc.w	r4, r4, #253	; 0xfd
 80008ee:	f504 7440 	add.w	r4, r4, #768	; 0x300
 80008f2:	d202      	bcs.n	80008fa <__aeabi_ddiv+0x6e>
 80008f4:	085b      	lsrs	r3, r3, #1
 80008f6:	ea4f 0232 	mov.w	r2, r2, rrx
 80008fa:	1ab6      	subs	r6, r6, r2
 80008fc:	eb65 0503 	sbc.w	r5, r5, r3
 8000900:	085b      	lsrs	r3, r3, #1
 8000902:	ea4f 0232 	mov.w	r2, r2, rrx
 8000906:	f44f 1080 	mov.w	r0, #1048576	; 0x100000
 800090a:	f44f 2c00 	mov.w	ip, #524288	; 0x80000
 800090e:	ebb6 0e02 	subs.w	lr, r6, r2
 8000912:	eb75 0e03 	sbcs.w	lr, r5, r3
 8000916:	bf22      	ittt	cs
 8000918:	1ab6      	subcs	r6, r6, r2
 800091a:	4675      	movcs	r5, lr
 800091c:	ea40 000c 	orrcs.w	r0, r0, ip
 8000920:	085b      	lsrs	r3, r3, #1
 8000922:	ea4f 0232 	mov.w	r2, r2, rrx
 8000926:	ebb6 0e02 	subs.w	lr, r6, r2
 800092a:	eb75 0e03 	sbcs.w	lr, r5, r3
 800092e:	bf22      	ittt	cs
 8000930:	1ab6      	subcs	r6, r6, r2
 8000932:	4675      	movcs	r5, lr
 8000934:	ea40 005c 	orrcs.w	r0, r0, ip, lsr #1
 8000938:	085b      	lsrs	r3, r3, #1
 800093a:	ea4f 0232 	mov.w	r2, r2, rrx
 800093e:	ebb6 0e02 	subs.w	lr, r6, r2
 8000942:	eb75 0e03 	sbcs.w	lr, r5, r3
 8000946:	bf22      	ittt	cs
 8000948:	1ab6      	subcs	r6, r6, r2
 800094a:	4675      	movcs	r5, lr
 800094c:	ea40 009c 	orrcs.w	r0, r0, ip, lsr #2
 8000950:	085b      	lsrs	r3, r3, #1
 8000952:	ea4f 0232 	mov.w	r2, r2, rrx
 8000956:	ebb6 0e02 	subs.w	lr, r6, r2
 800095a:	eb75 0e03 	sbcs.w	lr, r5, r3
 800095e:	bf22      	ittt	cs
 8000960:	1ab6      	subcs	r6, r6, r2
 8000962:	4675      	movcs	r5, lr
 8000964:	ea40 00dc 	orrcs.w	r0, r0, ip, lsr #3
 8000968:	ea55 0e06 	orrs.w	lr, r5, r6
 800096c:	d018      	beq.n	80009a0 <__aeabi_ddiv+0x114>
 800096e:	ea4f 1505 	mov.w	r5, r5, lsl #4
 8000972:	ea45 7516 	orr.w	r5, r5, r6, lsr #28
 8000976:	ea4f 1606 	mov.w	r6, r6, lsl #4
 800097a:	ea4f 03c3 	mov.w	r3, r3, lsl #3
 800097e:	ea43 7352 	orr.w	r3, r3, r2, lsr #29
 8000982:	ea4f 02c2 	mov.w	r2, r2, lsl #3
 8000986:	ea5f 1c1c 	movs.w	ip, ip, lsr #4
 800098a:	d1c0      	bne.n	800090e <__aeabi_ddiv+0x82>
 800098c:	f411 1f80 	tst.w	r1, #1048576	; 0x100000
 8000990:	d10b      	bne.n	80009aa <__aeabi_ddiv+0x11e>
 8000992:	ea41 0100 	orr.w	r1, r1, r0
 8000996:	f04f 0000 	mov.w	r0, #0
 800099a:	f04f 4c00 	mov.w	ip, #2147483648	; 0x80000000
 800099e:	e7b6      	b.n	800090e <__aeabi_ddiv+0x82>
 80009a0:	f411 1f80 	tst.w	r1, #1048576	; 0x100000
 80009a4:	bf04      	itt	eq
 80009a6:	4301      	orreq	r1, r0
 80009a8:	2000      	moveq	r0, #0
 80009aa:	f1b4 0cfd 	subs.w	ip, r4, #253	; 0xfd
 80009ae:	bf88      	it	hi
 80009b0:	f5bc 6fe0 	cmphi.w	ip, #1792	; 0x700
 80009b4:	f63f aeaf 	bhi.w	8000716 <__aeabi_dmul+0xde>
 80009b8:	ebb5 0c03 	subs.w	ip, r5, r3
 80009bc:	bf04      	itt	eq
 80009be:	ebb6 0c02 	subseq.w	ip, r6, r2
 80009c2:	ea5f 0c50 	movseq.w	ip, r0, lsr #1
 80009c6:	f150 0000 	adcs.w	r0, r0, #0
 80009ca:	eb41 5104 	adc.w	r1, r1, r4, lsl #20
 80009ce:	bd70      	pop	{r4, r5, r6, pc}
 80009d0:	f00e 4e00 	and.w	lr, lr, #2147483648	; 0x80000000
 80009d4:	ea4e 3111 	orr.w	r1, lr, r1, lsr #12
 80009d8:	eb14 045c 	adds.w	r4, r4, ip, lsr #1
 80009dc:	bfc2      	ittt	gt
 80009de:	ebd4 050c 	rsbsgt	r5, r4, ip
 80009e2:	ea41 5104 	orrgt.w	r1, r1, r4, lsl #20
 80009e6:	bd70      	popgt	{r4, r5, r6, pc}
 80009e8:	f441 1180 	orr.w	r1, r1, #1048576	; 0x100000
 80009ec:	f04f 0e00 	mov.w	lr, #0
 80009f0:	3c01      	subs	r4, #1
 80009f2:	e690      	b.n	8000716 <__aeabi_dmul+0xde>
 80009f4:	ea45 0e06 	orr.w	lr, r5, r6
 80009f8:	e68d      	b.n	8000716 <__aeabi_dmul+0xde>
 80009fa:	ea0c 5513 	and.w	r5, ip, r3, lsr #20
 80009fe:	ea94 0f0c 	teq	r4, ip
 8000a02:	bf08      	it	eq
 8000a04:	ea95 0f0c 	teqeq	r5, ip
 8000a08:	f43f af3b 	beq.w	8000882 <__aeabi_dmul+0x24a>
 8000a0c:	ea94 0f0c 	teq	r4, ip
 8000a10:	d10a      	bne.n	8000a28 <__aeabi_ddiv+0x19c>
 8000a12:	ea50 3401 	orrs.w	r4, r0, r1, lsl #12
 8000a16:	f47f af34 	bne.w	8000882 <__aeabi_dmul+0x24a>
 8000a1a:	ea95 0f0c 	teq	r5, ip
 8000a1e:	f47f af25 	bne.w	800086c <__aeabi_dmul+0x234>
 8000a22:	4610      	mov	r0, r2
 8000a24:	4619      	mov	r1, r3
 8000a26:	e72c      	b.n	8000882 <__aeabi_dmul+0x24a>
 8000a28:	ea95 0f0c 	teq	r5, ip
 8000a2c:	d106      	bne.n	8000a3c <__aeabi_ddiv+0x1b0>
 8000a2e:	ea52 3503 	orrs.w	r5, r2, r3, lsl #12
 8000a32:	f43f aefd 	beq.w	8000830 <__aeabi_dmul+0x1f8>
 8000a36:	4610      	mov	r0, r2
 8000a38:	4619      	mov	r1, r3
 8000a3a:	e722      	b.n	8000882 <__aeabi_dmul+0x24a>
 8000a3c:	ea50 0641 	orrs.w	r6, r0, r1, lsl #1
 8000a40:	bf18      	it	ne
 8000a42:	ea52 0643 	orrsne.w	r6, r2, r3, lsl #1
 8000a46:	f47f aec5 	bne.w	80007d4 <__aeabi_dmul+0x19c>
 8000a4a:	ea50 0441 	orrs.w	r4, r0, r1, lsl #1
 8000a4e:	f47f af0d 	bne.w	800086c <__aeabi_dmul+0x234>
 8000a52:	ea52 0543 	orrs.w	r5, r2, r3, lsl #1
 8000a56:	f47f aeeb 	bne.w	8000830 <__aeabi_dmul+0x1f8>
 8000a5a:	e712      	b.n	8000882 <__aeabi_dmul+0x24a>

08000a5c <__aeabi_d2f>:
 8000a5c:	ea4f 0241 	mov.w	r2, r1, lsl #1
 8000a60:	f1b2 43e0 	subs.w	r3, r2, #1879048192	; 0x70000000
 8000a64:	bf24      	itt	cs
 8000a66:	f5b3 1c00 	subscs.w	ip, r3, #2097152	; 0x200000
 8000a6a:	f1dc 5cfe 	rsbscs	ip, ip, #532676608	; 0x1fc00000
 8000a6e:	d90d      	bls.n	8000a8c <__aeabi_d2f+0x30>
 8000a70:	f001 4c00 	and.w	ip, r1, #2147483648	; 0x80000000
 8000a74:	ea4f 02c0 	mov.w	r2, r0, lsl #3
 8000a78:	ea4c 7050 	orr.w	r0, ip, r0, lsr #29
 8000a7c:	f1b2 4f00 	cmp.w	r2, #2147483648	; 0x80000000
 8000a80:	eb40 0083 	adc.w	r0, r0, r3, lsl #2
 8000a84:	bf08      	it	eq
 8000a86:	f020 0001 	biceq.w	r0, r0, #1
 8000a8a:	4770      	bx	lr
 8000a8c:	f011 4f80 	tst.w	r1, #1073741824	; 0x40000000
 8000a90:	d121      	bne.n	8000ad6 <__aeabi_d2f+0x7a>
 8000a92:	f113 7238 	adds.w	r2, r3, #48234496	; 0x2e00000
 8000a96:	bfbc      	itt	lt
 8000a98:	f001 4000 	andlt.w	r0, r1, #2147483648	; 0x80000000
 8000a9c:	4770      	bxlt	lr
 8000a9e:	f441 1180 	orr.w	r1, r1, #1048576	; 0x100000
 8000aa2:	ea4f 5252 	mov.w	r2, r2, lsr #21
 8000aa6:	f1c2 0218 	rsb	r2, r2, #24
 8000aaa:	f1c2 0c20 	rsb	ip, r2, #32
 8000aae:	fa10 f30c 	lsls.w	r3, r0, ip
 8000ab2:	fa20 f002 	lsr.w	r0, r0, r2
 8000ab6:	bf18      	it	ne
 8000ab8:	f040 0001 	orrne.w	r0, r0, #1
 8000abc:	ea4f 23c1 	mov.w	r3, r1, lsl #11
 8000ac0:	ea4f 23d3 	mov.w	r3, r3, lsr #11
 8000ac4:	fa03 fc0c 	lsl.w	ip, r3, ip
 8000ac8:	ea40 000c 	orr.w	r0, r0, ip
 8000acc:	fa23 f302 	lsr.w	r3, r3, r2
 8000ad0:	ea4f 0343 	mov.w	r3, r3, lsl #1
 8000ad4:	e7cc      	b.n	8000a70 <__aeabi_d2f+0x14>
 8000ad6:	ea7f 5362 	mvns.w	r3, r2, asr #21
 8000ada:	d107      	bne.n	8000aec <__aeabi_d2f+0x90>
 8000adc:	ea50 3301 	orrs.w	r3, r0, r1, lsl #12
 8000ae0:	bf1e      	ittt	ne
 8000ae2:	f04f 40fe 	movne.w	r0, #2130706432	; 0x7f000000
 8000ae6:	f440 0040 	orrne.w	r0, r0, #12582912	; 0xc00000
 8000aea:	4770      	bxne	lr
 8000aec:	f001 4000 	and.w	r0, r1, #2147483648	; 0x80000000
 8000af0:	f040 40fe 	orr.w	r0, r0, #2130706432	; 0x7f000000
 8000af4:	f440 0000 	orr.w	r0, r0, #8388608	; 0x800000
 8000af8:	4770      	bx	lr
 8000afa:	bf00      	nop

08000afc <__aeabi_uldivmod>:
 8000afc:	b953      	cbnz	r3, 8000b14 <__aeabi_uldivmod+0x18>
 8000afe:	b94a      	cbnz	r2, 8000b14 <__aeabi_uldivmod+0x18>
 8000b00:	2900      	cmp	r1, #0
 8000b02:	bf08      	it	eq
 8000b04:	2800      	cmpeq	r0, #0
 8000b06:	bf1c      	itt	ne
 8000b08:	f04f 31ff 	movne.w	r1, #4294967295
 8000b0c:	f04f 30ff 	movne.w	r0, #4294967295
 8000b10:	f000 b972 	b.w	8000df8 <__aeabi_idiv0>
 8000b14:	f1ad 0c08 	sub.w	ip, sp, #8
 8000b18:	e96d ce04 	strd	ip, lr, [sp, #-16]!
 8000b1c:	f000 f806 	bl	8000b2c <__udivmoddi4>
 8000b20:	f8dd e004 	ldr.w	lr, [sp, #4]
 8000b24:	e9dd 2302 	ldrd	r2, r3, [sp, #8]
 8000b28:	b004      	add	sp, #16
 8000b2a:	4770      	bx	lr

08000b2c <__udivmoddi4>:
 8000b2c:	e92d 47f0 	stmdb	sp!, {r4, r5, r6, r7, r8, r9, sl, lr}
 8000b30:	9e08      	ldr	r6, [sp, #32]
 8000b32:	4604      	mov	r4, r0
 8000b34:	4688      	mov	r8, r1
 8000b36:	2b00      	cmp	r3, #0
 8000b38:	d14b      	bne.n	8000bd2 <__udivmoddi4+0xa6>
 8000b3a:	428a      	cmp	r2, r1
 8000b3c:	4615      	mov	r5, r2
 8000b3e:	d967      	bls.n	8000c10 <__udivmoddi4+0xe4>
 8000b40:	fab2 f282 	clz	r2, r2
 8000b44:	b14a      	cbz	r2, 8000b5a <__udivmoddi4+0x2e>
 8000b46:	f1c2 0720 	rsb	r7, r2, #32
 8000b4a:	fa01 f302 	lsl.w	r3, r1, r2
 8000b4e:	fa20 f707 	lsr.w	r7, r0, r7
 8000b52:	4095      	lsls	r5, r2
 8000b54:	ea47 0803 	orr.w	r8, r7, r3
 8000b58:	4094      	lsls	r4, r2
 8000b5a:	ea4f 4e15 	mov.w	lr, r5, lsr #16
 8000b5e:	0c23      	lsrs	r3, r4, #16
 8000b60:	fbb8 f7fe 	udiv	r7, r8, lr
 8000b64:	fa1f fc85 	uxth.w	ip, r5
 8000b68:	fb0e 8817 	mls	r8, lr, r7, r8
 8000b6c:	ea43 4308 	orr.w	r3, r3, r8, lsl #16
 8000b70:	fb07 f10c 	mul.w	r1, r7, ip
 8000b74:	4299      	cmp	r1, r3
 8000b76:	d909      	bls.n	8000b8c <__udivmoddi4+0x60>
 8000b78:	18eb      	adds	r3, r5, r3
 8000b7a:	f107 30ff 	add.w	r0, r7, #4294967295
 8000b7e:	f080 811b 	bcs.w	8000db8 <__udivmoddi4+0x28c>
 8000b82:	4299      	cmp	r1, r3
 8000b84:	f240 8118 	bls.w	8000db8 <__udivmoddi4+0x28c>
 8000b88:	3f02      	subs	r7, #2
 8000b8a:	442b      	add	r3, r5
 8000b8c:	1a5b      	subs	r3, r3, r1
 8000b8e:	b2a4      	uxth	r4, r4
 8000b90:	fbb3 f0fe 	udiv	r0, r3, lr
 8000b94:	fb0e 3310 	mls	r3, lr, r0, r3
 8000b98:	ea44 4403 	orr.w	r4, r4, r3, lsl #16
 8000b9c:	fb00 fc0c 	mul.w	ip, r0, ip
 8000ba0:	45a4      	cmp	ip, r4
 8000ba2:	d909      	bls.n	8000bb8 <__udivmoddi4+0x8c>
 8000ba4:	192c      	adds	r4, r5, r4
 8000ba6:	f100 33ff 	add.w	r3, r0, #4294967295
 8000baa:	f080 8107 	bcs.w	8000dbc <__udivmoddi4+0x290>
 8000bae:	45a4      	cmp	ip, r4
 8000bb0:	f240 8104 	bls.w	8000dbc <__udivmoddi4+0x290>
 8000bb4:	3802      	subs	r0, #2
 8000bb6:	442c      	add	r4, r5
 8000bb8:	ea40 4007 	orr.w	r0, r0, r7, lsl #16
 8000bbc:	eba4 040c 	sub.w	r4, r4, ip
 8000bc0:	2700      	movs	r7, #0
 8000bc2:	b11e      	cbz	r6, 8000bcc <__udivmoddi4+0xa0>
 8000bc4:	40d4      	lsrs	r4, r2
 8000bc6:	2300      	movs	r3, #0
 8000bc8:	e9c6 4300 	strd	r4, r3, [r6]
 8000bcc:	4639      	mov	r1, r7
 8000bce:	e8bd 87f0 	ldmia.w	sp!, {r4, r5, r6, r7, r8, r9, sl, pc}
 8000bd2:	428b      	cmp	r3, r1
 8000bd4:	d909      	bls.n	8000bea <__udivmoddi4+0xbe>
 8000bd6:	2e00      	cmp	r6, #0
 8000bd8:	f000 80eb 	beq.w	8000db2 <__udivmoddi4+0x286>
 8000bdc:	2700      	movs	r7, #0
 8000bde:	e9c6 0100 	strd	r0, r1, [r6]
 8000be2:	4638      	mov	r0, r7
 8000be4:	4639      	mov	r1, r7
 8000be6:	e8bd 87f0 	ldmia.w	sp!, {r4, r5, r6, r7, r8, r9, sl, pc}
 8000bea:	fab3 f783 	clz	r7, r3
 8000bee:	2f00      	cmp	r7, #0
 8000bf0:	d147      	bne.n	8000c82 <__udivmoddi4+0x156>
 8000bf2:	428b      	cmp	r3, r1
 8000bf4:	d302      	bcc.n	8000bfc <__udivmoddi4+0xd0>
 8000bf6:	4282      	cmp	r2, r0
 8000bf8:	f200 80fa 	bhi.w	8000df0 <__udivmoddi4+0x2c4>
 8000bfc:	1a84      	subs	r4, r0, r2
 8000bfe:	eb61 0303 	sbc.w	r3, r1, r3
 8000c02:	2001      	movs	r0, #1
 8000c04:	4698      	mov	r8, r3
 8000c06:	2e00      	cmp	r6, #0
 8000c08:	d0e0      	beq.n	8000bcc <__udivmoddi4+0xa0>
 8000c0a:	e9c6 4800 	strd	r4, r8, [r6]
 8000c0e:	e7dd      	b.n	8000bcc <__udivmoddi4+0xa0>
 8000c10:	b902      	cbnz	r2, 8000c14 <__udivmoddi4+0xe8>
 8000c12:	deff      	udf	#255	; 0xff
 8000c14:	fab2 f282 	clz	r2, r2
 8000c18:	2a00      	cmp	r2, #0
 8000c1a:	f040 808f 	bne.w	8000d3c <__udivmoddi4+0x210>
 8000c1e:	1b49      	subs	r1, r1, r5
 8000c20:	ea4f 4e15 	mov.w	lr, r5, lsr #16
 8000c24:	fa1f f885 	uxth.w	r8, r5
 8000c28:	2701      	movs	r7, #1
 8000c2a:	fbb1 fcfe 	udiv	ip, r1, lr
 8000c2e:	0c23      	lsrs	r3, r4, #16
 8000c30:	fb0e 111c 	mls	r1, lr, ip, r1
 8000c34:	ea43 4301 	orr.w	r3, r3, r1, lsl #16
 8000c38:	fb08 f10c 	mul.w	r1, r8, ip
 8000c3c:	4299      	cmp	r1, r3
 8000c3e:	d907      	bls.n	8000c50 <__udivmoddi4+0x124>
 8000c40:	18eb      	adds	r3, r5, r3
 8000c42:	f10c 30ff 	add.w	r0, ip, #4294967295
 8000c46:	d202      	bcs.n	8000c4e <__udivmoddi4+0x122>
 8000c48:	4299      	cmp	r1, r3
 8000c4a:	f200 80cd 	bhi.w	8000de8 <__udivmoddi4+0x2bc>
 8000c4e:	4684      	mov	ip, r0
 8000c50:	1a59      	subs	r1, r3, r1
 8000c52:	b2a3      	uxth	r3, r4
 8000c54:	fbb1 f0fe 	udiv	r0, r1, lr
 8000c58:	fb0e 1410 	mls	r4, lr, r0, r1
 8000c5c:	ea43 4404 	orr.w	r4, r3, r4, lsl #16
 8000c60:	fb08 f800 	mul.w	r8, r8, r0
 8000c64:	45a0      	cmp	r8, r4
 8000c66:	d907      	bls.n	8000c78 <__udivmoddi4+0x14c>
 8000c68:	192c      	adds	r4, r5, r4
 8000c6a:	f100 33ff 	add.w	r3, r0, #4294967295
 8000c6e:	d202      	bcs.n	8000c76 <__udivmoddi4+0x14a>
 8000c70:	45a0      	cmp	r8, r4
 8000c72:	f200 80b6 	bhi.w	8000de2 <__udivmoddi4+0x2b6>
 8000c76:	4618      	mov	r0, r3
 8000c78:	eba4 0408 	sub.w	r4, r4, r8
 8000c7c:	ea40 400c 	orr.w	r0, r0, ip, lsl #16
 8000c80:	e79f      	b.n	8000bc2 <__udivmoddi4+0x96>
 8000c82:	f1c7 0c20 	rsb	ip, r7, #32
 8000c86:	40bb      	lsls	r3, r7
 8000c88:	fa22 fe0c 	lsr.w	lr, r2, ip
 8000c8c:	ea4e 0e03 	orr.w	lr, lr, r3
 8000c90:	fa01 f407 	lsl.w	r4, r1, r7
 8000c94:	fa20 f50c 	lsr.w	r5, r0, ip
 8000c98:	fa21 f30c 	lsr.w	r3, r1, ip
 8000c9c:	ea4f 481e 	mov.w	r8, lr, lsr #16
 8000ca0:	4325      	orrs	r5, r4
 8000ca2:	fbb3 f9f8 	udiv	r9, r3, r8
 8000ca6:	0c2c      	lsrs	r4, r5, #16
 8000ca8:	fb08 3319 	mls	r3, r8, r9, r3
 8000cac:	fa1f fa8e 	uxth.w	sl, lr
 8000cb0:	ea44 4303 	orr.w	r3, r4, r3, lsl #16
 8000cb4:	fb09 f40a 	mul.w	r4, r9, sl
 8000cb8:	429c      	cmp	r4, r3
 8000cba:	fa02 f207 	lsl.w	r2, r2, r7
 8000cbe:	fa00 f107 	lsl.w	r1, r0, r7
 8000cc2:	d90b      	bls.n	8000cdc <__udivmoddi4+0x1b0>
 8000cc4:	eb1e 0303 	adds.w	r3, lr, r3
 8000cc8:	f109 30ff 	add.w	r0, r9, #4294967295
 8000ccc:	f080 8087 	bcs.w	8000dde <__udivmoddi4+0x2b2>
 8000cd0:	429c      	cmp	r4, r3
 8000cd2:	f240 8084 	bls.w	8000dde <__udivmoddi4+0x2b2>
 8000cd6:	f1a9 0902 	sub.w	r9, r9, #2
 8000cda:	4473      	add	r3, lr
 8000cdc:	1b1b      	subs	r3, r3, r4
 8000cde:	b2ad      	uxth	r5, r5
 8000ce0:	fbb3 f0f8 	udiv	r0, r3, r8
 8000ce4:	fb08 3310 	mls	r3, r8, r0, r3
 8000ce8:	ea45 4403 	orr.w	r4, r5, r3, lsl #16
 8000cec:	fb00 fa0a 	mul.w	sl, r0, sl
 8000cf0:	45a2      	cmp	sl, r4
 8000cf2:	d908      	bls.n	8000d06 <__udivmoddi4+0x1da>
 8000cf4:	eb1e 0404 	adds.w	r4, lr, r4
 8000cf8:	f100 33ff 	add.w	r3, r0, #4294967295
 8000cfc:	d26b      	bcs.n	8000dd6 <__udivmoddi4+0x2aa>
 8000cfe:	45a2      	cmp	sl, r4
 8000d00:	d969      	bls.n	8000dd6 <__udivmoddi4+0x2aa>
 8000d02:	3802      	subs	r0, #2
 8000d04:	4474      	add	r4, lr
 8000d06:	ea40 4009 	orr.w	r0, r0, r9, lsl #16
 8000d0a:	fba0 8902 	umull	r8, r9, r0, r2
 8000d0e:	eba4 040a 	sub.w	r4, r4, sl
 8000d12:	454c      	cmp	r4, r9
 8000d14:	46c2      	mov	sl, r8
 8000d16:	464b      	mov	r3, r9
 8000d18:	d354      	bcc.n	8000dc4 <__udivmoddi4+0x298>
 8000d1a:	d051      	beq.n	8000dc0 <__udivmoddi4+0x294>
 8000d1c:	2e00      	cmp	r6, #0
 8000d1e:	d069      	beq.n	8000df4 <__udivmoddi4+0x2c8>
 8000d20:	ebb1 050a 	subs.w	r5, r1, sl
 8000d24:	eb64 0403 	sbc.w	r4, r4, r3
 8000d28:	fa04 fc0c 	lsl.w	ip, r4, ip
 8000d2c:	40fd      	lsrs	r5, r7
 8000d2e:	40fc      	lsrs	r4, r7
 8000d30:	ea4c 0505 	orr.w	r5, ip, r5
 8000d34:	e9c6 5400 	strd	r5, r4, [r6]
 8000d38:	2700      	movs	r7, #0
 8000d3a:	e747      	b.n	8000bcc <__udivmoddi4+0xa0>
 8000d3c:	f1c2 0320 	rsb	r3, r2, #32
 8000d40:	fa20 f703 	lsr.w	r7, r0, r3
 8000d44:	4095      	lsls	r5, r2
 8000d46:	fa01 f002 	lsl.w	r0, r1, r2
 8000d4a:	fa21 f303 	lsr.w	r3, r1, r3
 8000d4e:	ea4f 4e15 	mov.w	lr, r5, lsr #16
 8000d52:	4338      	orrs	r0, r7
 8000d54:	0c01      	lsrs	r1, r0, #16
 8000d56:	fbb3 f7fe 	udiv	r7, r3, lr
 8000d5a:	fa1f f885 	uxth.w	r8, r5
 8000d5e:	fb0e 3317 	mls	r3, lr, r7, r3
 8000d62:	ea41 4103 	orr.w	r1, r1, r3, lsl #16
 8000d66:	fb07 f308 	mul.w	r3, r7, r8
 8000d6a:	428b      	cmp	r3, r1
 8000d6c:	fa04 f402 	lsl.w	r4, r4, r2
 8000d70:	d907      	bls.n	8000d82 <__udivmoddi4+0x256>
 8000d72:	1869      	adds	r1, r5, r1
 8000d74:	f107 3cff 	add.w	ip, r7, #4294967295
 8000d78:	d22f      	bcs.n	8000dda <__udivmoddi4+0x2ae>
 8000d7a:	428b      	cmp	r3, r1
 8000d7c:	d92d      	bls.n	8000dda <__udivmoddi4+0x2ae>
 8000d7e:	3f02      	subs	r7, #2
 8000d80:	4429      	add	r1, r5
 8000d82:	1acb      	subs	r3, r1, r3
 8000d84:	b281      	uxth	r1, r0
 8000d86:	fbb3 f0fe 	udiv	r0, r3, lr
 8000d8a:	fb0e 3310 	mls	r3, lr, r0, r3
 8000d8e:	ea41 4103 	orr.w	r1, r1, r3, lsl #16
 8000d92:	fb00 f308 	mul.w	r3, r0, r8
 8000d96:	428b      	cmp	r3, r1
 8000d98:	d907      	bls.n	8000daa <__udivmoddi4+0x27e>
 8000d9a:	1869      	adds	r1, r5, r1
 8000d9c:	f100 3cff 	add.w	ip, r0, #4294967295
 8000da0:	d217      	bcs.n	8000dd2 <__udivmoddi4+0x2a6>
 8000da2:	428b      	cmp	r3, r1
 8000da4:	d915      	bls.n	8000dd2 <__udivmoddi4+0x2a6>
 8000da6:	3802      	subs	r0, #2
 8000da8:	4429      	add	r1, r5
 8000daa:	1ac9      	subs	r1, r1, r3
 8000dac:	ea40 4707 	orr.w	r7, r0, r7, lsl #16
 8000db0:	e73b      	b.n	8000c2a <__udivmoddi4+0xfe>
 8000db2:	4637      	mov	r7, r6
 8000db4:	4630      	mov	r0, r6
 8000db6:	e709      	b.n	8000bcc <__udivmoddi4+0xa0>
 8000db8:	4607      	mov	r7, r0
 8000dba:	e6e7      	b.n	8000b8c <__udivmoddi4+0x60>
 8000dbc:	4618      	mov	r0, r3
 8000dbe:	e6fb      	b.n	8000bb8 <__udivmoddi4+0x8c>
 8000dc0:	4541      	cmp	r1, r8
 8000dc2:	d2ab      	bcs.n	8000d1c <__udivmoddi4+0x1f0>
 8000dc4:	ebb8 0a02 	subs.w	sl, r8, r2
 8000dc8:	eb69 020e 	sbc.w	r2, r9, lr
 8000dcc:	3801      	subs	r0, #1
 8000dce:	4613      	mov	r3, r2
 8000dd0:	e7a4      	b.n	8000d1c <__udivmoddi4+0x1f0>
 8000dd2:	4660      	mov	r0, ip
 8000dd4:	e7e9      	b.n	8000daa <__udivmoddi4+0x27e>
 8000dd6:	4618      	mov	r0, r3
 8000dd8:	e795      	b.n	8000d06 <__udivmoddi4+0x1da>
 8000dda:	4667      	mov	r7, ip
 8000ddc:	e7d1      	b.n	8000d82 <__udivmoddi4+0x256>
 8000dde:	4681      	mov	r9, r0
 8000de0:	e77c      	b.n	8000cdc <__udivmoddi4+0x1b0>
 8000de2:	3802      	subs	r0, #2
 8000de4:	442c      	add	r4, r5
 8000de6:	e747      	b.n	8000c78 <__udivmoddi4+0x14c>
 8000de8:	f1ac 0c02 	sub.w	ip, ip, #2
 8000dec:	442b      	add	r3, r5
 8000dee:	e72f      	b.n	8000c50 <__udivmoddi4+0x124>
 8000df0:	4638      	mov	r0, r7
 8000df2:	e708      	b.n	8000c06 <__udivmoddi4+0xda>
 8000df4:	4637      	mov	r7, r6
 8000df6:	e6e9      	b.n	8000bcc <__udivmoddi4+0xa0>

08000df8 <__aeabi_idiv0>:
 8000df8:	4770      	bx	lr
 8000dfa:	bf00      	nop

08000dfc <HAL_InitTick>:
 8000dfc:	4a0e      	ldr	r2, [pc, #56]	; (8000e38 <HAL_InitTick+0x3c>)
 8000dfe:	f44f 737a 	mov.w	r3, #1000	; 0x3e8
 8000e02:	490e      	ldr	r1, [pc, #56]	; (8000e3c <HAL_InitTick+0x40>)
 8000e04:	7812      	ldrb	r2, [r2, #0]
 8000e06:	fbb3 f3f2 	udiv	r3, r3, r2
 8000e0a:	b510      	push	{r4, lr}
 8000e0c:	4604      	mov	r4, r0
 8000e0e:	6808      	ldr	r0, [r1, #0]
 8000e10:	fbb0 f0f3 	udiv	r0, r0, r3
 8000e14:	f000 fa08 	bl	8001228 <HAL_SYSTICK_Config>
 8000e18:	b908      	cbnz	r0, 8000e1e <HAL_InitTick+0x22>
 8000e1a:	2c0f      	cmp	r4, #15
 8000e1c:	d901      	bls.n	8000e22 <HAL_InitTick+0x26>
 8000e1e:	2001      	movs	r0, #1
 8000e20:	bd10      	pop	{r4, pc}
 8000e22:	2200      	movs	r2, #0
 8000e24:	4621      	mov	r1, r4
 8000e26:	f04f 30ff 	mov.w	r0, #4294967295
 8000e2a:	f000 f9b9 	bl	80011a0 <HAL_NVIC_SetPriority>
 8000e2e:	4b04      	ldr	r3, [pc, #16]	; (8000e40 <HAL_InitTick+0x44>)
 8000e30:	2000      	movs	r0, #0
 8000e32:	601c      	str	r4, [r3, #0]
 8000e34:	bd10      	pop	{r4, pc}
 8000e36:	bf00      	nop
 8000e38:	20000000 	.word	0x20000000
 8000e3c:	20000110 	.word	0x20000110
 8000e40:	20000004 	.word	0x20000004

08000e44 <HAL_Init>:
 8000e44:	b508      	push	{r3, lr}
 8000e46:	2003      	movs	r0, #3
 8000e48:	f000 f996 	bl	8001178 <HAL_NVIC_SetPriorityGrouping>
 8000e4c:	2000      	movs	r0, #0
 8000e4e:	f7ff ffd5 	bl	8000dfc <HAL_InitTick>
 8000e52:	f004 ff79 	bl	8005d48 <HAL_MspInit>
 8000e56:	2000      	movs	r0, #0
 8000e58:	bd08      	pop	{r3, pc}
 8000e5a:	bf00      	nop

08000e5c <HAL_IncTick>:
 8000e5c:	4a03      	ldr	r2, [pc, #12]	; (8000e6c <HAL_IncTick+0x10>)
 8000e5e:	4b04      	ldr	r3, [pc, #16]	; (8000e70 <HAL_IncTick+0x14>)
 8000e60:	6811      	ldr	r1, [r2, #0]
 8000e62:	781b      	ldrb	r3, [r3, #0]
 8000e64:	440b      	add	r3, r1
 8000e66:	6013      	str	r3, [r2, #0]
 8000e68:	4770      	bx	lr
 8000e6a:	bf00      	nop
 8000e6c:	200001f4 	.word	0x200001f4
 8000e70:	20000000 	.word	0x20000000

08000e74 <HAL_GetTick>:
 8000e74:	4b01      	ldr	r3, [pc, #4]	; (8000e7c <HAL_GetTick+0x8>)
 8000e76:	6818      	ldr	r0, [r3, #0]
 8000e78:	4770      	bx	lr
 8000e7a:	bf00      	nop
 8000e7c:	200001f4 	.word	0x200001f4

08000e80 <HAL_Delay>:
 8000e80:	b538      	push	{r3, r4, r5, lr}
 8000e82:	4604      	mov	r4, r0
 8000e84:	f7ff fff6 	bl	8000e74 <HAL_GetTick>
 8000e88:	4605      	mov	r5, r0
 8000e8a:	1c63      	adds	r3, r4, #1
 8000e8c:	d002      	beq.n	8000e94 <HAL_Delay+0x14>
 8000e8e:	4b04      	ldr	r3, [pc, #16]	; (8000ea0 <HAL_Delay+0x20>)
 8000e90:	781b      	ldrb	r3, [r3, #0]
 8000e92:	441c      	add	r4, r3
 8000e94:	f7ff ffee 	bl	8000e74 <HAL_GetTick>
 8000e98:	1b40      	subs	r0, r0, r5
 8000e9a:	42a0      	cmp	r0, r4
 8000e9c:	d3fa      	bcc.n	8000e94 <HAL_Delay+0x14>
 8000e9e:	bd38      	pop	{r3, r4, r5, pc}
 8000ea0:	20000000 	.word	0x20000000

08000ea4 <HAL_ADC_Init>:
 8000ea4:	2800      	cmp	r0, #0
 8000ea6:	f000 8092 	beq.w	8000fce <HAL_ADC_Init+0x12a>
 8000eaa:	b5f8      	push	{r3, r4, r5, r6, r7, lr}
 8000eac:	6c05      	ldr	r5, [r0, #64]	; 0x40
 8000eae:	4604      	mov	r4, r0
 8000eb0:	2d00      	cmp	r5, #0
 8000eb2:	f000 8082 	beq.w	8000fba <HAL_ADC_Init+0x116>
 8000eb6:	6c23      	ldr	r3, [r4, #64]	; 0x40
 8000eb8:	06db      	lsls	r3, r3, #27
 8000eba:	d504      	bpl.n	8000ec6 <HAL_ADC_Init+0x22>
 8000ebc:	2300      	movs	r3, #0
 8000ebe:	2001      	movs	r0, #1
 8000ec0:	f884 303c 	strb.w	r3, [r4, #60]	; 0x3c
 8000ec4:	bdf8      	pop	{r3, r4, r5, r6, r7, pc}
 8000ec6:	6c23      	ldr	r3, [r4, #64]	; 0x40
 8000ec8:	4a4e      	ldr	r2, [pc, #312]	; (8001004 <HAL_ADC_Init+0x160>)
 8000eca:	494f      	ldr	r1, [pc, #316]	; (8001008 <HAL_ADC_Init+0x164>)
 8000ecc:	401a      	ands	r2, r3
 8000ece:	6823      	ldr	r3, [r4, #0]
 8000ed0:	4d4e      	ldr	r5, [pc, #312]	; (800100c <HAL_ADC_Init+0x168>)
 8000ed2:	f042 0202 	orr.w	r2, r2, #2
 8000ed6:	6422      	str	r2, [r4, #64]	; 0x40
 8000ed8:	684a      	ldr	r2, [r1, #4]
 8000eda:	f422 3240 	bic.w	r2, r2, #196608	; 0x30000
 8000ede:	604a      	str	r2, [r1, #4]
 8000ee0:	684a      	ldr	r2, [r1, #4]
 8000ee2:	6860      	ldr	r0, [r4, #4]
 8000ee4:	4302      	orrs	r2, r0
 8000ee6:	604a      	str	r2, [r1, #4]
 8000ee8:	685a      	ldr	r2, [r3, #4]
 8000eea:	6921      	ldr	r1, [r4, #16]
 8000eec:	f422 7280 	bic.w	r2, r2, #256	; 0x100
 8000ef0:	f8d4 c008 	ldr.w	ip, [r4, #8]
 8000ef4:	68e7      	ldr	r7, [r4, #12]
 8000ef6:	605a      	str	r2, [r3, #4]
 8000ef8:	6858      	ldr	r0, [r3, #4]
 8000efa:	6aa6      	ldr	r6, [r4, #40]	; 0x28
 8000efc:	ea40 2001 	orr.w	r0, r0, r1, lsl #8
 8000f00:	42ae      	cmp	r6, r5
 8000f02:	6058      	str	r0, [r3, #4]
 8000f04:	6858      	ldr	r0, [r3, #4]
 8000f06:	f020 7040 	bic.w	r0, r0, #50331648	; 0x3000000
 8000f0a:	6058      	str	r0, [r3, #4]
 8000f0c:	6859      	ldr	r1, [r3, #4]
 8000f0e:	ea41 010c 	orr.w	r1, r1, ip
 8000f12:	6059      	str	r1, [r3, #4]
 8000f14:	6899      	ldr	r1, [r3, #8]
 8000f16:	f421 6100 	bic.w	r1, r1, #2048	; 0x800
 8000f1a:	6099      	str	r1, [r3, #8]
 8000f1c:	689a      	ldr	r2, [r3, #8]
 8000f1e:	ea42 0207 	orr.w	r2, r2, r7
 8000f22:	609a      	str	r2, [r3, #8]
 8000f24:	d055      	beq.n	8000fd2 <HAL_ADC_Init+0x12e>
 8000f26:	6899      	ldr	r1, [r3, #8]
 8000f28:	6ae0      	ldr	r0, [r4, #44]	; 0x2c
 8000f2a:	f021 6170 	bic.w	r1, r1, #251658240	; 0xf000000
 8000f2e:	6099      	str	r1, [r3, #8]
 8000f30:	689a      	ldr	r2, [r3, #8]
 8000f32:	4316      	orrs	r6, r2
 8000f34:	609e      	str	r6, [r3, #8]
 8000f36:	6899      	ldr	r1, [r3, #8]
 8000f38:	f021 5140 	bic.w	r1, r1, #805306368	; 0x30000000
 8000f3c:	6099      	str	r1, [r3, #8]
 8000f3e:	689a      	ldr	r2, [r3, #8]
 8000f40:	4302      	orrs	r2, r0
 8000f42:	609a      	str	r2, [r3, #8]
 8000f44:	6899      	ldr	r1, [r3, #8]
 8000f46:	69a5      	ldr	r5, [r4, #24]
 8000f48:	f021 0102 	bic.w	r1, r1, #2
 8000f4c:	f894 0020 	ldrb.w	r0, [r4, #32]
 8000f50:	6099      	str	r1, [r3, #8]
 8000f52:	689a      	ldr	r2, [r3, #8]
 8000f54:	ea42 0245 	orr.w	r2, r2, r5, lsl #1
 8000f58:	609a      	str	r2, [r3, #8]
 8000f5a:	2800      	cmp	r0, #0
 8000f5c:	d142      	bne.n	8000fe4 <HAL_ADC_Init+0x140>
 8000f5e:	685a      	ldr	r2, [r3, #4]
 8000f60:	f422 6200 	bic.w	r2, r2, #2048	; 0x800
 8000f64:	605a      	str	r2, [r3, #4]
 8000f66:	6ad8      	ldr	r0, [r3, #44]	; 0x2c
 8000f68:	2600      	movs	r6, #0
 8000f6a:	69e5      	ldr	r5, [r4, #28]
 8000f6c:	f420 0070 	bic.w	r0, r0, #15728640	; 0xf00000
 8000f70:	f894 c030 	ldrb.w	ip, [r4, #48]	; 0x30
 8000f74:	1e6a      	subs	r2, r5, #1
 8000f76:	6967      	ldr	r7, [r4, #20]
 8000f78:	62d8      	str	r0, [r3, #44]	; 0x2c
 8000f7a:	4630      	mov	r0, r6
 8000f7c:	6add      	ldr	r5, [r3, #44]	; 0x2c
 8000f7e:	ea45 5502 	orr.w	r5, r5, r2, lsl #20
 8000f82:	62dd      	str	r5, [r3, #44]	; 0x2c
 8000f84:	689d      	ldr	r5, [r3, #8]
 8000f86:	f425 7500 	bic.w	r5, r5, #512	; 0x200
 8000f8a:	609d      	str	r5, [r3, #8]
 8000f8c:	6899      	ldr	r1, [r3, #8]
 8000f8e:	ea41 214c 	orr.w	r1, r1, ip, lsl #9
 8000f92:	6099      	str	r1, [r3, #8]
 8000f94:	6899      	ldr	r1, [r3, #8]
 8000f96:	f421 6180 	bic.w	r1, r1, #1024	; 0x400
 8000f9a:	6099      	str	r1, [r3, #8]
 8000f9c:	689a      	ldr	r2, [r3, #8]
 8000f9e:	ea42 2287 	orr.w	r2, r2, r7, lsl #10
 8000fa2:	609a      	str	r2, [r3, #8]
 8000fa4:	6466      	str	r6, [r4, #68]	; 0x44
 8000fa6:	6c23      	ldr	r3, [r4, #64]	; 0x40
 8000fa8:	f023 0303 	bic.w	r3, r3, #3
 8000fac:	f043 0301 	orr.w	r3, r3, #1
 8000fb0:	6423      	str	r3, [r4, #64]	; 0x40
 8000fb2:	2300      	movs	r3, #0
 8000fb4:	f884 303c 	strb.w	r3, [r4, #60]	; 0x3c
 8000fb8:	bdf8      	pop	{r3, r4, r5, r6, r7, pc}
 8000fba:	f003 ffab 	bl	8004f14 <HAL_ADC_MspInit>
 8000fbe:	6465      	str	r5, [r4, #68]	; 0x44
 8000fc0:	6c23      	ldr	r3, [r4, #64]	; 0x40
 8000fc2:	f884 503c 	strb.w	r5, [r4, #60]	; 0x3c
 8000fc6:	06db      	lsls	r3, r3, #27
 8000fc8:	f53f af78 	bmi.w	8000ebc <HAL_ADC_Init+0x18>
 8000fcc:	e77b      	b.n	8000ec6 <HAL_ADC_Init+0x22>
 8000fce:	2001      	movs	r0, #1
 8000fd0:	4770      	bx	lr
 8000fd2:	689a      	ldr	r2, [r3, #8]
 8000fd4:	f022 6270 	bic.w	r2, r2, #251658240	; 0xf000000
 8000fd8:	609a      	str	r2, [r3, #8]
 8000fda:	689a      	ldr	r2, [r3, #8]
 8000fdc:	f022 5240 	bic.w	r2, r2, #805306368	; 0x30000000
 8000fe0:	609a      	str	r2, [r3, #8]
 8000fe2:	e7af      	b.n	8000f44 <HAL_ADC_Init+0xa0>
 8000fe4:	6858      	ldr	r0, [r3, #4]
 8000fe6:	6a62      	ldr	r2, [r4, #36]	; 0x24
 8000fe8:	f440 6000 	orr.w	r0, r0, #2048	; 0x800
 8000fec:	1e51      	subs	r1, r2, #1
 8000fee:	6058      	str	r0, [r3, #4]
 8000ff0:	685a      	ldr	r2, [r3, #4]
 8000ff2:	f422 4260 	bic.w	r2, r2, #57344	; 0xe000
 8000ff6:	605a      	str	r2, [r3, #4]
 8000ff8:	685a      	ldr	r2, [r3, #4]
 8000ffa:	ea42 3241 	orr.w	r2, r2, r1, lsl #13
 8000ffe:	605a      	str	r2, [r3, #4]
 8001000:	e7b1      	b.n	8000f66 <HAL_ADC_Init+0xc2>
 8001002:	bf00      	nop
 8001004:	ffffeefd 	.word	0xffffeefd
 8001008:	40012300 	.word	0x40012300
 800100c:	0f000001 	.word	0x0f000001

08001010 <HAL_ADC_ConfigChannel>:
 8001010:	f890 303c 	ldrb.w	r3, [r0, #60]	; 0x3c
 8001014:	2200      	movs	r2, #0
 8001016:	b5f0      	push	{r4, r5, r6, r7, lr}
 8001018:	2b01      	cmp	r3, #1
 800101a:	b083      	sub	sp, #12
 800101c:	9201      	str	r2, [sp, #4]
 800101e:	f000 809a 	beq.w	8001156 <HAL_ADC_ConfigChannel+0x146>
 8001022:	680d      	ldr	r5, [r1, #0]
 8001024:	2201      	movs	r2, #1
 8001026:	6803      	ldr	r3, [r0, #0]
 8001028:	2d09      	cmp	r5, #9
 800102a:	f880 203c 	strb.w	r2, [r0, #60]	; 0x3c
 800102e:	b2af      	uxth	r7, r5
 8001030:	688a      	ldr	r2, [r1, #8]
 8001032:	d828      	bhi.n	8001086 <HAL_ADC_ConfigChannel+0x76>
 8001034:	eb05 0645 	add.w	r6, r5, r5, lsl #1
 8001038:	f04f 0c07 	mov.w	ip, #7
 800103c:	691c      	ldr	r4, [r3, #16]
 800103e:	fa0c fc06 	lsl.w	ip, ip, r6
 8001042:	fa02 f606 	lsl.w	r6, r2, r6
 8001046:	ea24 040c 	bic.w	r4, r4, ip
 800104a:	611c      	str	r4, [r3, #16]
 800104c:	691a      	ldr	r2, [r3, #16]
 800104e:	4316      	orrs	r6, r2
 8001050:	611e      	str	r6, [r3, #16]
 8001052:	684e      	ldr	r6, [r1, #4]
 8001054:	2e06      	cmp	r6, #6
 8001056:	eb06 0286 	add.w	r2, r6, r6, lsl #2
 800105a:	d82d      	bhi.n	80010b8 <HAL_ADC_ConfigChannel+0xa8>
 800105c:	3a05      	subs	r2, #5
 800105e:	241f      	movs	r4, #31
 8001060:	6b59      	ldr	r1, [r3, #52]	; 0x34
 8001062:	4094      	lsls	r4, r2
 8001064:	fa07 f202 	lsl.w	r2, r7, r2
 8001068:	ea21 0104 	bic.w	r1, r1, r4
 800106c:	6359      	str	r1, [r3, #52]	; 0x34
 800106e:	6b59      	ldr	r1, [r3, #52]	; 0x34
 8001070:	430a      	orrs	r2, r1
 8001072:	635a      	str	r2, [r3, #52]	; 0x34
 8001074:	4a3c      	ldr	r2, [pc, #240]	; (8001168 <HAL_ADC_ConfigChannel+0x158>)
 8001076:	4293      	cmp	r3, r2
 8001078:	d030      	beq.n	80010dc <HAL_ADC_ConfigChannel+0xcc>
 800107a:	2300      	movs	r3, #0
 800107c:	f880 303c 	strb.w	r3, [r0, #60]	; 0x3c
 8001080:	4618      	mov	r0, r3
 8001082:	b003      	add	sp, #12
 8001084:	bdf0      	pop	{r4, r5, r6, r7, pc}
 8001086:	eb07 0647 	add.w	r6, r7, r7, lsl #1
 800108a:	f04f 0c07 	mov.w	ip, #7
 800108e:	68dc      	ldr	r4, [r3, #12]
 8001090:	3e1e      	subs	r6, #30
 8001092:	f8df e0d8 	ldr.w	lr, [pc, #216]	; 800116c <HAL_ADC_ConfigChannel+0x15c>
 8001096:	fa0c fc06 	lsl.w	ip, ip, r6
 800109a:	4575      	cmp	r5, lr
 800109c:	ea24 040c 	bic.w	r4, r4, ip
 80010a0:	60dc      	str	r4, [r3, #12]
 80010a2:	d05b      	beq.n	800115c <HAL_ADC_ConfigChannel+0x14c>
 80010a4:	fa02 f606 	lsl.w	r6, r2, r6
 80010a8:	68da      	ldr	r2, [r3, #12]
 80010aa:	4316      	orrs	r6, r2
 80010ac:	60de      	str	r6, [r3, #12]
 80010ae:	684e      	ldr	r6, [r1, #4]
 80010b0:	2e06      	cmp	r6, #6
 80010b2:	eb06 0286 	add.w	r2, r6, r6, lsl #2
 80010b6:	d9d1      	bls.n	800105c <HAL_ADC_ConfigChannel+0x4c>
 80010b8:	2e0c      	cmp	r6, #12
 80010ba:	d837      	bhi.n	800112c <HAL_ADC_ConfigChannel+0x11c>
 80010bc:	f1a2 0423 	sub.w	r4, r2, #35	; 0x23
 80010c0:	261f      	movs	r6, #31
 80010c2:	6b19      	ldr	r1, [r3, #48]	; 0x30
 80010c4:	40a6      	lsls	r6, r4
 80010c6:	fa07 f204 	lsl.w	r2, r7, r4
 80010ca:	ea21 0106 	bic.w	r1, r1, r6
 80010ce:	6319      	str	r1, [r3, #48]	; 0x30
 80010d0:	6b1c      	ldr	r4, [r3, #48]	; 0x30
 80010d2:	4314      	orrs	r4, r2
 80010d4:	4a24      	ldr	r2, [pc, #144]	; (8001168 <HAL_ADC_ConfigChannel+0x158>)
 80010d6:	4293      	cmp	r3, r2
 80010d8:	631c      	str	r4, [r3, #48]	; 0x30
 80010da:	d1ce      	bne.n	800107a <HAL_ADC_ConfigChannel+0x6a>
 80010dc:	2d12      	cmp	r5, #18
 80010de:	d033      	beq.n	8001148 <HAL_ADC_ConfigChannel+0x138>
 80010e0:	4b22      	ldr	r3, [pc, #136]	; (800116c <HAL_ADC_ConfigChannel+0x15c>)
 80010e2:	429d      	cmp	r5, r3
 80010e4:	d001      	beq.n	80010ea <HAL_ADC_ConfigChannel+0xda>
 80010e6:	2d11      	cmp	r5, #17
 80010e8:	d1c7      	bne.n	800107a <HAL_ADC_ConfigChannel+0x6a>
 80010ea:	4a21      	ldr	r2, [pc, #132]	; (8001170 <HAL_ADC_ConfigChannel+0x160>)
 80010ec:	491f      	ldr	r1, [pc, #124]	; (800116c <HAL_ADC_ConfigChannel+0x15c>)
 80010ee:	6853      	ldr	r3, [r2, #4]
 80010f0:	428d      	cmp	r5, r1
 80010f2:	f443 0300 	orr.w	r3, r3, #8388608	; 0x800000
 80010f6:	6053      	str	r3, [r2, #4]
 80010f8:	d1bf      	bne.n	800107a <HAL_ADC_ConfigChannel+0x6a>
 80010fa:	f102 7246 	add.w	r2, r2, #51904512	; 0x3180000
 80010fe:	4b1d      	ldr	r3, [pc, #116]	; (8001174 <HAL_ADC_ConfigChannel+0x164>)
 8001100:	f502 322e 	add.w	r2, r2, #178176	; 0x2b800
 8001104:	681b      	ldr	r3, [r3, #0]
 8001106:	f202 3283 	addw	r2, r2, #899	; 0x383
 800110a:	fba2 2303 	umull	r2, r3, r2, r3
 800110e:	0c9b      	lsrs	r3, r3, #18
 8001110:	eb03 0383 	add.w	r3, r3, r3, lsl #2
 8001114:	005b      	lsls	r3, r3, #1
 8001116:	9301      	str	r3, [sp, #4]
 8001118:	9b01      	ldr	r3, [sp, #4]
 800111a:	2b00      	cmp	r3, #0
 800111c:	d0ad      	beq.n	800107a <HAL_ADC_ConfigChannel+0x6a>
 800111e:	9b01      	ldr	r3, [sp, #4]
 8001120:	3b01      	subs	r3, #1
 8001122:	9301      	str	r3, [sp, #4]
 8001124:	9b01      	ldr	r3, [sp, #4]
 8001126:	2b00      	cmp	r3, #0
 8001128:	d1f9      	bne.n	800111e <HAL_ADC_ConfigChannel+0x10e>
 800112a:	e7a6      	b.n	800107a <HAL_ADC_ConfigChannel+0x6a>
 800112c:	f1a2 0141 	sub.w	r1, r2, #65	; 0x41
 8001130:	261f      	movs	r6, #31
 8001132:	6adc      	ldr	r4, [r3, #44]	; 0x2c
 8001134:	408e      	lsls	r6, r1
 8001136:	fa07 f201 	lsl.w	r2, r7, r1
 800113a:	ea24 0406 	bic.w	r4, r4, r6
 800113e:	62dc      	str	r4, [r3, #44]	; 0x2c
 8001140:	6ad9      	ldr	r1, [r3, #44]	; 0x2c
 8001142:	430a      	orrs	r2, r1
 8001144:	62da      	str	r2, [r3, #44]	; 0x2c
 8001146:	e795      	b.n	8001074 <HAL_ADC_ConfigChannel+0x64>
 8001148:	f8d2 3304 	ldr.w	r3, [r2, #772]	; 0x304
 800114c:	f443 0380 	orr.w	r3, r3, #4194304	; 0x400000
 8001150:	f8c2 3304 	str.w	r3, [r2, #772]	; 0x304
 8001154:	e791      	b.n	800107a <HAL_ADC_ConfigChannel+0x6a>
 8001156:	2002      	movs	r0, #2
 8001158:	b003      	add	sp, #12
 800115a:	bdf0      	pop	{r4, r5, r6, r7, pc}
 800115c:	68de      	ldr	r6, [r3, #12]
 800115e:	ea46 6602 	orr.w	r6, r6, r2, lsl #24
 8001162:	60de      	str	r6, [r3, #12]
 8001164:	e775      	b.n	8001052 <HAL_ADC_ConfigChannel+0x42>
 8001166:	bf00      	nop
 8001168:	40012000 	.word	0x40012000
 800116c:	10000012 	.word	0x10000012
 8001170:	40012300 	.word	0x40012300
 8001174:	20000110 	.word	0x20000110

08001178 <HAL_NVIC_SetPriorityGrouping>:
 8001178:	4907      	ldr	r1, [pc, #28]	; (8001198 <HAL_NVIC_SetPriorityGrouping+0x20>)
 800117a:	0200      	lsls	r0, r0, #8
 800117c:	4b07      	ldr	r3, [pc, #28]	; (800119c <HAL_NVIC_SetPriorityGrouping+0x24>)
 800117e:	68ca      	ldr	r2, [r1, #12]
 8001180:	f400 60e0 	and.w	r0, r0, #1792	; 0x700
 8001184:	b410      	push	{r4}
 8001186:	f64f 04ff 	movw	r4, #63743	; 0xf8ff
 800118a:	4022      	ands	r2, r4
 800118c:	f85d 4b04 	ldr.w	r4, [sp], #4
 8001190:	4313      	orrs	r3, r2
 8001192:	4318      	orrs	r0, r3
 8001194:	60c8      	str	r0, [r1, #12]
 8001196:	4770      	bx	lr
 8001198:	e000ed00 	.word	0xe000ed00
 800119c:	05fa0000 	.word	0x05fa0000

080011a0 <HAL_NVIC_SetPriority>:
 80011a0:	4b17      	ldr	r3, [pc, #92]	; (8001200 <HAL_NVIC_SetPriority+0x60>)
 80011a2:	68db      	ldr	r3, [r3, #12]
 80011a4:	f3c3 2302 	ubfx	r3, r3, #8, #3
 80011a8:	b430      	push	{r4, r5}
 80011aa:	f1c3 0507 	rsb	r5, r3, #7
 80011ae:	1d1c      	adds	r4, r3, #4
 80011b0:	2d04      	cmp	r5, #4
 80011b2:	bf28      	it	cs
 80011b4:	2504      	movcs	r5, #4
 80011b6:	2c06      	cmp	r4, #6
 80011b8:	d918      	bls.n	80011ec <HAL_NVIC_SetPriority+0x4c>
 80011ba:	3b03      	subs	r3, #3
 80011bc:	f04f 34ff 	mov.w	r4, #4294967295
 80011c0:	409c      	lsls	r4, r3
 80011c2:	ea22 0404 	bic.w	r4, r2, r4
 80011c6:	f04f 32ff 	mov.w	r2, #4294967295
 80011ca:	2800      	cmp	r0, #0
 80011cc:	fa02 f205 	lsl.w	r2, r2, r5
 80011d0:	ea21 0102 	bic.w	r1, r1, r2
 80011d4:	fa01 f203 	lsl.w	r2, r1, r3
 80011d8:	ea42 0204 	orr.w	r2, r2, r4
 80011dc:	ea4f 1202 	mov.w	r2, r2, lsl #4
 80011e0:	b2d2      	uxtb	r2, r2
 80011e2:	db06      	blt.n	80011f2 <HAL_NVIC_SetPriority+0x52>
 80011e4:	4b07      	ldr	r3, [pc, #28]	; (8001204 <HAL_NVIC_SetPriority+0x64>)
 80011e6:	541a      	strb	r2, [r3, r0]
 80011e8:	bc30      	pop	{r4, r5}
 80011ea:	4770      	bx	lr
 80011ec:	2400      	movs	r4, #0
 80011ee:	4623      	mov	r3, r4
 80011f0:	e7e9      	b.n	80011c6 <HAL_NVIC_SetPriority+0x26>
 80011f2:	f000 000f 	and.w	r0, r0, #15
 80011f6:	4b04      	ldr	r3, [pc, #16]	; (8001208 <HAL_NVIC_SetPriority+0x68>)
 80011f8:	541a      	strb	r2, [r3, r0]
 80011fa:	bc30      	pop	{r4, r5}
 80011fc:	4770      	bx	lr
 80011fe:	bf00      	nop
 8001200:	e000ed00 	.word	0xe000ed00
 8001204:	e000e400 	.word	0xe000e400
 8001208:	e000ed14 	.word	0xe000ed14

0800120c <HAL_NVIC_EnableIRQ>:
 800120c:	2800      	cmp	r0, #0
 800120e:	db07      	blt.n	8001220 <HAL_NVIC_EnableIRQ+0x14>
 8001210:	f000 011f 	and.w	r1, r0, #31
 8001214:	2301      	movs	r3, #1
 8001216:	0940      	lsrs	r0, r0, #5
 8001218:	4a02      	ldr	r2, [pc, #8]	; (8001224 <HAL_NVIC_EnableIRQ+0x18>)
 800121a:	408b      	lsls	r3, r1
 800121c:	f842 3020 	str.w	r3, [r2, r0, lsl #2]
 8001220:	4770      	bx	lr
 8001222:	bf00      	nop
 8001224:	e000e100 	.word	0xe000e100

08001228 <HAL_SYSTICK_Config>:
 8001228:	3801      	subs	r0, #1
 800122a:	f1b0 7f80 	cmp.w	r0, #16777216	; 0x1000000
 800122e:	d20d      	bcs.n	800124c <HAL_SYSTICK_Config+0x24>
 8001230:	4b07      	ldr	r3, [pc, #28]	; (8001250 <HAL_SYSTICK_Config+0x28>)
 8001232:	2200      	movs	r2, #0
 8001234:	2107      	movs	r1, #7
 8001236:	b430      	push	{r4, r5}
 8001238:	25f0      	movs	r5, #240	; 0xf0
 800123a:	4c06      	ldr	r4, [pc, #24]	; (8001254 <HAL_SYSTICK_Config+0x2c>)
 800123c:	6058      	str	r0, [r3, #4]
 800123e:	4610      	mov	r0, r2
 8001240:	f884 5023 	strb.w	r5, [r4, #35]	; 0x23
 8001244:	609a      	str	r2, [r3, #8]
 8001246:	6019      	str	r1, [r3, #0]
 8001248:	bc30      	pop	{r4, r5}
 800124a:	4770      	bx	lr
 800124c:	2001      	movs	r0, #1
 800124e:	4770      	bx	lr
 8001250:	e000e010 	.word	0xe000e010
 8001254:	e000ed00 	.word	0xe000ed00

08001258 <HAL_DAC_Init>:
 8001258:	b188      	cbz	r0, 800127e <HAL_DAC_Init+0x26>
 800125a:	7903      	ldrb	r3, [r0, #4]
 800125c:	b510      	push	{r4, lr}
 800125e:	f003 02ff 	and.w	r2, r3, #255	; 0xff
 8001262:	4604      	mov	r4, r0
 8001264:	b13b      	cbz	r3, 8001276 <HAL_DAC_Init+0x1e>
 8001266:	2300      	movs	r3, #0
 8001268:	2102      	movs	r1, #2
 800126a:	2201      	movs	r2, #1
 800126c:	7121      	strb	r1, [r4, #4]
 800126e:	4618      	mov	r0, r3
 8001270:	6123      	str	r3, [r4, #16]
 8001272:	7122      	strb	r2, [r4, #4]
 8001274:	bd10      	pop	{r4, pc}
 8001276:	7142      	strb	r2, [r0, #5]
 8001278:	f003 ff06 	bl	8005088 <HAL_DAC_MspInit>
 800127c:	e7f3      	b.n	8001266 <HAL_DAC_Init+0xe>
 800127e:	2001      	movs	r0, #1
 8001280:	4770      	bx	lr
 8001282:	bf00      	nop

08001284 <HAL_DAC_Start_DMA>:
 8001284:	b5f8      	push	{r3, r4, r5, r6, r7, lr}
 8001286:	7944      	ldrb	r4, [r0, #5]
 8001288:	f8dd c018 	ldr.w	ip, [sp, #24]
 800128c:	2c01      	cmp	r4, #1
 800128e:	d057      	beq.n	8001340 <HAL_DAC_Start_DMA+0xbc>
 8001290:	4617      	mov	r7, r2
 8001292:	460e      	mov	r6, r1
 8001294:	2202      	movs	r2, #2
 8001296:	2101      	movs	r1, #1
 8001298:	6805      	ldr	r5, [r0, #0]
 800129a:	4604      	mov	r4, r0
 800129c:	7102      	strb	r2, [r0, #4]
 800129e:	7141      	strb	r1, [r0, #5]
 80012a0:	682a      	ldr	r2, [r5, #0]
 80012a2:	b9f6      	cbnz	r6, 80012e2 <HAL_DAC_Start_DMA+0x5e>
 80012a4:	6880      	ldr	r0, [r0, #8]
 80012a6:	f442 5280 	orr.w	r2, r2, #4096	; 0x1000
 80012aa:	492c      	ldr	r1, [pc, #176]	; (800135c <HAL_DAC_Start_DMA+0xd8>)
 80012ac:	f1bc 0f04 	cmp.w	ip, #4
 80012b0:	f8df e0b8 	ldr.w	lr, [pc, #184]	; 800136c <HAL_DAC_Start_DMA+0xe8>
 80012b4:	63c1      	str	r1, [r0, #60]	; 0x3c
 80012b6:	492a      	ldr	r1, [pc, #168]	; (8001360 <HAL_DAC_Start_DMA+0xdc>)
 80012b8:	f8c0 e040 	str.w	lr, [r0, #64]	; 0x40
 80012bc:	64c1      	str	r1, [r0, #76]	; 0x4c
 80012be:	602a      	str	r2, [r5, #0]
 80012c0:	d049      	beq.n	8001356 <HAL_DAC_Start_DMA+0xd2>
 80012c2:	f1bc 0f08 	cmp.w	ip, #8
 80012c6:	d043      	beq.n	8001350 <HAL_DAC_Start_DMA+0xcc>
 80012c8:	f1bc 0f00 	cmp.w	ip, #0
 80012cc:	d032      	beq.n	8001334 <HAL_DAC_Start_DMA+0xb0>
 80012ce:	2200      	movs	r2, #0
 80012d0:	f8d5 c000 	ldr.w	ip, [r5]
 80012d4:	4639      	mov	r1, r7
 80012d6:	f44c 5700 	orr.w	r7, ip, #8192	; 0x2000
 80012da:	602f      	str	r7, [r5, #0]
 80012dc:	f000 f94a 	bl	8001574 <HAL_DMA_Start_IT>
 80012e0:	e01d      	b.n	800131e <HAL_DAC_Start_DMA+0x9a>
 80012e2:	68c0      	ldr	r0, [r0, #12]
 80012e4:	f042 5280 	orr.w	r2, r2, #268435456	; 0x10000000
 80012e8:	491e      	ldr	r1, [pc, #120]	; (8001364 <HAL_DAC_Start_DMA+0xe0>)
 80012ea:	f1bc 0f04 	cmp.w	ip, #4
 80012ee:	f8df e080 	ldr.w	lr, [pc, #128]	; 8001370 <HAL_DAC_Start_DMA+0xec>
 80012f2:	63c1      	str	r1, [r0, #60]	; 0x3c
 80012f4:	491c      	ldr	r1, [pc, #112]	; (8001368 <HAL_DAC_Start_DMA+0xe4>)
 80012f6:	f8c0 e040 	str.w	lr, [r0, #64]	; 0x40
 80012fa:	64c1      	str	r1, [r0, #76]	; 0x4c
 80012fc:	602a      	str	r2, [r5, #0]
 80012fe:	d024      	beq.n	800134a <HAL_DAC_Start_DMA+0xc6>
 8001300:	f1bc 0f08 	cmp.w	ip, #8
 8001304:	d01e      	beq.n	8001344 <HAL_DAC_Start_DMA+0xc0>
 8001306:	f1bc 0f00 	cmp.w	ip, #0
 800130a:	d016      	beq.n	800133a <HAL_DAC_Start_DMA+0xb6>
 800130c:	2200      	movs	r2, #0
 800130e:	f8d5 c000 	ldr.w	ip, [r5]
 8001312:	4639      	mov	r1, r7
 8001314:	f04c 5700 	orr.w	r7, ip, #536870912	; 0x20000000
 8001318:	602f      	str	r7, [r5, #0]
 800131a:	f000 f92b 	bl	8001574 <HAL_DMA_Start_IT>
 800131e:	6825      	ldr	r5, [r4, #0]
 8001320:	2301      	movs	r3, #1
 8001322:	2200      	movs	r2, #0
 8001324:	682f      	ldr	r7, [r5, #0]
 8001326:	fa03 f106 	lsl.w	r1, r3, r6
 800132a:	4610      	mov	r0, r2
 800132c:	4339      	orrs	r1, r7
 800132e:	6029      	str	r1, [r5, #0]
 8001330:	7162      	strb	r2, [r4, #5]
 8001332:	bdf8      	pop	{r3, r4, r5, r6, r7, pc}
 8001334:	f105 0208 	add.w	r2, r5, #8
 8001338:	e7ca      	b.n	80012d0 <HAL_DAC_Start_DMA+0x4c>
 800133a:	f105 0214 	add.w	r2, r5, #20
 800133e:	e7e6      	b.n	800130e <HAL_DAC_Start_DMA+0x8a>
 8001340:	2002      	movs	r0, #2
 8001342:	bdf8      	pop	{r3, r4, r5, r6, r7, pc}
 8001344:	f105 021c 	add.w	r2, r5, #28
 8001348:	e7e1      	b.n	800130e <HAL_DAC_Start_DMA+0x8a>
 800134a:	f105 0218 	add.w	r2, r5, #24
 800134e:	e7de      	b.n	800130e <HAL_DAC_Start_DMA+0x8a>
 8001350:	f105 0210 	add.w	r2, r5, #16
 8001354:	e7bc      	b.n	80012d0 <HAL_DAC_Start_DMA+0x4c>
 8001356:	f105 020c 	add.w	r2, r5, #12
 800135a:	e7b9      	b.n	80012d0 <HAL_DAC_Start_DMA+0x4c>
 800135c:	08001379 	.word	0x08001379
 8001360:	0800139d 	.word	0x0800139d
 8001364:	08001409 	.word	0x08001409
 8001368:	08001425 	.word	0x08001425
 800136c:	0800138d 	.word	0x0800138d
 8001370:	08001419 	.word	0x08001419

08001374 <HAL_DAC_ConvCpltCallbackCh1>:
 8001374:	4770      	bx	lr
 8001376:	bf00      	nop

08001378 <DAC_DMAConvCpltCh1>:
 8001378:	b510      	push	{r4, lr}
 800137a:	6b84      	ldr	r4, [r0, #56]	; 0x38
 800137c:	4620      	mov	r0, r4
 800137e:	f7ff fff9 	bl	8001374 <HAL_DAC_ConvCpltCallbackCh1>
 8001382:	2301      	movs	r3, #1
 8001384:	7123      	strb	r3, [r4, #4]
 8001386:	bd10      	pop	{r4, pc}

08001388 <HAL_DAC_ConvHalfCpltCallbackCh1>:
 8001388:	4770      	bx	lr
 800138a:	bf00      	nop

0800138c <DAC_DMAHalfConvCpltCh1>:
 800138c:	b508      	push	{r3, lr}
 800138e:	6b80      	ldr	r0, [r0, #56]	; 0x38
 8001390:	f7ff fffa 	bl	8001388 <HAL_DAC_ConvHalfCpltCallbackCh1>
 8001394:	bd08      	pop	{r3, pc}
 8001396:	bf00      	nop

08001398 <HAL_DAC_ErrorCallbackCh1>:
 8001398:	4770      	bx	lr
 800139a:	bf00      	nop

0800139c <DAC_DMAErrorCh1>:
 800139c:	b510      	push	{r4, lr}
 800139e:	6b84      	ldr	r4, [r0, #56]	; 0x38
 80013a0:	6923      	ldr	r3, [r4, #16]
 80013a2:	4620      	mov	r0, r4
 80013a4:	f043 0304 	orr.w	r3, r3, #4
 80013a8:	6123      	str	r3, [r4, #16]
 80013aa:	f7ff fff5 	bl	8001398 <HAL_DAC_ErrorCallbackCh1>
 80013ae:	2301      	movs	r3, #1
 80013b0:	7123      	strb	r3, [r4, #4]
 80013b2:	bd10      	pop	{r4, pc}

080013b4 <HAL_DAC_ConfigChannel>:
 80013b4:	7943      	ldrb	r3, [r0, #5]
 80013b6:	2b01      	cmp	r3, #1
 80013b8:	d01d      	beq.n	80013f6 <HAL_DAC_ConfigChannel+0x42>
 80013ba:	b470      	push	{r4, r5, r6}
 80013bc:	e9d1 3100 	ldrd	r3, r1, [r1]
 80013c0:	6804      	ldr	r4, [r0, #0]
 80013c2:	2602      	movs	r6, #2
 80013c4:	f640 75fe 	movw	r5, #4094	; 0xffe
 80013c8:	430b      	orrs	r3, r1
 80013ca:	7106      	strb	r6, [r0, #4]
 80013cc:	21c0      	movs	r1, #192	; 0xc0
 80013ce:	fa05 f602 	lsl.w	r6, r5, r2
 80013d2:	6825      	ldr	r5, [r4, #0]
 80013d4:	4093      	lsls	r3, r2
 80013d6:	4091      	lsls	r1, r2
 80013d8:	ea25 0506 	bic.w	r5, r5, r6
 80013dc:	2601      	movs	r6, #1
 80013de:	432b      	orrs	r3, r5
 80013e0:	2500      	movs	r5, #0
 80013e2:	6023      	str	r3, [r4, #0]
 80013e4:	6822      	ldr	r2, [r4, #0]
 80013e6:	ea22 0201 	bic.w	r2, r2, r1
 80013ea:	6022      	str	r2, [r4, #0]
 80013ec:	7106      	strb	r6, [r0, #4]
 80013ee:	7145      	strb	r5, [r0, #5]
 80013f0:	4628      	mov	r0, r5
 80013f2:	bc70      	pop	{r4, r5, r6}
 80013f4:	4770      	bx	lr
 80013f6:	2302      	movs	r3, #2
 80013f8:	4618      	mov	r0, r3
 80013fa:	4770      	bx	lr

080013fc <HAL_DACEx_ConvCpltCallbackCh2>:
 80013fc:	4770      	bx	lr
 80013fe:	bf00      	nop

08001400 <HAL_DACEx_ConvHalfCpltCallbackCh2>:
 8001400:	4770      	bx	lr
 8001402:	bf00      	nop

08001404 <HAL_DACEx_ErrorCallbackCh2>:
 8001404:	4770      	bx	lr
 8001406:	bf00      	nop

08001408 <DAC_DMAConvCpltCh2>:
 8001408:	b510      	push	{r4, lr}
 800140a:	6b84      	ldr	r4, [r0, #56]	; 0x38
 800140c:	4620      	mov	r0, r4
 800140e:	f7ff fff5 	bl	80013fc <HAL_DACEx_ConvCpltCallbackCh2>
 8001412:	2301      	movs	r3, #1
 8001414:	7123      	strb	r3, [r4, #4]
 8001416:	bd10      	pop	{r4, pc}

08001418 <DAC_DMAHalfConvCpltCh2>:
 8001418:	b508      	push	{r3, lr}
 800141a:	6b80      	ldr	r0, [r0, #56]	; 0x38
 800141c:	f7ff fff0 	bl	8001400 <HAL_DACEx_ConvHalfCpltCallbackCh2>
 8001420:	bd08      	pop	{r3, pc}
 8001422:	bf00      	nop

08001424 <DAC_DMAErrorCh2>:
 8001424:	b510      	push	{r4, lr}
 8001426:	6b84      	ldr	r4, [r0, #56]	; 0x38
 8001428:	6923      	ldr	r3, [r4, #16]
 800142a:	4620      	mov	r0, r4
 800142c:	f043 0304 	orr.w	r3, r3, #4
 8001430:	6123      	str	r3, [r4, #16]
 8001432:	f7ff ffe7 	bl	8001404 <HAL_DACEx_ErrorCallbackCh2>
 8001436:	2301      	movs	r3, #1
 8001438:	7123      	strb	r3, [r4, #4]
 800143a:	bd10      	pop	{r4, pc}

0800143c <HAL_DMA_Init>:
 800143c:	b5f8      	push	{r3, r4, r5, r6, r7, lr}
 800143e:	4604      	mov	r4, r0
 8001440:	f7ff fd18 	bl	8000e74 <HAL_GetTick>
 8001444:	2c00      	cmp	r4, #0
 8001446:	d053      	beq.n	80014f0 <HAL_DMA_Init+0xb4>
 8001448:	2202      	movs	r2, #2
 800144a:	6823      	ldr	r3, [r4, #0]
 800144c:	2100      	movs	r1, #0
 800144e:	4605      	mov	r5, r0
 8001450:	f884 2035 	strb.w	r2, [r4, #53]	; 0x35
 8001454:	681a      	ldr	r2, [r3, #0]
 8001456:	f884 1034 	strb.w	r1, [r4, #52]	; 0x34
 800145a:	f022 0201 	bic.w	r2, r2, #1
 800145e:	601a      	str	r2, [r3, #0]
 8001460:	e005      	b.n	800146e <HAL_DMA_Init+0x32>
 8001462:	f7ff fd07 	bl	8000e74 <HAL_GetTick>
 8001466:	1b40      	subs	r0, r0, r5
 8001468:	2805      	cmp	r0, #5
 800146a:	d83a      	bhi.n	80014e2 <HAL_DMA_Init+0xa6>
 800146c:	6823      	ldr	r3, [r4, #0]
 800146e:	681a      	ldr	r2, [r3, #0]
 8001470:	07d1      	lsls	r1, r2, #31
 8001472:	d4f6      	bmi.n	8001462 <HAL_DMA_Init+0x26>
 8001474:	e9d4 2001 	ldrd	r2, r0, [r4, #4]
 8001478:	68e1      	ldr	r1, [r4, #12]
 800147a:	4302      	orrs	r2, r0
 800147c:	681f      	ldr	r7, [r3, #0]
 800147e:	e9d4 0504 	ldrd	r0, r5, [r4, #16]
 8001482:	430a      	orrs	r2, r1
 8001484:	4302      	orrs	r2, r0
 8001486:	6a20      	ldr	r0, [r4, #32]
 8001488:	e9d4 6106 	ldrd	r6, r1, [r4, #24]
 800148c:	432a      	orrs	r2, r5
 800148e:	4d35      	ldr	r5, [pc, #212]	; (8001564 <HAL_DMA_Init+0x128>)
 8001490:	4332      	orrs	r2, r6
 8001492:	403d      	ands	r5, r7
 8001494:	430a      	orrs	r2, r1
 8001496:	6a61      	ldr	r1, [r4, #36]	; 0x24
 8001498:	4302      	orrs	r2, r0
 800149a:	2904      	cmp	r1, #4
 800149c:	ea42 0205 	orr.w	r2, r2, r5
 80014a0:	d028      	beq.n	80014f4 <HAL_DMA_Init+0xb8>
 80014a2:	601a      	str	r2, [r3, #0]
 80014a4:	695a      	ldr	r2, [r3, #20]
 80014a6:	f022 0207 	bic.w	r2, r2, #7
 80014aa:	4311      	orrs	r1, r2
 80014ac:	b2da      	uxtb	r2, r3
 80014ae:	4d2e      	ldr	r5, [pc, #184]	; (8001568 <HAL_DMA_Init+0x12c>)
 80014b0:	6159      	str	r1, [r3, #20]
 80014b2:	3a10      	subs	r2, #16
 80014b4:	492d      	ldr	r1, [pc, #180]	; (800156c <HAL_DMA_Init+0x130>)
 80014b6:	482e      	ldr	r0, [pc, #184]	; (8001570 <HAL_DMA_Init+0x134>)
 80014b8:	fba5 5202 	umull	r5, r2, r5, r2
 80014bc:	4019      	ands	r1, r3
 80014be:	2501      	movs	r5, #1
 80014c0:	0913      	lsrs	r3, r2, #4
 80014c2:	2200      	movs	r2, #0
 80014c4:	5cc0      	ldrb	r0, [r0, r3]
 80014c6:	2b03      	cmp	r3, #3
 80014c8:	f04f 033f 	mov.w	r3, #63	; 0x3f
 80014cc:	bf88      	it	hi
 80014ce:	3104      	addhi	r1, #4
 80014d0:	65e0      	str	r0, [r4, #92]	; 0x5c
 80014d2:	4083      	lsls	r3, r0
 80014d4:	4610      	mov	r0, r2
 80014d6:	65a1      	str	r1, [r4, #88]	; 0x58
 80014d8:	608b      	str	r3, [r1, #8]
 80014da:	6562      	str	r2, [r4, #84]	; 0x54
 80014dc:	f884 5035 	strb.w	r5, [r4, #53]	; 0x35
 80014e0:	bdf8      	pop	{r3, r4, r5, r6, r7, pc}
 80014e2:	2303      	movs	r3, #3
 80014e4:	2220      	movs	r2, #32
 80014e6:	4618      	mov	r0, r3
 80014e8:	6562      	str	r2, [r4, #84]	; 0x54
 80014ea:	f884 3035 	strb.w	r3, [r4, #53]	; 0x35
 80014ee:	bdf8      	pop	{r3, r4, r5, r6, r7, pc}
 80014f0:	2001      	movs	r0, #1
 80014f2:	bdf8      	pop	{r3, r4, r5, r6, r7, pc}
 80014f4:	e9d4 510b 	ldrd	r5, r1, [r4, #44]	; 0x2c
 80014f8:	6aa7      	ldr	r7, [r4, #40]	; 0x28
 80014fa:	ea45 0001 	orr.w	r0, r5, r1
 80014fe:	f047 0104 	orr.w	r1, r7, #4
 8001502:	4302      	orrs	r2, r0
 8001504:	601a      	str	r2, [r3, #0]
 8001506:	695a      	ldr	r2, [r3, #20]
 8001508:	f022 0207 	bic.w	r2, r2, #7
 800150c:	4311      	orrs	r1, r2
 800150e:	2d00      	cmp	r5, #0
 8001510:	d0cc      	beq.n	80014ac <HAL_DMA_Init+0x70>
 8001512:	b17e      	cbz	r6, 8001534 <HAL_DMA_Init+0xf8>
 8001514:	f5b6 5f00 	cmp.w	r6, #8192	; 0x2000
 8001518:	d016      	beq.n	8001548 <HAL_DMA_Init+0x10c>
 800151a:	2f02      	cmp	r7, #2
 800151c:	d903      	bls.n	8001526 <HAL_DMA_Init+0xea>
 800151e:	2f03      	cmp	r7, #3
 8001520:	d1c4      	bne.n	80014ac <HAL_DMA_Init+0x70>
 8001522:	01ea      	lsls	r2, r5, #7
 8001524:	d5c2      	bpl.n	80014ac <HAL_DMA_Init+0x70>
 8001526:	2301      	movs	r3, #1
 8001528:	2240      	movs	r2, #64	; 0x40
 800152a:	4618      	mov	r0, r3
 800152c:	6562      	str	r2, [r4, #84]	; 0x54
 800152e:	f884 3035 	strb.w	r3, [r4, #53]	; 0x35
 8001532:	bdf8      	pop	{r3, r4, r5, r6, r7, pc}
 8001534:	2f01      	cmp	r7, #1
 8001536:	d003      	beq.n	8001540 <HAL_DMA_Init+0x104>
 8001538:	d3f3      	bcc.n	8001522 <HAL_DMA_Init+0xe6>
 800153a:	2f02      	cmp	r7, #2
 800153c:	d1b6      	bne.n	80014ac <HAL_DMA_Init+0x70>
 800153e:	e7f0      	b.n	8001522 <HAL_DMA_Init+0xe6>
 8001540:	f1b5 7fc0 	cmp.w	r5, #25165824	; 0x1800000
 8001544:	d1b2      	bne.n	80014ac <HAL_DMA_Init+0x70>
 8001546:	e7ee      	b.n	8001526 <HAL_DMA_Init+0xea>
 8001548:	2f03      	cmp	r7, #3
 800154a:	d8af      	bhi.n	80014ac <HAL_DMA_Init+0x70>
 800154c:	a201      	add	r2, pc, #4	; (adr r2, 8001554 <HAL_DMA_Init+0x118>)
 800154e:	f852 f027 	ldr.w	pc, [r2, r7, lsl #2]
 8001552:	bf00      	nop
 8001554:	08001527 	.word	0x08001527
 8001558:	08001523 	.word	0x08001523
 800155c:	08001527 	.word	0x08001527
 8001560:	08001541 	.word	0x08001541
 8001564:	e010803f 	.word	0xe010803f
 8001568:	aaaaaaab 	.word	0xaaaaaaab
 800156c:	fffffc00 	.word	0xfffffc00
 8001570:	08006d24 	.word	0x08006d24

08001574 <HAL_DMA_Start_IT>:
 8001574:	b4f0      	push	{r4, r5, r6, r7}
 8001576:	f890 4034 	ldrb.w	r4, [r0, #52]	; 0x34
 800157a:	2c01      	cmp	r4, #1
 800157c:	d038      	beq.n	80015f0 <HAL_DMA_Start_IT+0x7c>
 800157e:	2501      	movs	r5, #1
 8001580:	f890 4035 	ldrb.w	r4, [r0, #53]	; 0x35
 8001584:	6d86      	ldr	r6, [r0, #88]	; 0x58
 8001586:	42ac      	cmp	r4, r5
 8001588:	f880 5034 	strb.w	r5, [r0, #52]	; 0x34
 800158c:	d129      	bne.n	80015e2 <HAL_DMA_Start_IT+0x6e>
 800158e:	6804      	ldr	r4, [r0, #0]
 8001590:	2702      	movs	r7, #2
 8001592:	2500      	movs	r5, #0
 8001594:	f880 7035 	strb.w	r7, [r0, #53]	; 0x35
 8001598:	6545      	str	r5, [r0, #84]	; 0x54
 800159a:	6887      	ldr	r7, [r0, #8]
 800159c:	6825      	ldr	r5, [r4, #0]
 800159e:	2f40      	cmp	r7, #64	; 0x40
 80015a0:	f425 2580 	bic.w	r5, r5, #262144	; 0x40000
 80015a4:	6025      	str	r5, [r4, #0]
 80015a6:	6063      	str	r3, [r4, #4]
 80015a8:	d026      	beq.n	80015f8 <HAL_DMA_Start_IT+0x84>
 80015aa:	60a1      	str	r1, [r4, #8]
 80015ac:	60e2      	str	r2, [r4, #12]
 80015ae:	6dc1      	ldr	r1, [r0, #92]	; 0x5c
 80015b0:	233f      	movs	r3, #63	; 0x3f
 80015b2:	6c02      	ldr	r2, [r0, #64]	; 0x40
 80015b4:	408b      	lsls	r3, r1
 80015b6:	60b3      	str	r3, [r6, #8]
 80015b8:	6823      	ldr	r3, [r4, #0]
 80015ba:	f043 0316 	orr.w	r3, r3, #22
 80015be:	6023      	str	r3, [r4, #0]
 80015c0:	6963      	ldr	r3, [r4, #20]
 80015c2:	f043 0380 	orr.w	r3, r3, #128	; 0x80
 80015c6:	6163      	str	r3, [r4, #20]
 80015c8:	b11a      	cbz	r2, 80015d2 <HAL_DMA_Start_IT+0x5e>
 80015ca:	6823      	ldr	r3, [r4, #0]
 80015cc:	f043 0308 	orr.w	r3, r3, #8
 80015d0:	6023      	str	r3, [r4, #0]
 80015d2:	6822      	ldr	r2, [r4, #0]
 80015d4:	2300      	movs	r3, #0
 80015d6:	f042 0201 	orr.w	r2, r2, #1
 80015da:	4618      	mov	r0, r3
 80015dc:	6022      	str	r2, [r4, #0]
 80015de:	bcf0      	pop	{r4, r5, r6, r7}
 80015e0:	4770      	bx	lr
 80015e2:	2200      	movs	r2, #0
 80015e4:	2302      	movs	r3, #2
 80015e6:	f880 2034 	strb.w	r2, [r0, #52]	; 0x34
 80015ea:	4618      	mov	r0, r3
 80015ec:	bcf0      	pop	{r4, r5, r6, r7}
 80015ee:	4770      	bx	lr
 80015f0:	2302      	movs	r3, #2
 80015f2:	bcf0      	pop	{r4, r5, r6, r7}
 80015f4:	4618      	mov	r0, r3
 80015f6:	4770      	bx	lr
 80015f8:	60a2      	str	r2, [r4, #8]
 80015fa:	60e1      	str	r1, [r4, #12]
 80015fc:	e7d7      	b.n	80015ae <HAL_DMA_Start_IT+0x3a>
 80015fe:	bf00      	nop

08001600 <HAL_DMA_IRQHandler>:
 8001600:	b5f0      	push	{r4, r5, r6, r7, lr}
 8001602:	4604      	mov	r4, r0
 8001604:	b083      	sub	sp, #12
 8001606:	2000      	movs	r0, #0
 8001608:	2208      	movs	r2, #8
 800160a:	4966      	ldr	r1, [pc, #408]	; (80017a4 <HAL_DMA_IRQHandler+0x1a4>)
 800160c:	9001      	str	r0, [sp, #4]
 800160e:	680e      	ldr	r6, [r1, #0]
 8001610:	e9d4 7316 	ldrd	r7, r3, [r4, #88]	; 0x58
 8001614:	409a      	lsls	r2, r3
 8001616:	683d      	ldr	r5, [r7, #0]
 8001618:	422a      	tst	r2, r5
 800161a:	d003      	beq.n	8001624 <HAL_DMA_IRQHandler+0x24>
 800161c:	6821      	ldr	r1, [r4, #0]
 800161e:	6808      	ldr	r0, [r1, #0]
 8001620:	0740      	lsls	r0, r0, #29
 8001622:	d459      	bmi.n	80016d8 <HAL_DMA_IRQHandler+0xd8>
 8001624:	2201      	movs	r2, #1
 8001626:	409a      	lsls	r2, r3
 8001628:	422a      	tst	r2, r5
 800162a:	d003      	beq.n	8001634 <HAL_DMA_IRQHandler+0x34>
 800162c:	6821      	ldr	r1, [r4, #0]
 800162e:	6949      	ldr	r1, [r1, #20]
 8001630:	0608      	lsls	r0, r1, #24
 8001632:	d474      	bmi.n	800171e <HAL_DMA_IRQHandler+0x11e>
 8001634:	2204      	movs	r2, #4
 8001636:	409a      	lsls	r2, r3
 8001638:	422a      	tst	r2, r5
 800163a:	d003      	beq.n	8001644 <HAL_DMA_IRQHandler+0x44>
 800163c:	6821      	ldr	r1, [r4, #0]
 800163e:	6809      	ldr	r1, [r1, #0]
 8001640:	0789      	lsls	r1, r1, #30
 8001642:	d466      	bmi.n	8001712 <HAL_DMA_IRQHandler+0x112>
 8001644:	2210      	movs	r2, #16
 8001646:	409a      	lsls	r2, r3
 8001648:	422a      	tst	r2, r5
 800164a:	d003      	beq.n	8001654 <HAL_DMA_IRQHandler+0x54>
 800164c:	6821      	ldr	r1, [r4, #0]
 800164e:	6808      	ldr	r0, [r1, #0]
 8001650:	0700      	lsls	r0, r0, #28
 8001652:	d44b      	bmi.n	80016ec <HAL_DMA_IRQHandler+0xec>
 8001654:	2220      	movs	r2, #32
 8001656:	409a      	lsls	r2, r3
 8001658:	422a      	tst	r2, r5
 800165a:	d014      	beq.n	8001686 <HAL_DMA_IRQHandler+0x86>
 800165c:	6821      	ldr	r1, [r4, #0]
 800165e:	6808      	ldr	r0, [r1, #0]
 8001660:	06c0      	lsls	r0, r0, #27
 8001662:	d510      	bpl.n	8001686 <HAL_DMA_IRQHandler+0x86>
 8001664:	60ba      	str	r2, [r7, #8]
 8001666:	f894 2035 	ldrb.w	r2, [r4, #53]	; 0x35
 800166a:	2a05      	cmp	r2, #5
 800166c:	d063      	beq.n	8001736 <HAL_DMA_IRQHandler+0x136>
 800166e:	680b      	ldr	r3, [r1, #0]
 8001670:	f413 2f80 	tst.w	r3, #262144	; 0x40000
 8001674:	680b      	ldr	r3, [r1, #0]
 8001676:	d07e      	beq.n	8001776 <HAL_DMA_IRQHandler+0x176>
 8001678:	0319      	lsls	r1, r3, #12
 800167a:	f140 8089 	bpl.w	8001790 <HAL_DMA_IRQHandler+0x190>
 800167e:	6be3      	ldr	r3, [r4, #60]	; 0x3c
 8001680:	b10b      	cbz	r3, 8001686 <HAL_DMA_IRQHandler+0x86>
 8001682:	4620      	mov	r0, r4
 8001684:	4798      	blx	r3
 8001686:	6d63      	ldr	r3, [r4, #84]	; 0x54
 8001688:	b323      	cbz	r3, 80016d4 <HAL_DMA_IRQHandler+0xd4>
 800168a:	6d63      	ldr	r3, [r4, #84]	; 0x54
 800168c:	07da      	lsls	r2, r3, #31
 800168e:	d51a      	bpl.n	80016c6 <HAL_DMA_IRQHandler+0xc6>
 8001690:	6822      	ldr	r2, [r4, #0]
 8001692:	2105      	movs	r1, #5
 8001694:	4b44      	ldr	r3, [pc, #272]	; (80017a8 <HAL_DMA_IRQHandler+0x1a8>)
 8001696:	f884 1035 	strb.w	r1, [r4, #53]	; 0x35
 800169a:	fba3 3606 	umull	r3, r6, r3, r6
 800169e:	6813      	ldr	r3, [r2, #0]
 80016a0:	f023 0301 	bic.w	r3, r3, #1
 80016a4:	0ab6      	lsrs	r6, r6, #10
 80016a6:	6013      	str	r3, [r2, #0]
 80016a8:	e002      	b.n	80016b0 <HAL_DMA_IRQHandler+0xb0>
 80016aa:	6813      	ldr	r3, [r2, #0]
 80016ac:	07db      	lsls	r3, r3, #31
 80016ae:	d504      	bpl.n	80016ba <HAL_DMA_IRQHandler+0xba>
 80016b0:	9b01      	ldr	r3, [sp, #4]
 80016b2:	3301      	adds	r3, #1
 80016b4:	42b3      	cmp	r3, r6
 80016b6:	9301      	str	r3, [sp, #4]
 80016b8:	d9f7      	bls.n	80016aa <HAL_DMA_IRQHandler+0xaa>
 80016ba:	2200      	movs	r2, #0
 80016bc:	2301      	movs	r3, #1
 80016be:	f884 2034 	strb.w	r2, [r4, #52]	; 0x34
 80016c2:	f884 3035 	strb.w	r3, [r4, #53]	; 0x35
 80016c6:	6ce3      	ldr	r3, [r4, #76]	; 0x4c
 80016c8:	b123      	cbz	r3, 80016d4 <HAL_DMA_IRQHandler+0xd4>
 80016ca:	4620      	mov	r0, r4
 80016cc:	b003      	add	sp, #12
 80016ce:	e8bd 40f0 	ldmia.w	sp!, {r4, r5, r6, r7, lr}
 80016d2:	4718      	bx	r3
 80016d4:	b003      	add	sp, #12
 80016d6:	bdf0      	pop	{r4, r5, r6, r7, pc}
 80016d8:	6808      	ldr	r0, [r1, #0]
 80016da:	f020 0004 	bic.w	r0, r0, #4
 80016de:	6008      	str	r0, [r1, #0]
 80016e0:	60ba      	str	r2, [r7, #8]
 80016e2:	6d62      	ldr	r2, [r4, #84]	; 0x54
 80016e4:	f042 0201 	orr.w	r2, r2, #1
 80016e8:	6562      	str	r2, [r4, #84]	; 0x54
 80016ea:	e79b      	b.n	8001624 <HAL_DMA_IRQHandler+0x24>
 80016ec:	60ba      	str	r2, [r7, #8]
 80016ee:	680a      	ldr	r2, [r1, #0]
 80016f0:	f412 2f80 	tst.w	r2, #262144	; 0x40000
 80016f4:	680a      	ldr	r2, [r1, #0]
 80016f6:	d118      	bne.n	800172a <HAL_DMA_IRQHandler+0x12a>
 80016f8:	05d2      	lsls	r2, r2, #23
 80016fa:	d403      	bmi.n	8001704 <HAL_DMA_IRQHandler+0x104>
 80016fc:	680a      	ldr	r2, [r1, #0]
 80016fe:	f022 0208 	bic.w	r2, r2, #8
 8001702:	600a      	str	r2, [r1, #0]
 8001704:	6c22      	ldr	r2, [r4, #64]	; 0x40
 8001706:	2a00      	cmp	r2, #0
 8001708:	d0a4      	beq.n	8001654 <HAL_DMA_IRQHandler+0x54>
 800170a:	4620      	mov	r0, r4
 800170c:	4790      	blx	r2
 800170e:	6de3      	ldr	r3, [r4, #92]	; 0x5c
 8001710:	e7a0      	b.n	8001654 <HAL_DMA_IRQHandler+0x54>
 8001712:	60ba      	str	r2, [r7, #8]
 8001714:	6d62      	ldr	r2, [r4, #84]	; 0x54
 8001716:	f042 0204 	orr.w	r2, r2, #4
 800171a:	6562      	str	r2, [r4, #84]	; 0x54
 800171c:	e792      	b.n	8001644 <HAL_DMA_IRQHandler+0x44>
 800171e:	60ba      	str	r2, [r7, #8]
 8001720:	6d62      	ldr	r2, [r4, #84]	; 0x54
 8001722:	f042 0202 	orr.w	r2, r2, #2
 8001726:	6562      	str	r2, [r4, #84]	; 0x54
 8001728:	e784      	b.n	8001634 <HAL_DMA_IRQHandler+0x34>
 800172a:	0311      	lsls	r1, r2, #12
 800172c:	d5ea      	bpl.n	8001704 <HAL_DMA_IRQHandler+0x104>
 800172e:	6ca2      	ldr	r2, [r4, #72]	; 0x48
 8001730:	2a00      	cmp	r2, #0
 8001732:	d1ea      	bne.n	800170a <HAL_DMA_IRQHandler+0x10a>
 8001734:	e78e      	b.n	8001654 <HAL_DMA_IRQHandler+0x54>
 8001736:	680a      	ldr	r2, [r1, #0]
 8001738:	6c20      	ldr	r0, [r4, #64]	; 0x40
 800173a:	f022 0216 	bic.w	r2, r2, #22
 800173e:	600a      	str	r2, [r1, #0]
 8001740:	694a      	ldr	r2, [r1, #20]
 8001742:	f022 0280 	bic.w	r2, r2, #128	; 0x80
 8001746:	614a      	str	r2, [r1, #20]
 8001748:	b338      	cbz	r0, 800179a <HAL_DMA_IRQHandler+0x19a>
 800174a:	680a      	ldr	r2, [r1, #0]
 800174c:	f022 0208 	bic.w	r2, r2, #8
 8001750:	600a      	str	r2, [r1, #0]
 8001752:	223f      	movs	r2, #63	; 0x3f
 8001754:	2000      	movs	r0, #0
 8001756:	2101      	movs	r1, #1
 8001758:	fa02 f303 	lsl.w	r3, r2, r3
 800175c:	6d22      	ldr	r2, [r4, #80]	; 0x50
 800175e:	60bb      	str	r3, [r7, #8]
 8001760:	f884 0034 	strb.w	r0, [r4, #52]	; 0x34
 8001764:	f884 1035 	strb.w	r1, [r4, #53]	; 0x35
 8001768:	2a00      	cmp	r2, #0
 800176a:	d0b3      	beq.n	80016d4 <HAL_DMA_IRQHandler+0xd4>
 800176c:	4620      	mov	r0, r4
 800176e:	b003      	add	sp, #12
 8001770:	e8bd 40f0 	ldmia.w	sp!, {r4, r5, r6, r7, lr}
 8001774:	4710      	bx	r2
 8001776:	f413 7380 	ands.w	r3, r3, #256	; 0x100
 800177a:	d180      	bne.n	800167e <HAL_DMA_IRQHandler+0x7e>
 800177c:	680a      	ldr	r2, [r1, #0]
 800177e:	2001      	movs	r0, #1
 8001780:	f022 0210 	bic.w	r2, r2, #16
 8001784:	600a      	str	r2, [r1, #0]
 8001786:	f884 3034 	strb.w	r3, [r4, #52]	; 0x34
 800178a:	f884 0035 	strb.w	r0, [r4, #53]	; 0x35
 800178e:	e776      	b.n	800167e <HAL_DMA_IRQHandler+0x7e>
 8001790:	6c63      	ldr	r3, [r4, #68]	; 0x44
 8001792:	2b00      	cmp	r3, #0
 8001794:	f47f af75 	bne.w	8001682 <HAL_DMA_IRQHandler+0x82>
 8001798:	e775      	b.n	8001686 <HAL_DMA_IRQHandler+0x86>
 800179a:	6ca2      	ldr	r2, [r4, #72]	; 0x48
 800179c:	2a00      	cmp	r2, #0
 800179e:	d1d4      	bne.n	800174a <HAL_DMA_IRQHandler+0x14a>
 80017a0:	e7d7      	b.n	8001752 <HAL_DMA_IRQHandler+0x152>
 80017a2:	bf00      	nop
 80017a4:	20000110 	.word	0x20000110
 80017a8:	1b4e81b5 	.word	0x1b4e81b5

080017ac <HAL_GPIO_Init>:
 80017ac:	e92d 4ff0 	stmdb	sp!, {r4, r5, r6, r7, r8, r9, sl, fp, lr}
 80017b0:	f8df c208 	ldr.w	ip, [pc, #520]	; 80019bc <HAL_GPIO_Init+0x210>
 80017b4:	b083      	sub	sp, #12
 80017b6:	468e      	mov	lr, r1
 80017b8:	2500      	movs	r5, #0
 80017ba:	f8df 9204 	ldr.w	r9, [pc, #516]	; 80019c0 <HAL_GPIO_Init+0x214>
 80017be:	f8d1 8000 	ldr.w	r8, [r1]
 80017c2:	e003      	b.n	80017cc <HAL_GPIO_Init+0x20>
 80017c4:	3501      	adds	r5, #1
 80017c6:	2d10      	cmp	r5, #16
 80017c8:	f000 80b2 	beq.w	8001930 <HAL_GPIO_Init+0x184>
 80017cc:	2301      	movs	r3, #1
 80017ce:	40ab      	lsls	r3, r5
 80017d0:	ea08 0103 	and.w	r1, r8, r3
 80017d4:	428b      	cmp	r3, r1
 80017d6:	d1f5      	bne.n	80017c4 <HAL_GPIO_Init+0x18>
 80017d8:	f8de 4004 	ldr.w	r4, [lr, #4]
 80017dc:	f024 0a10 	bic.w	sl, r4, #16
 80017e0:	f1ba 0f02 	cmp.w	sl, #2
 80017e4:	f040 80a7 	bne.w	8001936 <HAL_GPIO_Init+0x18a>
 80017e8:	ea4f 0ad5 	mov.w	sl, r5, lsr #3
 80017ec:	f005 0707 	and.w	r7, r5, #7
 80017f0:	f04f 0b0f 	mov.w	fp, #15
 80017f4:	f8de 2010 	ldr.w	r2, [lr, #16]
 80017f8:	eb00 0a8a 	add.w	sl, r0, sl, lsl #2
 80017fc:	00bf      	lsls	r7, r7, #2
 80017fe:	f8da 6020 	ldr.w	r6, [sl, #32]
 8001802:	fa0b fb07 	lsl.w	fp, fp, r7
 8001806:	40ba      	lsls	r2, r7
 8001808:	006f      	lsls	r7, r5, #1
 800180a:	ea26 060b 	bic.w	r6, r6, fp
 800180e:	f04f 0b03 	mov.w	fp, #3
 8001812:	4332      	orrs	r2, r6
 8001814:	fa0b fb07 	lsl.w	fp, fp, r7
 8001818:	f004 0603 	and.w	r6, r4, #3
 800181c:	f8ca 2020 	str.w	r2, [sl, #32]
 8001820:	ea6f 020b 	mvn.w	r2, fp
 8001824:	f8d0 a000 	ldr.w	sl, [r0]
 8001828:	40be      	lsls	r6, r7
 800182a:	ea02 0a0a 	and.w	sl, r2, sl
 800182e:	ea46 060a 	orr.w	r6, r6, sl
 8001832:	6006      	str	r6, [r0, #0]
 8001834:	6886      	ldr	r6, [r0, #8]
 8001836:	f3c4 1a00 	ubfx	sl, r4, #4, #1
 800183a:	ea06 0b02 	and.w	fp, r6, r2
 800183e:	f8de 600c 	ldr.w	r6, [lr, #12]
 8001842:	fa0a fa05 	lsl.w	sl, sl, r5
 8001846:	40be      	lsls	r6, r7
 8001848:	ea46 060b 	orr.w	r6, r6, fp
 800184c:	6086      	str	r6, [r0, #8]
 800184e:	6846      	ldr	r6, [r0, #4]
 8001850:	ea26 0303 	bic.w	r3, r6, r3
 8001854:	ea4a 0303 	orr.w	r3, sl, r3
 8001858:	6043      	str	r3, [r0, #4]
 800185a:	68c6      	ldr	r6, [r0, #12]
 800185c:	f8de 3008 	ldr.w	r3, [lr, #8]
 8001860:	4032      	ands	r2, r6
 8001862:	40bb      	lsls	r3, r7
 8001864:	00e7      	lsls	r7, r4, #3
 8001866:	ea43 0302 	orr.w	r3, r3, r2
 800186a:	60c3      	str	r3, [r0, #12]
 800186c:	d5aa      	bpl.n	80017c4 <HAL_GPIO_Init+0x18>
 800186e:	f8d9 6044 	ldr.w	r6, [r9, #68]	; 0x44
 8001872:	f025 0703 	bic.w	r7, r5, #3
 8001876:	f005 0303 	and.w	r3, r5, #3
 800187a:	220f      	movs	r2, #15
 800187c:	f446 4680 	orr.w	r6, r6, #16384	; 0x4000
 8001880:	f107 4780 	add.w	r7, r7, #1073741824	; 0x40000000
 8001884:	009b      	lsls	r3, r3, #2
 8001886:	f8c9 6044 	str.w	r6, [r9, #68]	; 0x44
 800188a:	f507 379c 	add.w	r7, r7, #79872	; 0x13800
 800188e:	f8d9 6044 	ldr.w	r6, [r9, #68]	; 0x44
 8001892:	fa02 fa03 	lsl.w	sl, r2, r3
 8001896:	f406 4680 	and.w	r6, r6, #16384	; 0x4000
 800189a:	9601      	str	r6, [sp, #4]
 800189c:	4e40      	ldr	r6, [pc, #256]	; (80019a0 <HAL_GPIO_Init+0x1f4>)
 800189e:	9a01      	ldr	r2, [sp, #4]
 80018a0:	42b0      	cmp	r0, r6
 80018a2:	68ba      	ldr	r2, [r7, #8]
 80018a4:	ea22 020a 	bic.w	r2, r2, sl
 80018a8:	d01a      	beq.n	80018e0 <HAL_GPIO_Init+0x134>
 80018aa:	f506 6680 	add.w	r6, r6, #1024	; 0x400
 80018ae:	42b0      	cmp	r0, r6
 80018b0:	d058      	beq.n	8001964 <HAL_GPIO_Init+0x1b8>
 80018b2:	4e3c      	ldr	r6, [pc, #240]	; (80019a4 <HAL_GPIO_Init+0x1f8>)
 80018b4:	42b0      	cmp	r0, r6
 80018b6:	d05a      	beq.n	800196e <HAL_GPIO_Init+0x1c2>
 80018b8:	4e3b      	ldr	r6, [pc, #236]	; (80019a8 <HAL_GPIO_Init+0x1fc>)
 80018ba:	42b0      	cmp	r0, r6
 80018bc:	d05c      	beq.n	8001978 <HAL_GPIO_Init+0x1cc>
 80018be:	4e3b      	ldr	r6, [pc, #236]	; (80019ac <HAL_GPIO_Init+0x200>)
 80018c0:	42b0      	cmp	r0, r6
 80018c2:	d05e      	beq.n	8001982 <HAL_GPIO_Init+0x1d6>
 80018c4:	4e3a      	ldr	r6, [pc, #232]	; (80019b0 <HAL_GPIO_Init+0x204>)
 80018c6:	42b0      	cmp	r0, r6
 80018c8:	d060      	beq.n	800198c <HAL_GPIO_Init+0x1e0>
 80018ca:	4e3a      	ldr	r6, [pc, #232]	; (80019b4 <HAL_GPIO_Init+0x208>)
 80018cc:	42b0      	cmp	r0, r6
 80018ce:	d062      	beq.n	8001996 <HAL_GPIO_Init+0x1ea>
 80018d0:	4e39      	ldr	r6, [pc, #228]	; (80019b8 <HAL_GPIO_Init+0x20c>)
 80018d2:	42b0      	cmp	r0, r6
 80018d4:	bf0c      	ite	eq
 80018d6:	2607      	moveq	r6, #7
 80018d8:	2608      	movne	r6, #8
 80018da:	fa06 f303 	lsl.w	r3, r6, r3
 80018de:	431a      	orrs	r2, r3
 80018e0:	60ba      	str	r2, [r7, #8]
 80018e2:	03e6      	lsls	r6, r4, #15
 80018e4:	f8dc 3000 	ldr.w	r3, [ip]
 80018e8:	ea6f 0201 	mvn.w	r2, r1
 80018ec:	f105 0501 	add.w	r5, r5, #1
 80018f0:	bf54      	ite	pl
 80018f2:	4013      	andpl	r3, r2
 80018f4:	430b      	orrmi	r3, r1
 80018f6:	03a7      	lsls	r7, r4, #14
 80018f8:	f8cc 3000 	str.w	r3, [ip]
 80018fc:	f8dc 3004 	ldr.w	r3, [ip, #4]
 8001900:	bf54      	ite	pl
 8001902:	4013      	andpl	r3, r2
 8001904:	430b      	orrmi	r3, r1
 8001906:	02e6      	lsls	r6, r4, #11
 8001908:	f8cc 3004 	str.w	r3, [ip, #4]
 800190c:	f8dc 3008 	ldr.w	r3, [ip, #8]
 8001910:	bf54      	ite	pl
 8001912:	4013      	andpl	r3, r2
 8001914:	430b      	orrmi	r3, r1
 8001916:	02a4      	lsls	r4, r4, #10
 8001918:	f8cc 3008 	str.w	r3, [ip, #8]
 800191c:	f8dc 300c 	ldr.w	r3, [ip, #12]
 8001920:	bf54      	ite	pl
 8001922:	4013      	andpl	r3, r2
 8001924:	430b      	orrmi	r3, r1
 8001926:	2d10      	cmp	r5, #16
 8001928:	f8cc 300c 	str.w	r3, [ip, #12]
 800192c:	f47f af4e 	bne.w	80017cc <HAL_GPIO_Init+0x20>
 8001930:	b003      	add	sp, #12
 8001932:	e8bd 8ff0 	ldmia.w	sp!, {r4, r5, r6, r7, r8, r9, sl, fp, pc}
 8001936:	006f      	lsls	r7, r5, #1
 8001938:	2203      	movs	r2, #3
 800193a:	f8d0 b000 	ldr.w	fp, [r0]
 800193e:	f10a 3aff 	add.w	sl, sl, #4294967295
 8001942:	ea04 0602 	and.w	r6, r4, r2
 8001946:	40ba      	lsls	r2, r7
 8001948:	f1ba 0f01 	cmp.w	sl, #1
 800194c:	ea6f 0202 	mvn.w	r2, r2
 8001950:	fa06 f607 	lsl.w	r6, r6, r7
 8001954:	ea02 0b0b 	and.w	fp, r2, fp
 8001958:	ea46 060b 	orr.w	r6, r6, fp
 800195c:	6006      	str	r6, [r0, #0]
 800195e:	f63f af7c 	bhi.w	800185a <HAL_GPIO_Init+0xae>
 8001962:	e767      	b.n	8001834 <HAL_GPIO_Init+0x88>
 8001964:	2601      	movs	r6, #1
 8001966:	fa06 f303 	lsl.w	r3, r6, r3
 800196a:	431a      	orrs	r2, r3
 800196c:	e7b8      	b.n	80018e0 <HAL_GPIO_Init+0x134>
 800196e:	2602      	movs	r6, #2
 8001970:	fa06 f303 	lsl.w	r3, r6, r3
 8001974:	431a      	orrs	r2, r3
 8001976:	e7b3      	b.n	80018e0 <HAL_GPIO_Init+0x134>
 8001978:	2603      	movs	r6, #3
 800197a:	fa06 f303 	lsl.w	r3, r6, r3
 800197e:	431a      	orrs	r2, r3
 8001980:	e7ae      	b.n	80018e0 <HAL_GPIO_Init+0x134>
 8001982:	2604      	movs	r6, #4
 8001984:	fa06 f303 	lsl.w	r3, r6, r3
 8001988:	431a      	orrs	r2, r3
 800198a:	e7a9      	b.n	80018e0 <HAL_GPIO_Init+0x134>
 800198c:	2605      	movs	r6, #5
 800198e:	fa06 f303 	lsl.w	r3, r6, r3
 8001992:	431a      	orrs	r2, r3
 8001994:	e7a4      	b.n	80018e0 <HAL_GPIO_Init+0x134>
 8001996:	2606      	movs	r6, #6
 8001998:	fa06 f303 	lsl.w	r3, r6, r3
 800199c:	431a      	orrs	r2, r3
 800199e:	e79f      	b.n	80018e0 <HAL_GPIO_Init+0x134>
 80019a0:	40020000 	.word	0x40020000
 80019a4:	40020800 	.word	0x40020800
 80019a8:	40020c00 	.word	0x40020c00
 80019ac:	40021000 	.word	0x40021000
 80019b0:	40021400 	.word	0x40021400
 80019b4:	40021800 	.word	0x40021800
 80019b8:	40021c00 	.word	0x40021c00
 80019bc:	40013c00 	.word	0x40013c00
 80019c0:	40023800 	.word	0x40023800

080019c4 <HAL_GPIO_ReadPin>:
 80019c4:	6903      	ldr	r3, [r0, #16]
 80019c6:	4219      	tst	r1, r3
 80019c8:	bf14      	ite	ne
 80019ca:	2001      	movne	r0, #1
 80019cc:	2000      	moveq	r0, #0
 80019ce:	4770      	bx	lr

080019d0 <HAL_GPIO_WritePin>:
 80019d0:	b902      	cbnz	r2, 80019d4 <HAL_GPIO_WritePin+0x4>
 80019d2:	0409      	lsls	r1, r1, #16
 80019d4:	6181      	str	r1, [r0, #24]
 80019d6:	4770      	bx	lr

080019d8 <HAL_GPIO_TogglePin>:
 80019d8:	6943      	ldr	r3, [r0, #20]
 80019da:	ea31 0303 	bics.w	r3, r1, r3
 80019de:	bf08      	it	eq
 80019e0:	0409      	lsleq	r1, r1, #16
 80019e2:	6181      	str	r1, [r0, #24]
 80019e4:	4770      	bx	lr
 80019e6:	bf00      	nop

080019e8 <HAL_I2C_Init>:
 80019e8:	2800      	cmp	r0, #0
 80019ea:	d04d      	beq.n	8001a88 <HAL_I2C_Init+0xa0>
 80019ec:	b5f8      	push	{r3, r4, r5, r6, r7, lr}
 80019ee:	f890 3041 	ldrb.w	r3, [r0, #65]	; 0x41
 80019f2:	4604      	mov	r4, r0
 80019f4:	f003 02ff 	and.w	r2, r3, #255	; 0xff
 80019f8:	2b00      	cmp	r3, #0
 80019fa:	d040      	beq.n	8001a7e <HAL_I2C_Init+0x96>
 80019fc:	2124      	movs	r1, #36	; 0x24
 80019fe:	68e5      	ldr	r5, [r4, #12]
 8001a00:	e9d4 3200 	ldrd	r3, r2, [r4]
 8001a04:	f884 1041 	strb.w	r1, [r4, #65]	; 0x41
 8001a08:	2d01      	cmp	r5, #1
 8001a0a:	6818      	ldr	r0, [r3, #0]
 8001a0c:	f022 6170 	bic.w	r1, r2, #251658240	; 0xf000000
 8001a10:	68a2      	ldr	r2, [r4, #8]
 8001a12:	f020 0001 	bic.w	r0, r0, #1
 8001a16:	6018      	str	r0, [r3, #0]
 8001a18:	6119      	str	r1, [r3, #16]
 8001a1a:	6899      	ldr	r1, [r3, #8]
 8001a1c:	f421 4100 	bic.w	r1, r1, #32768	; 0x8000
 8001a20:	6099      	str	r1, [r3, #8]
 8001a22:	d028      	beq.n	8001a76 <HAL_I2C_Init+0x8e>
 8001a24:	f442 4204 	orr.w	r2, r2, #33792	; 0x8400
 8001a28:	2d02      	cmp	r5, #2
 8001a2a:	609a      	str	r2, [r3, #8]
 8001a2c:	d102      	bne.n	8001a34 <HAL_I2C_Init+0x4c>
 8001a2e:	f44f 6200 	mov.w	r2, #2048	; 0x800
 8001a32:	605a      	str	r2, [r3, #4]
 8001a34:	685a      	ldr	r2, [r3, #4]
 8001a36:	2100      	movs	r1, #0
 8001a38:	4814      	ldr	r0, [pc, #80]	; (8001a8c <HAL_I2C_Init+0xa4>)
 8001a3a:	2720      	movs	r7, #32
 8001a3c:	69a6      	ldr	r6, [r4, #24]
 8001a3e:	4310      	orrs	r0, r2
 8001a40:	e9d4 2504 	ldrd	r2, r5, [r4, #16]
 8001a44:	6058      	str	r0, [r3, #4]
 8001a46:	432a      	orrs	r2, r5
 8001a48:	68d8      	ldr	r0, [r3, #12]
 8001a4a:	69e5      	ldr	r5, [r4, #28]
 8001a4c:	ea42 2206 	orr.w	r2, r2, r6, lsl #8
 8001a50:	6a26      	ldr	r6, [r4, #32]
 8001a52:	f420 4000 	bic.w	r0, r0, #32768	; 0x8000
 8001a56:	4335      	orrs	r5, r6
 8001a58:	60d8      	str	r0, [r3, #12]
 8001a5a:	4608      	mov	r0, r1
 8001a5c:	60da      	str	r2, [r3, #12]
 8001a5e:	601d      	str	r5, [r3, #0]
 8001a60:	681a      	ldr	r2, [r3, #0]
 8001a62:	f042 0201 	orr.w	r2, r2, #1
 8001a66:	601a      	str	r2, [r3, #0]
 8001a68:	6461      	str	r1, [r4, #68]	; 0x44
 8001a6a:	f884 7041 	strb.w	r7, [r4, #65]	; 0x41
 8001a6e:	6321      	str	r1, [r4, #48]	; 0x30
 8001a70:	f884 1042 	strb.w	r1, [r4, #66]	; 0x42
 8001a74:	bdf8      	pop	{r3, r4, r5, r6, r7, pc}
 8001a76:	f442 4200 	orr.w	r2, r2, #32768	; 0x8000
 8001a7a:	609a      	str	r2, [r3, #8]
 8001a7c:	e7da      	b.n	8001a34 <HAL_I2C_Init+0x4c>
 8001a7e:	f880 2040 	strb.w	r2, [r0, #64]	; 0x40
 8001a82:	f003 fced 	bl	8005460 <HAL_I2C_MspInit>
 8001a86:	e7b9      	b.n	80019fc <HAL_I2C_Init+0x14>
 8001a88:	2001      	movs	r0, #1
 8001a8a:	4770      	bx	lr
 8001a8c:	02008000 	.word	0x02008000

08001a90 <HAL_I2CEx_ConfigAnalogFilter>:
 8001a90:	f890 3041 	ldrb.w	r3, [r0, #65]	; 0x41
 8001a94:	b2db      	uxtb	r3, r3
 8001a96:	2b20      	cmp	r3, #32
 8001a98:	b470      	push	{r4, r5, r6}
 8001a9a:	d11f      	bne.n	8001adc <HAL_I2CEx_ConfigAnalogFilter+0x4c>
 8001a9c:	f890 2040 	ldrb.w	r2, [r0, #64]	; 0x40
 8001aa0:	2a01      	cmp	r2, #1
 8001aa2:	d01b      	beq.n	8001adc <HAL_I2CEx_ConfigAnalogFilter+0x4c>
 8001aa4:	6802      	ldr	r2, [r0, #0]
 8001aa6:	2424      	movs	r4, #36	; 0x24
 8001aa8:	2600      	movs	r6, #0
 8001aaa:	f880 4041 	strb.w	r4, [r0, #65]	; 0x41
 8001aae:	6815      	ldr	r5, [r2, #0]
 8001ab0:	4634      	mov	r4, r6
 8001ab2:	f025 0501 	bic.w	r5, r5, #1
 8001ab6:	6015      	str	r5, [r2, #0]
 8001ab8:	6815      	ldr	r5, [r2, #0]
 8001aba:	f425 5580 	bic.w	r5, r5, #4096	; 0x1000
 8001abe:	6015      	str	r5, [r2, #0]
 8001ac0:	6815      	ldr	r5, [r2, #0]
 8001ac2:	4329      	orrs	r1, r5
 8001ac4:	6011      	str	r1, [r2, #0]
 8001ac6:	6811      	ldr	r1, [r2, #0]
 8001ac8:	f041 0101 	orr.w	r1, r1, #1
 8001acc:	6011      	str	r1, [r2, #0]
 8001ace:	f880 6040 	strb.w	r6, [r0, #64]	; 0x40
 8001ad2:	f880 3041 	strb.w	r3, [r0, #65]	; 0x41
 8001ad6:	4620      	mov	r0, r4
 8001ad8:	bc70      	pop	{r4, r5, r6}
 8001ada:	4770      	bx	lr
 8001adc:	2402      	movs	r4, #2
 8001ade:	4620      	mov	r0, r4
 8001ae0:	bc70      	pop	{r4, r5, r6}
 8001ae2:	4770      	bx	lr

08001ae4 <HAL_I2CEx_ConfigDigitalFilter>:
 8001ae4:	f890 3041 	ldrb.w	r3, [r0, #65]	; 0x41
 8001ae8:	b2db      	uxtb	r3, r3
 8001aea:	2b20      	cmp	r3, #32
 8001aec:	b470      	push	{r4, r5, r6}
 8001aee:	d11e      	bne.n	8001b2e <HAL_I2CEx_ConfigDigitalFilter+0x4a>
 8001af0:	f890 2040 	ldrb.w	r2, [r0, #64]	; 0x40
 8001af4:	2a01      	cmp	r2, #1
 8001af6:	d01a      	beq.n	8001b2e <HAL_I2CEx_ConfigDigitalFilter+0x4a>
 8001af8:	6802      	ldr	r2, [r0, #0]
 8001afa:	2424      	movs	r4, #36	; 0x24
 8001afc:	2600      	movs	r6, #0
 8001afe:	f880 4041 	strb.w	r4, [r0, #65]	; 0x41
 8001b02:	6814      	ldr	r4, [r2, #0]
 8001b04:	4635      	mov	r5, r6
 8001b06:	f024 0401 	bic.w	r4, r4, #1
 8001b0a:	6014      	str	r4, [r2, #0]
 8001b0c:	6814      	ldr	r4, [r2, #0]
 8001b0e:	f424 6470 	bic.w	r4, r4, #3840	; 0xf00
 8001b12:	ea44 2101 	orr.w	r1, r4, r1, lsl #8
 8001b16:	6011      	str	r1, [r2, #0]
 8001b18:	6811      	ldr	r1, [r2, #0]
 8001b1a:	f041 0101 	orr.w	r1, r1, #1
 8001b1e:	6011      	str	r1, [r2, #0]
 8001b20:	f880 6040 	strb.w	r6, [r0, #64]	; 0x40
 8001b24:	f880 3041 	strb.w	r3, [r0, #65]	; 0x41
 8001b28:	4628      	mov	r0, r5
 8001b2a:	bc70      	pop	{r4, r5, r6}
 8001b2c:	4770      	bx	lr
 8001b2e:	2502      	movs	r5, #2
 8001b30:	4628      	mov	r0, r5
 8001b32:	bc70      	pop	{r4, r5, r6}
 8001b34:	4770      	bx	lr
 8001b36:	bf00      	nop

08001b38 <HAL_PWREx_EnableOverDrive>:
 8001b38:	4a1b      	ldr	r2, [pc, #108]	; (8001ba8 <HAL_PWREx_EnableOverDrive+0x70>)
 8001b3a:	4b1c      	ldr	r3, [pc, #112]	; (8001bac <HAL_PWREx_EnableOverDrive+0x74>)
 8001b3c:	6c11      	ldr	r1, [r2, #64]	; 0x40
 8001b3e:	f041 5180 	orr.w	r1, r1, #268435456	; 0x10000000
 8001b42:	b530      	push	{r4, r5, lr}
 8001b44:	6411      	str	r1, [r2, #64]	; 0x40
 8001b46:	b083      	sub	sp, #12
 8001b48:	6c12      	ldr	r2, [r2, #64]	; 0x40
 8001b4a:	461c      	mov	r4, r3
 8001b4c:	f002 5280 	and.w	r2, r2, #268435456	; 0x10000000
 8001b50:	9201      	str	r2, [sp, #4]
 8001b52:	9a01      	ldr	r2, [sp, #4]
 8001b54:	681a      	ldr	r2, [r3, #0]
 8001b56:	f442 3280 	orr.w	r2, r2, #65536	; 0x10000
 8001b5a:	601a      	str	r2, [r3, #0]
 8001b5c:	f7ff f98a 	bl	8000e74 <HAL_GetTick>
 8001b60:	4605      	mov	r5, r0
 8001b62:	e005      	b.n	8001b70 <HAL_PWREx_EnableOverDrive+0x38>
 8001b64:	f7ff f986 	bl	8000e74 <HAL_GetTick>
 8001b68:	1b40      	subs	r0, r0, r5
 8001b6a:	f5b0 7f7a 	cmp.w	r0, #1000	; 0x3e8
 8001b6e:	d817      	bhi.n	8001ba0 <HAL_PWREx_EnableOverDrive+0x68>
 8001b70:	6863      	ldr	r3, [r4, #4]
 8001b72:	03da      	lsls	r2, r3, #15
 8001b74:	d5f6      	bpl.n	8001b64 <HAL_PWREx_EnableOverDrive+0x2c>
 8001b76:	6823      	ldr	r3, [r4, #0]
 8001b78:	4d0c      	ldr	r5, [pc, #48]	; (8001bac <HAL_PWREx_EnableOverDrive+0x74>)
 8001b7a:	f443 3300 	orr.w	r3, r3, #131072	; 0x20000
 8001b7e:	6023      	str	r3, [r4, #0]
 8001b80:	f7ff f978 	bl	8000e74 <HAL_GetTick>
 8001b84:	4604      	mov	r4, r0
 8001b86:	e005      	b.n	8001b94 <HAL_PWREx_EnableOverDrive+0x5c>
 8001b88:	f7ff f974 	bl	8000e74 <HAL_GetTick>
 8001b8c:	1b00      	subs	r0, r0, r4
 8001b8e:	f5b0 7f7a 	cmp.w	r0, #1000	; 0x3e8
 8001b92:	d805      	bhi.n	8001ba0 <HAL_PWREx_EnableOverDrive+0x68>
 8001b94:	686b      	ldr	r3, [r5, #4]
 8001b96:	039b      	lsls	r3, r3, #14
 8001b98:	d5f6      	bpl.n	8001b88 <HAL_PWREx_EnableOverDrive+0x50>
 8001b9a:	2000      	movs	r0, #0
 8001b9c:	b003      	add	sp, #12
 8001b9e:	bd30      	pop	{r4, r5, pc}
 8001ba0:	2003      	movs	r0, #3
 8001ba2:	b003      	add	sp, #12
 8001ba4:	bd30      	pop	{r4, r5, pc}
 8001ba6:	bf00      	nop
 8001ba8:	40023800 	.word	0x40023800
 8001bac:	40007000 	.word	0x40007000

08001bb0 <HAL_RCC_OscConfig>:
 8001bb0:	2800      	cmp	r0, #0
 8001bb2:	f000 8134 	beq.w	8001e1e <HAL_RCC_OscConfig+0x26e>
 8001bb6:	6803      	ldr	r3, [r0, #0]
 8001bb8:	e92d 41f0 	stmdb	sp!, {r4, r5, r6, r7, r8, lr}
 8001bbc:	07dd      	lsls	r5, r3, #31
 8001bbe:	b082      	sub	sp, #8
 8001bc0:	4604      	mov	r4, r0
 8001bc2:	d535      	bpl.n	8001c30 <HAL_RCC_OscConfig+0x80>
 8001bc4:	49ab      	ldr	r1, [pc, #684]	; (8001e74 <HAL_RCC_OscConfig+0x2c4>)
 8001bc6:	688a      	ldr	r2, [r1, #8]
 8001bc8:	f002 020c 	and.w	r2, r2, #12
 8001bcc:	2a04      	cmp	r2, #4
 8001bce:	f000 80fe 	beq.w	8001dce <HAL_RCC_OscConfig+0x21e>
 8001bd2:	688a      	ldr	r2, [r1, #8]
 8001bd4:	f002 020c 	and.w	r2, r2, #12
 8001bd8:	2a08      	cmp	r2, #8
 8001bda:	f000 80f4 	beq.w	8001dc6 <HAL_RCC_OscConfig+0x216>
 8001bde:	6863      	ldr	r3, [r4, #4]
 8001be0:	f5b3 3f80 	cmp.w	r3, #65536	; 0x10000
 8001be4:	d010      	beq.n	8001c08 <HAL_RCC_OscConfig+0x58>
 8001be6:	2b00      	cmp	r3, #0
 8001be8:	f000 811b 	beq.w	8001e22 <HAL_RCC_OscConfig+0x272>
 8001bec:	f5b3 2fa0 	cmp.w	r3, #327680	; 0x50000
 8001bf0:	4ba0      	ldr	r3, [pc, #640]	; (8001e74 <HAL_RCC_OscConfig+0x2c4>)
 8001bf2:	681a      	ldr	r2, [r3, #0]
 8001bf4:	f000 8162 	beq.w	8001ebc <HAL_RCC_OscConfig+0x30c>
 8001bf8:	f422 3280 	bic.w	r2, r2, #65536	; 0x10000
 8001bfc:	601a      	str	r2, [r3, #0]
 8001bfe:	681a      	ldr	r2, [r3, #0]
 8001c00:	f422 2280 	bic.w	r2, r2, #262144	; 0x40000
 8001c04:	601a      	str	r2, [r3, #0]
 8001c06:	e004      	b.n	8001c12 <HAL_RCC_OscConfig+0x62>
 8001c08:	4a9a      	ldr	r2, [pc, #616]	; (8001e74 <HAL_RCC_OscConfig+0x2c4>)
 8001c0a:	6813      	ldr	r3, [r2, #0]
 8001c0c:	f443 3380 	orr.w	r3, r3, #65536	; 0x10000
 8001c10:	6013      	str	r3, [r2, #0]
 8001c12:	f7ff f92f 	bl	8000e74 <HAL_GetTick>
 8001c16:	4d97      	ldr	r5, [pc, #604]	; (8001e74 <HAL_RCC_OscConfig+0x2c4>)
 8001c18:	4606      	mov	r6, r0
 8001c1a:	e005      	b.n	8001c28 <HAL_RCC_OscConfig+0x78>
 8001c1c:	f7ff f92a 	bl	8000e74 <HAL_GetTick>
 8001c20:	1b80      	subs	r0, r0, r6
 8001c22:	2864      	cmp	r0, #100	; 0x64
 8001c24:	f200 80ee 	bhi.w	8001e04 <HAL_RCC_OscConfig+0x254>
 8001c28:	682b      	ldr	r3, [r5, #0]
 8001c2a:	039a      	lsls	r2, r3, #14
 8001c2c:	d5f6      	bpl.n	8001c1c <HAL_RCC_OscConfig+0x6c>
 8001c2e:	6823      	ldr	r3, [r4, #0]
 8001c30:	079f      	lsls	r7, r3, #30
 8001c32:	d442      	bmi.n	8001cba <HAL_RCC_OscConfig+0x10a>
 8001c34:	071a      	lsls	r2, r3, #28
 8001c36:	d517      	bpl.n	8001c68 <HAL_RCC_OscConfig+0xb8>
 8001c38:	6963      	ldr	r3, [r4, #20]
 8001c3a:	2b00      	cmp	r3, #0
 8001c3c:	f000 80b0 	beq.w	8001da0 <HAL_RCC_OscConfig+0x1f0>
 8001c40:	4b8c      	ldr	r3, [pc, #560]	; (8001e74 <HAL_RCC_OscConfig+0x2c4>)
 8001c42:	6f5a      	ldr	r2, [r3, #116]	; 0x74
 8001c44:	461d      	mov	r5, r3
 8001c46:	f042 0201 	orr.w	r2, r2, #1
 8001c4a:	675a      	str	r2, [r3, #116]	; 0x74
 8001c4c:	f7ff f912 	bl	8000e74 <HAL_GetTick>
 8001c50:	4606      	mov	r6, r0
 8001c52:	e005      	b.n	8001c60 <HAL_RCC_OscConfig+0xb0>
 8001c54:	f7ff f90e 	bl	8000e74 <HAL_GetTick>
 8001c58:	1b80      	subs	r0, r0, r6
 8001c5a:	2802      	cmp	r0, #2
 8001c5c:	f200 80d2 	bhi.w	8001e04 <HAL_RCC_OscConfig+0x254>
 8001c60:	6f6b      	ldr	r3, [r5, #116]	; 0x74
 8001c62:	079b      	lsls	r3, r3, #30
 8001c64:	d5f6      	bpl.n	8001c54 <HAL_RCC_OscConfig+0xa4>
 8001c66:	6823      	ldr	r3, [r4, #0]
 8001c68:	075d      	lsls	r5, r3, #29
 8001c6a:	d56b      	bpl.n	8001d44 <HAL_RCC_OscConfig+0x194>
 8001c6c:	4b81      	ldr	r3, [pc, #516]	; (8001e74 <HAL_RCC_OscConfig+0x2c4>)
 8001c6e:	6c1a      	ldr	r2, [r3, #64]	; 0x40
 8001c70:	00d0      	lsls	r0, r2, #3
 8001c72:	f100 80ed 	bmi.w	8001e50 <HAL_RCC_OscConfig+0x2a0>
 8001c76:	6c1a      	ldr	r2, [r3, #64]	; 0x40
 8001c78:	2501      	movs	r5, #1
 8001c7a:	f042 5280 	orr.w	r2, r2, #268435456	; 0x10000000
 8001c7e:	641a      	str	r2, [r3, #64]	; 0x40
 8001c80:	6c1b      	ldr	r3, [r3, #64]	; 0x40
 8001c82:	f003 5380 	and.w	r3, r3, #268435456	; 0x10000000
 8001c86:	9301      	str	r3, [sp, #4]
 8001c88:	9b01      	ldr	r3, [sp, #4]
 8001c8a:	4b7b      	ldr	r3, [pc, #492]	; (8001e78 <HAL_RCC_OscConfig+0x2c8>)
 8001c8c:	681a      	ldr	r2, [r3, #0]
 8001c8e:	05d1      	lsls	r1, r2, #23
 8001c90:	f140 80a7 	bpl.w	8001de2 <HAL_RCC_OscConfig+0x232>
 8001c94:	68a3      	ldr	r3, [r4, #8]
 8001c96:	2b01      	cmp	r3, #1
 8001c98:	d039      	beq.n	8001d0e <HAL_RCC_OscConfig+0x15e>
 8001c9a:	2b00      	cmp	r3, #0
 8001c9c:	f000 80da 	beq.w	8001e54 <HAL_RCC_OscConfig+0x2a4>
 8001ca0:	2b05      	cmp	r3, #5
 8001ca2:	4b74      	ldr	r3, [pc, #464]	; (8001e74 <HAL_RCC_OscConfig+0x2c4>)
 8001ca4:	6f1a      	ldr	r2, [r3, #112]	; 0x70
 8001ca6:	f000 8111 	beq.w	8001ecc <HAL_RCC_OscConfig+0x31c>
 8001caa:	f022 0201 	bic.w	r2, r2, #1
 8001cae:	671a      	str	r2, [r3, #112]	; 0x70
 8001cb0:	6f1a      	ldr	r2, [r3, #112]	; 0x70
 8001cb2:	f022 0204 	bic.w	r2, r2, #4
 8001cb6:	671a      	str	r2, [r3, #112]	; 0x70
 8001cb8:	e02e      	b.n	8001d18 <HAL_RCC_OscConfig+0x168>
 8001cba:	4a6e      	ldr	r2, [pc, #440]	; (8001e74 <HAL_RCC_OscConfig+0x2c4>)
 8001cbc:	6891      	ldr	r1, [r2, #8]
 8001cbe:	f011 0f0c 	tst.w	r1, #12
 8001cc2:	d062      	beq.n	8001d8a <HAL_RCC_OscConfig+0x1da>
 8001cc4:	6891      	ldr	r1, [r2, #8]
 8001cc6:	f001 010c 	and.w	r1, r1, #12
 8001cca:	2908      	cmp	r1, #8
 8001ccc:	d05a      	beq.n	8001d84 <HAL_RCC_OscConfig+0x1d4>
 8001cce:	68e3      	ldr	r3, [r4, #12]
 8001cd0:	2b00      	cmp	r3, #0
 8001cd2:	f000 80df 	beq.w	8001e94 <HAL_RCC_OscConfig+0x2e4>
 8001cd6:	4b67      	ldr	r3, [pc, #412]	; (8001e74 <HAL_RCC_OscConfig+0x2c4>)
 8001cd8:	681a      	ldr	r2, [r3, #0]
 8001cda:	461d      	mov	r5, r3
 8001cdc:	f042 0201 	orr.w	r2, r2, #1
 8001ce0:	601a      	str	r2, [r3, #0]
 8001ce2:	f7ff f8c7 	bl	8000e74 <HAL_GetTick>
 8001ce6:	4606      	mov	r6, r0
 8001ce8:	e005      	b.n	8001cf6 <HAL_RCC_OscConfig+0x146>
 8001cea:	f7ff f8c3 	bl	8000e74 <HAL_GetTick>
 8001cee:	1b80      	subs	r0, r0, r6
 8001cf0:	2802      	cmp	r0, #2
 8001cf2:	f200 8087 	bhi.w	8001e04 <HAL_RCC_OscConfig+0x254>
 8001cf6:	682b      	ldr	r3, [r5, #0]
 8001cf8:	0798      	lsls	r0, r3, #30
 8001cfa:	d5f6      	bpl.n	8001cea <HAL_RCC_OscConfig+0x13a>
 8001cfc:	682b      	ldr	r3, [r5, #0]
 8001cfe:	6922      	ldr	r2, [r4, #16]
 8001d00:	f023 03f8 	bic.w	r3, r3, #248	; 0xf8
 8001d04:	ea43 03c2 	orr.w	r3, r3, r2, lsl #3
 8001d08:	602b      	str	r3, [r5, #0]
 8001d0a:	6823      	ldr	r3, [r4, #0]
 8001d0c:	e792      	b.n	8001c34 <HAL_RCC_OscConfig+0x84>
 8001d0e:	4a59      	ldr	r2, [pc, #356]	; (8001e74 <HAL_RCC_OscConfig+0x2c4>)
 8001d10:	6f13      	ldr	r3, [r2, #112]	; 0x70
 8001d12:	f043 0301 	orr.w	r3, r3, #1
 8001d16:	6713      	str	r3, [r2, #112]	; 0x70
 8001d18:	f7ff f8ac 	bl	8000e74 <HAL_GetTick>
 8001d1c:	4e55      	ldr	r6, [pc, #340]	; (8001e74 <HAL_RCC_OscConfig+0x2c4>)
 8001d1e:	4680      	mov	r8, r0
 8001d20:	f241 3788 	movw	r7, #5000	; 0x1388
 8001d24:	e005      	b.n	8001d32 <HAL_RCC_OscConfig+0x182>
 8001d26:	f7ff f8a5 	bl	8000e74 <HAL_GetTick>
 8001d2a:	eba0 0008 	sub.w	r0, r0, r8
 8001d2e:	42b8      	cmp	r0, r7
 8001d30:	d868      	bhi.n	8001e04 <HAL_RCC_OscConfig+0x254>
 8001d32:	6f33      	ldr	r3, [r6, #112]	; 0x70
 8001d34:	079b      	lsls	r3, r3, #30
 8001d36:	d5f6      	bpl.n	8001d26 <HAL_RCC_OscConfig+0x176>
 8001d38:	b125      	cbz	r5, 8001d44 <HAL_RCC_OscConfig+0x194>
 8001d3a:	4a4e      	ldr	r2, [pc, #312]	; (8001e74 <HAL_RCC_OscConfig+0x2c4>)
 8001d3c:	6c13      	ldr	r3, [r2, #64]	; 0x40
 8001d3e:	f023 5380 	bic.w	r3, r3, #268435456	; 0x10000000
 8001d42:	6413      	str	r3, [r2, #64]	; 0x40
 8001d44:	69a3      	ldr	r3, [r4, #24]
 8001d46:	b1cb      	cbz	r3, 8001d7c <HAL_RCC_OscConfig+0x1cc>
 8001d48:	4a4a      	ldr	r2, [pc, #296]	; (8001e74 <HAL_RCC_OscConfig+0x2c4>)
 8001d4a:	6891      	ldr	r1, [r2, #8]
 8001d4c:	f001 010c 	and.w	r1, r1, #12
 8001d50:	2908      	cmp	r1, #8
 8001d52:	d021      	beq.n	8001d98 <HAL_RCC_OscConfig+0x1e8>
 8001d54:	2b02      	cmp	r3, #2
 8001d56:	6813      	ldr	r3, [r2, #0]
 8001d58:	f000 80c0 	beq.w	8001edc <HAL_RCC_OscConfig+0x32c>
 8001d5c:	f023 7380 	bic.w	r3, r3, #16777216	; 0x1000000
 8001d60:	4614      	mov	r4, r2
 8001d62:	6013      	str	r3, [r2, #0]
 8001d64:	f7ff f886 	bl	8000e74 <HAL_GetTick>
 8001d68:	4605      	mov	r5, r0
 8001d6a:	e004      	b.n	8001d76 <HAL_RCC_OscConfig+0x1c6>
 8001d6c:	f7ff f882 	bl	8000e74 <HAL_GetTick>
 8001d70:	1b40      	subs	r0, r0, r5
 8001d72:	2802      	cmp	r0, #2
 8001d74:	d846      	bhi.n	8001e04 <HAL_RCC_OscConfig+0x254>
 8001d76:	6823      	ldr	r3, [r4, #0]
 8001d78:	019b      	lsls	r3, r3, #6
 8001d7a:	d4f7      	bmi.n	8001d6c <HAL_RCC_OscConfig+0x1bc>
 8001d7c:	2000      	movs	r0, #0
 8001d7e:	b002      	add	sp, #8
 8001d80:	e8bd 81f0 	ldmia.w	sp!, {r4, r5, r6, r7, r8, pc}
 8001d84:	6852      	ldr	r2, [r2, #4]
 8001d86:	0256      	lsls	r6, r2, #9
 8001d88:	d4a1      	bmi.n	8001cce <HAL_RCC_OscConfig+0x11e>
 8001d8a:	4a3a      	ldr	r2, [pc, #232]	; (8001e74 <HAL_RCC_OscConfig+0x2c4>)
 8001d8c:	6812      	ldr	r2, [r2, #0]
 8001d8e:	0795      	lsls	r5, r2, #30
 8001d90:	d53c      	bpl.n	8001e0c <HAL_RCC_OscConfig+0x25c>
 8001d92:	68e2      	ldr	r2, [r4, #12]
 8001d94:	2a01      	cmp	r2, #1
 8001d96:	d039      	beq.n	8001e0c <HAL_RCC_OscConfig+0x25c>
 8001d98:	2001      	movs	r0, #1
 8001d9a:	b002      	add	sp, #8
 8001d9c:	e8bd 81f0 	ldmia.w	sp!, {r4, r5, r6, r7, r8, pc}
 8001da0:	4b34      	ldr	r3, [pc, #208]	; (8001e74 <HAL_RCC_OscConfig+0x2c4>)
 8001da2:	6f5a      	ldr	r2, [r3, #116]	; 0x74
 8001da4:	461d      	mov	r5, r3
 8001da6:	f022 0201 	bic.w	r2, r2, #1
 8001daa:	675a      	str	r2, [r3, #116]	; 0x74
 8001dac:	f7ff f862 	bl	8000e74 <HAL_GetTick>
 8001db0:	4606      	mov	r6, r0
 8001db2:	e004      	b.n	8001dbe <HAL_RCC_OscConfig+0x20e>
 8001db4:	f7ff f85e 	bl	8000e74 <HAL_GetTick>
 8001db8:	1b80      	subs	r0, r0, r6
 8001dba:	2802      	cmp	r0, #2
 8001dbc:	d822      	bhi.n	8001e04 <HAL_RCC_OscConfig+0x254>
 8001dbe:	6f6b      	ldr	r3, [r5, #116]	; 0x74
 8001dc0:	079f      	lsls	r7, r3, #30
 8001dc2:	d4f7      	bmi.n	8001db4 <HAL_RCC_OscConfig+0x204>
 8001dc4:	e74f      	b.n	8001c66 <HAL_RCC_OscConfig+0xb6>
 8001dc6:	684a      	ldr	r2, [r1, #4]
 8001dc8:	0250      	lsls	r0, r2, #9
 8001dca:	f57f af08 	bpl.w	8001bde <HAL_RCC_OscConfig+0x2e>
 8001dce:	4a29      	ldr	r2, [pc, #164]	; (8001e74 <HAL_RCC_OscConfig+0x2c4>)
 8001dd0:	6812      	ldr	r2, [r2, #0]
 8001dd2:	0391      	lsls	r1, r2, #14
 8001dd4:	f57f af2c 	bpl.w	8001c30 <HAL_RCC_OscConfig+0x80>
 8001dd8:	6862      	ldr	r2, [r4, #4]
 8001dda:	2a00      	cmp	r2, #0
 8001ddc:	f47f af28 	bne.w	8001c30 <HAL_RCC_OscConfig+0x80>
 8001de0:	e7da      	b.n	8001d98 <HAL_RCC_OscConfig+0x1e8>
 8001de2:	681a      	ldr	r2, [r3, #0]
 8001de4:	461e      	mov	r6, r3
 8001de6:	f442 7280 	orr.w	r2, r2, #256	; 0x100
 8001dea:	601a      	str	r2, [r3, #0]
 8001dec:	f7ff f842 	bl	8000e74 <HAL_GetTick>
 8001df0:	4607      	mov	r7, r0
 8001df2:	6833      	ldr	r3, [r6, #0]
 8001df4:	05da      	lsls	r2, r3, #23
 8001df6:	f53f af4d 	bmi.w	8001c94 <HAL_RCC_OscConfig+0xe4>
 8001dfa:	f7ff f83b 	bl	8000e74 <HAL_GetTick>
 8001dfe:	1bc0      	subs	r0, r0, r7
 8001e00:	2864      	cmp	r0, #100	; 0x64
 8001e02:	d9f6      	bls.n	8001df2 <HAL_RCC_OscConfig+0x242>
 8001e04:	2003      	movs	r0, #3
 8001e06:	b002      	add	sp, #8
 8001e08:	e8bd 81f0 	ldmia.w	sp!, {r4, r5, r6, r7, r8, pc}
 8001e0c:	4919      	ldr	r1, [pc, #100]	; (8001e74 <HAL_RCC_OscConfig+0x2c4>)
 8001e0e:	6920      	ldr	r0, [r4, #16]
 8001e10:	680a      	ldr	r2, [r1, #0]
 8001e12:	f022 02f8 	bic.w	r2, r2, #248	; 0xf8
 8001e16:	ea42 02c0 	orr.w	r2, r2, r0, lsl #3
 8001e1a:	600a      	str	r2, [r1, #0]
 8001e1c:	e70a      	b.n	8001c34 <HAL_RCC_OscConfig+0x84>
 8001e1e:	2001      	movs	r0, #1
 8001e20:	4770      	bx	lr
 8001e22:	4b14      	ldr	r3, [pc, #80]	; (8001e74 <HAL_RCC_OscConfig+0x2c4>)
 8001e24:	681a      	ldr	r2, [r3, #0]
 8001e26:	461d      	mov	r5, r3
 8001e28:	f422 3280 	bic.w	r2, r2, #65536	; 0x10000
 8001e2c:	601a      	str	r2, [r3, #0]
 8001e2e:	681a      	ldr	r2, [r3, #0]
 8001e30:	f422 2280 	bic.w	r2, r2, #262144	; 0x40000
 8001e34:	601a      	str	r2, [r3, #0]
 8001e36:	f7ff f81d 	bl	8000e74 <HAL_GetTick>
 8001e3a:	4606      	mov	r6, r0
 8001e3c:	e004      	b.n	8001e48 <HAL_RCC_OscConfig+0x298>
 8001e3e:	f7ff f819 	bl	8000e74 <HAL_GetTick>
 8001e42:	1b80      	subs	r0, r0, r6
 8001e44:	2864      	cmp	r0, #100	; 0x64
 8001e46:	d8dd      	bhi.n	8001e04 <HAL_RCC_OscConfig+0x254>
 8001e48:	682b      	ldr	r3, [r5, #0]
 8001e4a:	039b      	lsls	r3, r3, #14
 8001e4c:	d4f7      	bmi.n	8001e3e <HAL_RCC_OscConfig+0x28e>
 8001e4e:	e6ee      	b.n	8001c2e <HAL_RCC_OscConfig+0x7e>
 8001e50:	2500      	movs	r5, #0
 8001e52:	e71a      	b.n	8001c8a <HAL_RCC_OscConfig+0xda>
 8001e54:	4b07      	ldr	r3, [pc, #28]	; (8001e74 <HAL_RCC_OscConfig+0x2c4>)
 8001e56:	f241 3888 	movw	r8, #5000	; 0x1388
 8001e5a:	6f1a      	ldr	r2, [r3, #112]	; 0x70
 8001e5c:	461e      	mov	r6, r3
 8001e5e:	f022 0201 	bic.w	r2, r2, #1
 8001e62:	671a      	str	r2, [r3, #112]	; 0x70
 8001e64:	6f1a      	ldr	r2, [r3, #112]	; 0x70
 8001e66:	f022 0204 	bic.w	r2, r2, #4
 8001e6a:	671a      	str	r2, [r3, #112]	; 0x70
 8001e6c:	f7ff f802 	bl	8000e74 <HAL_GetTick>
 8001e70:	4607      	mov	r7, r0
 8001e72:	e008      	b.n	8001e86 <HAL_RCC_OscConfig+0x2d6>
 8001e74:	40023800 	.word	0x40023800
 8001e78:	40007000 	.word	0x40007000
 8001e7c:	f7fe fffa 	bl	8000e74 <HAL_GetTick>
 8001e80:	1bc0      	subs	r0, r0, r7
 8001e82:	4540      	cmp	r0, r8
 8001e84:	d8be      	bhi.n	8001e04 <HAL_RCC_OscConfig+0x254>
 8001e86:	6f33      	ldr	r3, [r6, #112]	; 0x70
 8001e88:	0798      	lsls	r0, r3, #30
 8001e8a:	d4f7      	bmi.n	8001e7c <HAL_RCC_OscConfig+0x2cc>
 8001e8c:	2d00      	cmp	r5, #0
 8001e8e:	f43f af59 	beq.w	8001d44 <HAL_RCC_OscConfig+0x194>
 8001e92:	e752      	b.n	8001d3a <HAL_RCC_OscConfig+0x18a>
 8001e94:	4b2b      	ldr	r3, [pc, #172]	; (8001f44 <HAL_RCC_OscConfig+0x394>)
 8001e96:	681a      	ldr	r2, [r3, #0]
 8001e98:	461d      	mov	r5, r3
 8001e9a:	f022 0201 	bic.w	r2, r2, #1
 8001e9e:	601a      	str	r2, [r3, #0]
 8001ea0:	f7fe ffe8 	bl	8000e74 <HAL_GetTick>
 8001ea4:	4606      	mov	r6, r0
 8001ea6:	e004      	b.n	8001eb2 <HAL_RCC_OscConfig+0x302>
 8001ea8:	f7fe ffe4 	bl	8000e74 <HAL_GetTick>
 8001eac:	1b80      	subs	r0, r0, r6
 8001eae:	2802      	cmp	r0, #2
 8001eb0:	d8a8      	bhi.n	8001e04 <HAL_RCC_OscConfig+0x254>
 8001eb2:	682b      	ldr	r3, [r5, #0]
 8001eb4:	0799      	lsls	r1, r3, #30
 8001eb6:	d4f7      	bmi.n	8001ea8 <HAL_RCC_OscConfig+0x2f8>
 8001eb8:	6823      	ldr	r3, [r4, #0]
 8001eba:	e6bb      	b.n	8001c34 <HAL_RCC_OscConfig+0x84>
 8001ebc:	f442 2280 	orr.w	r2, r2, #262144	; 0x40000
 8001ec0:	601a      	str	r2, [r3, #0]
 8001ec2:	681a      	ldr	r2, [r3, #0]
 8001ec4:	f442 3280 	orr.w	r2, r2, #65536	; 0x10000
 8001ec8:	601a      	str	r2, [r3, #0]
 8001eca:	e6a2      	b.n	8001c12 <HAL_RCC_OscConfig+0x62>
 8001ecc:	f042 0204 	orr.w	r2, r2, #4
 8001ed0:	671a      	str	r2, [r3, #112]	; 0x70
 8001ed2:	6f1a      	ldr	r2, [r3, #112]	; 0x70
 8001ed4:	f042 0201 	orr.w	r2, r2, #1
 8001ed8:	671a      	str	r2, [r3, #112]	; 0x70
 8001eda:	e71d      	b.n	8001d18 <HAL_RCC_OscConfig+0x168>
 8001edc:	f023 7380 	bic.w	r3, r3, #16777216	; 0x1000000
 8001ee0:	4615      	mov	r5, r2
 8001ee2:	6013      	str	r3, [r2, #0]
 8001ee4:	f7fe ffc6 	bl	8000e74 <HAL_GetTick>
 8001ee8:	4606      	mov	r6, r0
 8001eea:	e004      	b.n	8001ef6 <HAL_RCC_OscConfig+0x346>
 8001eec:	f7fe ffc2 	bl	8000e74 <HAL_GetTick>
 8001ef0:	1b80      	subs	r0, r0, r6
 8001ef2:	2802      	cmp	r0, #2
 8001ef4:	d886      	bhi.n	8001e04 <HAL_RCC_OscConfig+0x254>
 8001ef6:	682b      	ldr	r3, [r5, #0]
 8001ef8:	0199      	lsls	r1, r3, #6
 8001efa:	d4f7      	bmi.n	8001eec <HAL_RCC_OscConfig+0x33c>
 8001efc:	e9d4 3207 	ldrd	r3, r2, [r4, #28]
 8001f00:	6a60      	ldr	r0, [r4, #36]	; 0x24
 8001f02:	4313      	orrs	r3, r2
 8001f04:	e9d4 210a 	ldrd	r2, r1, [r4, #40]	; 0x28
 8001f08:	f043 5300 	orr.w	r3, r3, #536870912	; 0x20000000
 8001f0c:	4c0d      	ldr	r4, [pc, #52]	; (8001f44 <HAL_RCC_OscConfig+0x394>)
 8001f0e:	0852      	lsrs	r2, r2, #1
 8001f10:	ea43 1380 	orr.w	r3, r3, r0, lsl #6
 8001f14:	3a01      	subs	r2, #1
 8001f16:	ea43 6301 	orr.w	r3, r3, r1, lsl #24
 8001f1a:	ea43 4302 	orr.w	r3, r3, r2, lsl #16
 8001f1e:	606b      	str	r3, [r5, #4]
 8001f20:	682b      	ldr	r3, [r5, #0]
 8001f22:	f043 7380 	orr.w	r3, r3, #16777216	; 0x1000000
 8001f26:	602b      	str	r3, [r5, #0]
 8001f28:	f7fe ffa4 	bl	8000e74 <HAL_GetTick>
 8001f2c:	4605      	mov	r5, r0
 8001f2e:	e005      	b.n	8001f3c <HAL_RCC_OscConfig+0x38c>
 8001f30:	f7fe ffa0 	bl	8000e74 <HAL_GetTick>
 8001f34:	1b40      	subs	r0, r0, r5
 8001f36:	2802      	cmp	r0, #2
 8001f38:	f63f af64 	bhi.w	8001e04 <HAL_RCC_OscConfig+0x254>
 8001f3c:	6823      	ldr	r3, [r4, #0]
 8001f3e:	019a      	lsls	r2, r3, #6
 8001f40:	d5f6      	bpl.n	8001f30 <HAL_RCC_OscConfig+0x380>
 8001f42:	e71b      	b.n	8001d7c <HAL_RCC_OscConfig+0x1cc>
 8001f44:	40023800 	.word	0x40023800

08001f48 <HAL_RCC_ClockConfig>:
 8001f48:	b178      	cbz	r0, 8001f6a <HAL_RCC_ClockConfig+0x22>
 8001f4a:	4a5e      	ldr	r2, [pc, #376]	; (80020c4 <HAL_RCC_ClockConfig+0x17c>)
 8001f4c:	6813      	ldr	r3, [r2, #0]
 8001f4e:	f003 030f 	and.w	r3, r3, #15
 8001f52:	428b      	cmp	r3, r1
 8001f54:	d20b      	bcs.n	8001f6e <HAL_RCC_ClockConfig+0x26>
 8001f56:	6813      	ldr	r3, [r2, #0]
 8001f58:	f023 030f 	bic.w	r3, r3, #15
 8001f5c:	430b      	orrs	r3, r1
 8001f5e:	6013      	str	r3, [r2, #0]
 8001f60:	6813      	ldr	r3, [r2, #0]
 8001f62:	f003 030f 	and.w	r3, r3, #15
 8001f66:	428b      	cmp	r3, r1
 8001f68:	d001      	beq.n	8001f6e <HAL_RCC_ClockConfig+0x26>
 8001f6a:	2001      	movs	r0, #1
 8001f6c:	4770      	bx	lr
 8001f6e:	6803      	ldr	r3, [r0, #0]
 8001f70:	e92d 41f0 	stmdb	sp!, {r4, r5, r6, r7, r8, lr}
 8001f74:	079d      	lsls	r5, r3, #30
 8001f76:	d514      	bpl.n	8001fa2 <HAL_RCC_ClockConfig+0x5a>
 8001f78:	075c      	lsls	r4, r3, #29
 8001f7a:	d504      	bpl.n	8001f86 <HAL_RCC_ClockConfig+0x3e>
 8001f7c:	4c52      	ldr	r4, [pc, #328]	; (80020c8 <HAL_RCC_ClockConfig+0x180>)
 8001f7e:	68a2      	ldr	r2, [r4, #8]
 8001f80:	f442 52e0 	orr.w	r2, r2, #7168	; 0x1c00
 8001f84:	60a2      	str	r2, [r4, #8]
 8001f86:	071a      	lsls	r2, r3, #28
 8001f88:	d504      	bpl.n	8001f94 <HAL_RCC_ClockConfig+0x4c>
 8001f8a:	4c4f      	ldr	r4, [pc, #316]	; (80020c8 <HAL_RCC_ClockConfig+0x180>)
 8001f8c:	68a2      	ldr	r2, [r4, #8]
 8001f8e:	f442 4260 	orr.w	r2, r2, #57344	; 0xe000
 8001f92:	60a2      	str	r2, [r4, #8]
 8001f94:	4c4c      	ldr	r4, [pc, #304]	; (80020c8 <HAL_RCC_ClockConfig+0x180>)
 8001f96:	6885      	ldr	r5, [r0, #8]
 8001f98:	68a2      	ldr	r2, [r4, #8]
 8001f9a:	f022 02f0 	bic.w	r2, r2, #240	; 0xf0
 8001f9e:	432a      	orrs	r2, r5
 8001fa0:	60a2      	str	r2, [r4, #8]
 8001fa2:	07df      	lsls	r7, r3, #31
 8001fa4:	4604      	mov	r4, r0
 8001fa6:	460d      	mov	r5, r1
 8001fa8:	d521      	bpl.n	8001fee <HAL_RCC_ClockConfig+0xa6>
 8001faa:	6842      	ldr	r2, [r0, #4]
 8001fac:	4b46      	ldr	r3, [pc, #280]	; (80020c8 <HAL_RCC_ClockConfig+0x180>)
 8001fae:	2a01      	cmp	r2, #1
 8001fb0:	681b      	ldr	r3, [r3, #0]
 8001fb2:	d063      	beq.n	800207c <HAL_RCC_ClockConfig+0x134>
 8001fb4:	2a02      	cmp	r2, #2
 8001fb6:	d078      	beq.n	80020aa <HAL_RCC_ClockConfig+0x162>
 8001fb8:	0799      	lsls	r1, r3, #30
 8001fba:	d528      	bpl.n	800200e <HAL_RCC_ClockConfig+0xc6>
 8001fbc:	4942      	ldr	r1, [pc, #264]	; (80020c8 <HAL_RCC_ClockConfig+0x180>)
 8001fbe:	f241 3888 	movw	r8, #5000	; 0x1388
 8001fc2:	688b      	ldr	r3, [r1, #8]
 8001fc4:	460e      	mov	r6, r1
 8001fc6:	f023 0303 	bic.w	r3, r3, #3
 8001fca:	4313      	orrs	r3, r2
 8001fcc:	608b      	str	r3, [r1, #8]
 8001fce:	f7fe ff51 	bl	8000e74 <HAL_GetTick>
 8001fd2:	4607      	mov	r7, r0
 8001fd4:	e004      	b.n	8001fe0 <HAL_RCC_ClockConfig+0x98>
 8001fd6:	f7fe ff4d 	bl	8000e74 <HAL_GetTick>
 8001fda:	1bc0      	subs	r0, r0, r7
 8001fdc:	4540      	cmp	r0, r8
 8001fde:	d862      	bhi.n	80020a6 <HAL_RCC_ClockConfig+0x15e>
 8001fe0:	68b3      	ldr	r3, [r6, #8]
 8001fe2:	6862      	ldr	r2, [r4, #4]
 8001fe4:	f003 030c 	and.w	r3, r3, #12
 8001fe8:	ebb3 0f82 	cmp.w	r3, r2, lsl #2
 8001fec:	d1f3      	bne.n	8001fd6 <HAL_RCC_ClockConfig+0x8e>
 8001fee:	4a35      	ldr	r2, [pc, #212]	; (80020c4 <HAL_RCC_ClockConfig+0x17c>)
 8001ff0:	6813      	ldr	r3, [r2, #0]
 8001ff2:	f003 030f 	and.w	r3, r3, #15
 8001ff6:	42ab      	cmp	r3, r5
 8001ff8:	d90c      	bls.n	8002014 <HAL_RCC_ClockConfig+0xcc>
 8001ffa:	6813      	ldr	r3, [r2, #0]
 8001ffc:	f023 030f 	bic.w	r3, r3, #15
 8002000:	432b      	orrs	r3, r5
 8002002:	6013      	str	r3, [r2, #0]
 8002004:	6813      	ldr	r3, [r2, #0]
 8002006:	f003 030f 	and.w	r3, r3, #15
 800200a:	42ab      	cmp	r3, r5
 800200c:	d002      	beq.n	8002014 <HAL_RCC_ClockConfig+0xcc>
 800200e:	2001      	movs	r0, #1
 8002010:	e8bd 81f0 	ldmia.w	sp!, {r4, r5, r6, r7, r8, pc}
 8002014:	6823      	ldr	r3, [r4, #0]
 8002016:	075a      	lsls	r2, r3, #29
 8002018:	d506      	bpl.n	8002028 <HAL_RCC_ClockConfig+0xe0>
 800201a:	492b      	ldr	r1, [pc, #172]	; (80020c8 <HAL_RCC_ClockConfig+0x180>)
 800201c:	68e0      	ldr	r0, [r4, #12]
 800201e:	688a      	ldr	r2, [r1, #8]
 8002020:	f422 52e0 	bic.w	r2, r2, #7168	; 0x1c00
 8002024:	4302      	orrs	r2, r0
 8002026:	608a      	str	r2, [r1, #8]
 8002028:	071b      	lsls	r3, r3, #28
 800202a:	d507      	bpl.n	800203c <HAL_RCC_ClockConfig+0xf4>
 800202c:	4a26      	ldr	r2, [pc, #152]	; (80020c8 <HAL_RCC_ClockConfig+0x180>)
 800202e:	6921      	ldr	r1, [r4, #16]
 8002030:	6893      	ldr	r3, [r2, #8]
 8002032:	f423 4360 	bic.w	r3, r3, #57344	; 0xe000
 8002036:	ea43 03c1 	orr.w	r3, r3, r1, lsl #3
 800203a:	6093      	str	r3, [r2, #8]
 800203c:	4922      	ldr	r1, [pc, #136]	; (80020c8 <HAL_RCC_ClockConfig+0x180>)
 800203e:	688b      	ldr	r3, [r1, #8]
 8002040:	f003 030c 	and.w	r3, r3, #12
 8002044:	2b04      	cmp	r3, #4
 8002046:	d01c      	beq.n	8002082 <HAL_RCC_ClockConfig+0x13a>
 8002048:	2b08      	cmp	r3, #8
 800204a:	d12a      	bne.n	80020a2 <HAL_RCC_ClockConfig+0x15a>
 800204c:	684a      	ldr	r2, [r1, #4]
 800204e:	684b      	ldr	r3, [r1, #4]
 8002050:	f002 023f 	and.w	r2, r2, #63	; 0x3f
 8002054:	6849      	ldr	r1, [r1, #4]
 8002056:	f413 0380 	ands.w	r3, r3, #4194304	; 0x400000
 800205a:	d129      	bne.n	80020b0 <HAL_RCC_ClockConfig+0x168>
 800205c:	481b      	ldr	r0, [pc, #108]	; (80020cc <HAL_RCC_ClockConfig+0x184>)
 800205e:	f3c1 1188 	ubfx	r1, r1, #6, #9
 8002062:	fba1 0100 	umull	r0, r1, r1, r0
 8002066:	f7fe fd49 	bl	8000afc <__aeabi_uldivmod>
 800206a:	4b17      	ldr	r3, [pc, #92]	; (80020c8 <HAL_RCC_ClockConfig+0x180>)
 800206c:	685b      	ldr	r3, [r3, #4]
 800206e:	f3c3 4301 	ubfx	r3, r3, #16, #2
 8002072:	3301      	adds	r3, #1
 8002074:	005b      	lsls	r3, r3, #1
 8002076:	fbb0 f3f3 	udiv	r3, r0, r3
 800207a:	e003      	b.n	8002084 <HAL_RCC_ClockConfig+0x13c>
 800207c:	039e      	lsls	r6, r3, #14
 800207e:	d49d      	bmi.n	8001fbc <HAL_RCC_ClockConfig+0x74>
 8002080:	e7c5      	b.n	800200e <HAL_RCC_ClockConfig+0xc6>
 8002082:	4b13      	ldr	r3, [pc, #76]	; (80020d0 <HAL_RCC_ClockConfig+0x188>)
 8002084:	4a10      	ldr	r2, [pc, #64]	; (80020c8 <HAL_RCC_ClockConfig+0x180>)
 8002086:	2000      	movs	r0, #0
 8002088:	4c12      	ldr	r4, [pc, #72]	; (80020d4 <HAL_RCC_ClockConfig+0x18c>)
 800208a:	6892      	ldr	r2, [r2, #8]
 800208c:	4912      	ldr	r1, [pc, #72]	; (80020d8 <HAL_RCC_ClockConfig+0x190>)
 800208e:	f3c2 1203 	ubfx	r2, r2, #4, #4
 8002092:	5ca2      	ldrb	r2, [r4, r2]
 8002094:	40d3      	lsrs	r3, r2
 8002096:	600b      	str	r3, [r1, #0]
 8002098:	f7fe feb0 	bl	8000dfc <HAL_InitTick>
 800209c:	2000      	movs	r0, #0
 800209e:	e8bd 81f0 	ldmia.w	sp!, {r4, r5, r6, r7, r8, pc}
 80020a2:	4b0a      	ldr	r3, [pc, #40]	; (80020cc <HAL_RCC_ClockConfig+0x184>)
 80020a4:	e7ee      	b.n	8002084 <HAL_RCC_ClockConfig+0x13c>
 80020a6:	2003      	movs	r0, #3
 80020a8:	e7b2      	b.n	8002010 <HAL_RCC_ClockConfig+0xc8>
 80020aa:	0198      	lsls	r0, r3, #6
 80020ac:	d486      	bmi.n	8001fbc <HAL_RCC_ClockConfig+0x74>
 80020ae:	e7ae      	b.n	800200e <HAL_RCC_ClockConfig+0xc6>
 80020b0:	4807      	ldr	r0, [pc, #28]	; (80020d0 <HAL_RCC_ClockConfig+0x188>)
 80020b2:	f3c1 1188 	ubfx	r1, r1, #6, #9
 80020b6:	2300      	movs	r3, #0
 80020b8:	fba1 0100 	umull	r0, r1, r1, r0
 80020bc:	f7fe fd1e 	bl	8000afc <__aeabi_uldivmod>
 80020c0:	e7d3      	b.n	800206a <HAL_RCC_ClockConfig+0x122>
 80020c2:	bf00      	nop
 80020c4:	40023c00 	.word	0x40023c00
 80020c8:	40023800 	.word	0x40023800
 80020cc:	00f42400 	.word	0x00f42400
 80020d0:	007a1200 	.word	0x007a1200
 80020d4:	08006da8 	.word	0x08006da8
 80020d8:	20000110 	.word	0x20000110

080020dc <HAL_RCC_GetSysClockFreq>:
 80020dc:	4916      	ldr	r1, [pc, #88]	; (8002138 <HAL_RCC_GetSysClockFreq+0x5c>)
 80020de:	b508      	push	{r3, lr}
 80020e0:	688b      	ldr	r3, [r1, #8]
 80020e2:	f003 030c 	and.w	r3, r3, #12
 80020e6:	2b04      	cmp	r3, #4
 80020e8:	d01b      	beq.n	8002122 <HAL_RCC_GetSysClockFreq+0x46>
 80020ea:	2b08      	cmp	r3, #8
 80020ec:	d117      	bne.n	800211e <HAL_RCC_GetSysClockFreq+0x42>
 80020ee:	684a      	ldr	r2, [r1, #4]
 80020f0:	684b      	ldr	r3, [r1, #4]
 80020f2:	f002 023f 	and.w	r2, r2, #63	; 0x3f
 80020f6:	6849      	ldr	r1, [r1, #4]
 80020f8:	f413 0380 	ands.w	r3, r3, #4194304	; 0x400000
 80020fc:	d113      	bne.n	8002126 <HAL_RCC_GetSysClockFreq+0x4a>
 80020fe:	480f      	ldr	r0, [pc, #60]	; (800213c <HAL_RCC_GetSysClockFreq+0x60>)
 8002100:	f3c1 1188 	ubfx	r1, r1, #6, #9
 8002104:	fba1 0100 	umull	r0, r1, r1, r0
 8002108:	f7fe fcf8 	bl	8000afc <__aeabi_uldivmod>
 800210c:	4b0a      	ldr	r3, [pc, #40]	; (8002138 <HAL_RCC_GetSysClockFreq+0x5c>)
 800210e:	685b      	ldr	r3, [r3, #4]
 8002110:	f3c3 4301 	ubfx	r3, r3, #16, #2
 8002114:	3301      	adds	r3, #1
 8002116:	005b      	lsls	r3, r3, #1
 8002118:	fbb0 f0f3 	udiv	r0, r0, r3
 800211c:	bd08      	pop	{r3, pc}
 800211e:	4807      	ldr	r0, [pc, #28]	; (800213c <HAL_RCC_GetSysClockFreq+0x60>)
 8002120:	bd08      	pop	{r3, pc}
 8002122:	4807      	ldr	r0, [pc, #28]	; (8002140 <HAL_RCC_GetSysClockFreq+0x64>)
 8002124:	bd08      	pop	{r3, pc}
 8002126:	4806      	ldr	r0, [pc, #24]	; (8002140 <HAL_RCC_GetSysClockFreq+0x64>)
 8002128:	f3c1 1188 	ubfx	r1, r1, #6, #9
 800212c:	2300      	movs	r3, #0
 800212e:	fba1 0100 	umull	r0, r1, r1, r0
 8002132:	f7fe fce3 	bl	8000afc <__aeabi_uldivmod>
 8002136:	e7e9      	b.n	800210c <HAL_RCC_GetSysClockFreq+0x30>
 8002138:	40023800 	.word	0x40023800
 800213c:	00f42400 	.word	0x00f42400
 8002140:	007a1200 	.word	0x007a1200

08002144 <HAL_RCC_GetPCLK1Freq>:
 8002144:	4b04      	ldr	r3, [pc, #16]	; (8002158 <HAL_RCC_GetPCLK1Freq+0x14>)
 8002146:	4a05      	ldr	r2, [pc, #20]	; (800215c <HAL_RCC_GetPCLK1Freq+0x18>)
 8002148:	689b      	ldr	r3, [r3, #8]
 800214a:	4905      	ldr	r1, [pc, #20]	; (8002160 <HAL_RCC_GetPCLK1Freq+0x1c>)
 800214c:	f3c3 2382 	ubfx	r3, r3, #10, #3
 8002150:	6808      	ldr	r0, [r1, #0]
 8002152:	5cd3      	ldrb	r3, [r2, r3]
 8002154:	40d8      	lsrs	r0, r3
 8002156:	4770      	bx	lr
 8002158:	40023800 	.word	0x40023800
 800215c:	08006db8 	.word	0x08006db8
 8002160:	20000110 	.word	0x20000110

08002164 <HAL_RCC_GetPCLK2Freq>:
 8002164:	4b04      	ldr	r3, [pc, #16]	; (8002178 <HAL_RCC_GetPCLK2Freq+0x14>)
 8002166:	4a05      	ldr	r2, [pc, #20]	; (800217c <HAL_RCC_GetPCLK2Freq+0x18>)
 8002168:	689b      	ldr	r3, [r3, #8]
 800216a:	4905      	ldr	r1, [pc, #20]	; (8002180 <HAL_RCC_GetPCLK2Freq+0x1c>)
 800216c:	f3c3 3342 	ubfx	r3, r3, #13, #3
 8002170:	6808      	ldr	r0, [r1, #0]
 8002172:	5cd3      	ldrb	r3, [r2, r3]
 8002174:	40d8      	lsrs	r0, r3
 8002176:	4770      	bx	lr
 8002178:	40023800 	.word	0x40023800
 800217c:	08006db8 	.word	0x08006db8
 8002180:	20000110 	.word	0x20000110

08002184 <HAL_RCCEx_PeriphCLKConfig>:
 8002184:	6803      	ldr	r3, [r0, #0]
 8002186:	e92d 43f0 	stmdb	sp!, {r4, r5, r6, r7, r8, r9, lr}
 800218a:	f013 0601 	ands.w	r6, r3, #1
 800218e:	b083      	sub	sp, #12
 8002190:	4604      	mov	r4, r0
 8002192:	d00b      	beq.n	80021ac <HAL_RCCEx_PeriphCLKConfig+0x28>
 8002194:	4ab1      	ldr	r2, [pc, #708]	; (800245c <HAL_RCCEx_PeriphCLKConfig+0x2d8>)
 8002196:	6891      	ldr	r1, [r2, #8]
 8002198:	f421 0100 	bic.w	r1, r1, #8388608	; 0x800000
 800219c:	6091      	str	r1, [r2, #8]
 800219e:	6ac6      	ldr	r6, [r0, #44]	; 0x2c
 80021a0:	6891      	ldr	r1, [r2, #8]
 80021a2:	4331      	orrs	r1, r6
 80021a4:	fab6 f686 	clz	r6, r6
 80021a8:	0976      	lsrs	r6, r6, #5
 80021aa:	6091      	str	r1, [r2, #8]
 80021ac:	f413 2500 	ands.w	r5, r3, #524288	; 0x80000
 80021b0:	d010      	beq.n	80021d4 <HAL_RCCEx_PeriphCLKConfig+0x50>
 80021b2:	49aa      	ldr	r1, [pc, #680]	; (800245c <HAL_RCCEx_PeriphCLKConfig+0x2d8>)
 80021b4:	6b65      	ldr	r5, [r4, #52]	; 0x34
 80021b6:	f8d1 208c 	ldr.w	r2, [r1, #140]	; 0x8c
 80021ba:	f5b5 1f80 	cmp.w	r5, #1048576	; 0x100000
 80021be:	f422 1240 	bic.w	r2, r2, #3145728	; 0x300000
 80021c2:	ea42 0205 	orr.w	r2, r2, r5
 80021c6:	f8c1 208c 	str.w	r2, [r1, #140]	; 0x8c
 80021ca:	f000 8181 	beq.w	80024d0 <HAL_RCCEx_PeriphCLKConfig+0x34c>
 80021ce:	fab5 f585 	clz	r5, r5
 80021d2:	096d      	lsrs	r5, r5, #5
 80021d4:	02da      	lsls	r2, r3, #11
 80021d6:	d510      	bpl.n	80021fa <HAL_RCCEx_PeriphCLKConfig+0x76>
 80021d8:	48a0      	ldr	r0, [pc, #640]	; (800245c <HAL_RCCEx_PeriphCLKConfig+0x2d8>)
 80021da:	6ba1      	ldr	r1, [r4, #56]	; 0x38
 80021dc:	f8d0 208c 	ldr.w	r2, [r0, #140]	; 0x8c
 80021e0:	f5b1 0f80 	cmp.w	r1, #4194304	; 0x400000
 80021e4:	f422 0240 	bic.w	r2, r2, #12582912	; 0xc00000
 80021e8:	ea42 0201 	orr.w	r2, r2, r1
 80021ec:	f8c0 208c 	str.w	r2, [r0, #140]	; 0x8c
 80021f0:	f000 816c 	beq.w	80024cc <HAL_RCCEx_PeriphCLKConfig+0x348>
 80021f4:	2900      	cmp	r1, #0
 80021f6:	bf08      	it	eq
 80021f8:	2501      	moveq	r5, #1
 80021fa:	069f      	lsls	r7, r3, #26
 80021fc:	f100 811a 	bmi.w	8002434 <HAL_RCCEx_PeriphCLKConfig+0x2b0>
 8002200:	06df      	lsls	r7, r3, #27
 8002202:	d50c      	bpl.n	800221e <HAL_RCCEx_PeriphCLKConfig+0x9a>
 8002204:	4a95      	ldr	r2, [pc, #596]	; (800245c <HAL_RCCEx_PeriphCLKConfig+0x2d8>)
 8002206:	f8d2 108c 	ldr.w	r1, [r2, #140]	; 0x8c
 800220a:	f021 7180 	bic.w	r1, r1, #16777216	; 0x1000000
 800220e:	f8c2 108c 	str.w	r1, [r2, #140]	; 0x8c
 8002212:	f8d2 108c 	ldr.w	r1, [r2, #140]	; 0x8c
 8002216:	6b20      	ldr	r0, [r4, #48]	; 0x30
 8002218:	4301      	orrs	r1, r0
 800221a:	f8c2 108c 	str.w	r1, [r2, #140]	; 0x8c
 800221e:	0458      	lsls	r0, r3, #17
 8002220:	d508      	bpl.n	8002234 <HAL_RCCEx_PeriphCLKConfig+0xb0>
 8002222:	498e      	ldr	r1, [pc, #568]	; (800245c <HAL_RCCEx_PeriphCLKConfig+0x2d8>)
 8002224:	6de0      	ldr	r0, [r4, #92]	; 0x5c
 8002226:	f8d1 2090 	ldr.w	r2, [r1, #144]	; 0x90
 800222a:	f422 3240 	bic.w	r2, r2, #196608	; 0x30000
 800222e:	4302      	orrs	r2, r0
 8002230:	f8c1 2090 	str.w	r2, [r1, #144]	; 0x90
 8002234:	0419      	lsls	r1, r3, #16
 8002236:	d508      	bpl.n	800224a <HAL_RCCEx_PeriphCLKConfig+0xc6>
 8002238:	4988      	ldr	r1, [pc, #544]	; (800245c <HAL_RCCEx_PeriphCLKConfig+0x2d8>)
 800223a:	6e20      	ldr	r0, [r4, #96]	; 0x60
 800223c:	f8d1 2090 	ldr.w	r2, [r1, #144]	; 0x90
 8002240:	f422 2240 	bic.w	r2, r2, #786432	; 0xc0000
 8002244:	4302      	orrs	r2, r0
 8002246:	f8c1 2090 	str.w	r2, [r1, #144]	; 0x90
 800224a:	03da      	lsls	r2, r3, #15
 800224c:	d508      	bpl.n	8002260 <HAL_RCCEx_PeriphCLKConfig+0xdc>
 800224e:	4983      	ldr	r1, [pc, #524]	; (800245c <HAL_RCCEx_PeriphCLKConfig+0x2d8>)
 8002250:	6e60      	ldr	r0, [r4, #100]	; 0x64
 8002252:	f8d1 2090 	ldr.w	r2, [r1, #144]	; 0x90
 8002256:	f422 1240 	bic.w	r2, r2, #3145728	; 0x300000
 800225a:	4302      	orrs	r2, r0
 800225c:	f8c1 2090 	str.w	r2, [r1, #144]	; 0x90
 8002260:	065f      	lsls	r7, r3, #25
 8002262:	d508      	bpl.n	8002276 <HAL_RCCEx_PeriphCLKConfig+0xf2>
 8002264:	497d      	ldr	r1, [pc, #500]	; (800245c <HAL_RCCEx_PeriphCLKConfig+0x2d8>)
 8002266:	6be0      	ldr	r0, [r4, #60]	; 0x3c
 8002268:	f8d1 2090 	ldr.w	r2, [r1, #144]	; 0x90
 800226c:	f022 0203 	bic.w	r2, r2, #3
 8002270:	4302      	orrs	r2, r0
 8002272:	f8c1 2090 	str.w	r2, [r1, #144]	; 0x90
 8002276:	0618      	lsls	r0, r3, #24
 8002278:	d508      	bpl.n	800228c <HAL_RCCEx_PeriphCLKConfig+0x108>
 800227a:	4978      	ldr	r1, [pc, #480]	; (800245c <HAL_RCCEx_PeriphCLKConfig+0x2d8>)
 800227c:	6c20      	ldr	r0, [r4, #64]	; 0x40
 800227e:	f8d1 2090 	ldr.w	r2, [r1, #144]	; 0x90
 8002282:	f022 020c 	bic.w	r2, r2, #12
 8002286:	4302      	orrs	r2, r0
 8002288:	f8c1 2090 	str.w	r2, [r1, #144]	; 0x90
 800228c:	05d9      	lsls	r1, r3, #23
 800228e:	d508      	bpl.n	80022a2 <HAL_RCCEx_PeriphCLKConfig+0x11e>
 8002290:	4972      	ldr	r1, [pc, #456]	; (800245c <HAL_RCCEx_PeriphCLKConfig+0x2d8>)
 8002292:	6c60      	ldr	r0, [r4, #68]	; 0x44
 8002294:	f8d1 2090 	ldr.w	r2, [r1, #144]	; 0x90
 8002298:	f022 0230 	bic.w	r2, r2, #48	; 0x30
 800229c:	4302      	orrs	r2, r0
 800229e:	f8c1 2090 	str.w	r2, [r1, #144]	; 0x90
 80022a2:	059a      	lsls	r2, r3, #22
 80022a4:	d508      	bpl.n	80022b8 <HAL_RCCEx_PeriphCLKConfig+0x134>
 80022a6:	496d      	ldr	r1, [pc, #436]	; (800245c <HAL_RCCEx_PeriphCLKConfig+0x2d8>)
 80022a8:	6ca0      	ldr	r0, [r4, #72]	; 0x48
 80022aa:	f8d1 2090 	ldr.w	r2, [r1, #144]	; 0x90
 80022ae:	f022 02c0 	bic.w	r2, r2, #192	; 0xc0
 80022b2:	4302      	orrs	r2, r0
 80022b4:	f8c1 2090 	str.w	r2, [r1, #144]	; 0x90
 80022b8:	055f      	lsls	r7, r3, #21
 80022ba:	d508      	bpl.n	80022ce <HAL_RCCEx_PeriphCLKConfig+0x14a>
 80022bc:	4967      	ldr	r1, [pc, #412]	; (800245c <HAL_RCCEx_PeriphCLKConfig+0x2d8>)
 80022be:	6ce0      	ldr	r0, [r4, #76]	; 0x4c
 80022c0:	f8d1 2090 	ldr.w	r2, [r1, #144]	; 0x90
 80022c4:	f422 7240 	bic.w	r2, r2, #768	; 0x300
 80022c8:	4302      	orrs	r2, r0
 80022ca:	f8c1 2090 	str.w	r2, [r1, #144]	; 0x90
 80022ce:	0518      	lsls	r0, r3, #20
 80022d0:	d508      	bpl.n	80022e4 <HAL_RCCEx_PeriphCLKConfig+0x160>
 80022d2:	4962      	ldr	r1, [pc, #392]	; (800245c <HAL_RCCEx_PeriphCLKConfig+0x2d8>)
 80022d4:	6d20      	ldr	r0, [r4, #80]	; 0x50
 80022d6:	f8d1 2090 	ldr.w	r2, [r1, #144]	; 0x90
 80022da:	f422 6240 	bic.w	r2, r2, #3072	; 0xc00
 80022de:	4302      	orrs	r2, r0
 80022e0:	f8c1 2090 	str.w	r2, [r1, #144]	; 0x90
 80022e4:	04d9      	lsls	r1, r3, #19
 80022e6:	d508      	bpl.n	80022fa <HAL_RCCEx_PeriphCLKConfig+0x176>
 80022e8:	495c      	ldr	r1, [pc, #368]	; (800245c <HAL_RCCEx_PeriphCLKConfig+0x2d8>)
 80022ea:	6d60      	ldr	r0, [r4, #84]	; 0x54
 80022ec:	f8d1 2090 	ldr.w	r2, [r1, #144]	; 0x90
 80022f0:	f422 5240 	bic.w	r2, r2, #12288	; 0x3000
 80022f4:	4302      	orrs	r2, r0
 80022f6:	f8c1 2090 	str.w	r2, [r1, #144]	; 0x90
 80022fa:	049a      	lsls	r2, r3, #18
 80022fc:	d508      	bpl.n	8002310 <HAL_RCCEx_PeriphCLKConfig+0x18c>
 80022fe:	4957      	ldr	r1, [pc, #348]	; (800245c <HAL_RCCEx_PeriphCLKConfig+0x2d8>)
 8002300:	6da0      	ldr	r0, [r4, #88]	; 0x58
 8002302:	f8d1 2090 	ldr.w	r2, [r1, #144]	; 0x90
 8002306:	f422 4240 	bic.w	r2, r2, #49152	; 0xc000
 800230a:	4302      	orrs	r2, r0
 800230c:	f8c1 2090 	str.w	r2, [r1, #144]	; 0x90
 8002310:	029f      	lsls	r7, r3, #10
 8002312:	d50c      	bpl.n	800232e <HAL_RCCEx_PeriphCLKConfig+0x1aa>
 8002314:	4951      	ldr	r1, [pc, #324]	; (800245c <HAL_RCCEx_PeriphCLKConfig+0x2d8>)
 8002316:	6f60      	ldr	r0, [r4, #116]	; 0x74
 8002318:	f8d1 2090 	ldr.w	r2, [r1, #144]	; 0x90
 800231c:	f1b0 6f00 	cmp.w	r0, #134217728	; 0x8000000
 8002320:	f022 6200 	bic.w	r2, r2, #134217728	; 0x8000000
 8002324:	bf08      	it	eq
 8002326:	2501      	moveq	r5, #1
 8002328:	4302      	orrs	r2, r0
 800232a:	f8c1 2090 	str.w	r2, [r1, #144]	; 0x90
 800232e:	0358      	lsls	r0, r3, #13
 8002330:	d508      	bpl.n	8002344 <HAL_RCCEx_PeriphCLKConfig+0x1c0>
 8002332:	494a      	ldr	r1, [pc, #296]	; (800245c <HAL_RCCEx_PeriphCLKConfig+0x2d8>)
 8002334:	6ee0      	ldr	r0, [r4, #108]	; 0x6c
 8002336:	f8d1 2090 	ldr.w	r2, [r1, #144]	; 0x90
 800233a:	f022 7240 	bic.w	r2, r2, #50331648	; 0x3000000
 800233e:	4302      	orrs	r2, r0
 8002340:	f8c1 2090 	str.w	r2, [r1, #144]	; 0x90
 8002344:	0219      	lsls	r1, r3, #8
 8002346:	d508      	bpl.n	800235a <HAL_RCCEx_PeriphCLKConfig+0x1d6>
 8002348:	4944      	ldr	r1, [pc, #272]	; (800245c <HAL_RCCEx_PeriphCLKConfig+0x2d8>)
 800234a:	6fa0      	ldr	r0, [r4, #120]	; 0x78
 800234c:	f8d1 2090 	ldr.w	r2, [r1, #144]	; 0x90
 8002350:	f022 5280 	bic.w	r2, r2, #268435456	; 0x10000000
 8002354:	4302      	orrs	r2, r0
 8002356:	f8c1 2090 	str.w	r2, [r1, #144]	; 0x90
 800235a:	015a      	lsls	r2, r3, #5
 800235c:	d40a      	bmi.n	8002374 <HAL_RCCEx_PeriphCLKConfig+0x1f0>
 800235e:	f1b3 7f00 	cmp.w	r3, #33554432	; 0x2000000
 8002362:	d014      	beq.n	800238e <HAL_RCCEx_PeriphCLKConfig+0x20a>
 8002364:	b99e      	cbnz	r6, 800238e <HAL_RCCEx_PeriphCLKConfig+0x20a>
 8002366:	2d01      	cmp	r5, #1
 8002368:	f000 80b5 	beq.w	80024d6 <HAL_RCCEx_PeriphCLKConfig+0x352>
 800236c:	2000      	movs	r0, #0
 800236e:	b003      	add	sp, #12
 8002370:	e8bd 83f0 	ldmia.w	sp!, {r4, r5, r6, r7, r8, r9, pc}
 8002374:	4939      	ldr	r1, [pc, #228]	; (800245c <HAL_RCCEx_PeriphCLKConfig+0x2d8>)
 8002376:	f1b3 7f00 	cmp.w	r3, #33554432	; 0x2000000
 800237a:	6fe0      	ldr	r0, [r4, #124]	; 0x7c
 800237c:	f8d1 2090 	ldr.w	r2, [r1, #144]	; 0x90
 8002380:	f022 5200 	bic.w	r2, r2, #536870912	; 0x20000000
 8002384:	ea42 0200 	orr.w	r2, r2, r0
 8002388:	f8c1 2090 	str.w	r2, [r1, #144]	; 0x90
 800238c:	d1ea      	bne.n	8002364 <HAL_RCCEx_PeriphCLKConfig+0x1e0>
 800238e:	4b33      	ldr	r3, [pc, #204]	; (800245c <HAL_RCCEx_PeriphCLKConfig+0x2d8>)
 8002390:	681a      	ldr	r2, [r3, #0]
 8002392:	461e      	mov	r6, r3
 8002394:	f022 6280 	bic.w	r2, r2, #67108864	; 0x4000000
 8002398:	601a      	str	r2, [r3, #0]
 800239a:	f7fe fd6b 	bl	8000e74 <HAL_GetTick>
 800239e:	4607      	mov	r7, r0
 80023a0:	e004      	b.n	80023ac <HAL_RCCEx_PeriphCLKConfig+0x228>
 80023a2:	f7fe fd67 	bl	8000e74 <HAL_GetTick>
 80023a6:	1bc0      	subs	r0, r0, r7
 80023a8:	2864      	cmp	r0, #100	; 0x64
 80023aa:	d83f      	bhi.n	800242c <HAL_RCCEx_PeriphCLKConfig+0x2a8>
 80023ac:	6833      	ldr	r3, [r6, #0]
 80023ae:	011b      	lsls	r3, r3, #4
 80023b0:	d4f7      	bmi.n	80023a2 <HAL_RCCEx_PeriphCLKConfig+0x21e>
 80023b2:	6823      	ldr	r3, [r4, #0]
 80023b4:	07df      	lsls	r7, r3, #31
 80023b6:	d50d      	bpl.n	80023d4 <HAL_RCCEx_PeriphCLKConfig+0x250>
 80023b8:	6ae2      	ldr	r2, [r4, #44]	; 0x2c
 80023ba:	b95a      	cbnz	r2, 80023d4 <HAL_RCCEx_PeriphCLKConfig+0x250>
 80023bc:	f8d6 1084 	ldr.w	r1, [r6, #132]	; 0x84
 80023c0:	e9d4 0201 	ldrd	r0, r2, [r4, #4]
 80023c4:	f001 6170 	and.w	r1, r1, #251658240	; 0xf000000
 80023c8:	0712      	lsls	r2, r2, #28
 80023ca:	ea42 1280 	orr.w	r2, r2, r0, lsl #6
 80023ce:	430a      	orrs	r2, r1
 80023d0:	f8c6 2084 	str.w	r2, [r6, #132]	; 0x84
 80023d4:	0318      	lsls	r0, r3, #12
 80023d6:	f100 80d5 	bmi.w	8002584 <HAL_RCCEx_PeriphCLKConfig+0x400>
 80023da:	02d9      	lsls	r1, r3, #11
 80023dc:	d504      	bpl.n	80023e8 <HAL_RCCEx_PeriphCLKConfig+0x264>
 80023de:	6ba2      	ldr	r2, [r4, #56]	; 0x38
 80023e0:	f5b2 0f80 	cmp.w	r2, #4194304	; 0x400000
 80023e4:	f000 80d3 	beq.w	800258e <HAL_RCCEx_PeriphCLKConfig+0x40a>
 80023e8:	019a      	lsls	r2, r3, #6
 80023ea:	d50a      	bpl.n	8002402 <HAL_RCCEx_PeriphCLKConfig+0x27e>
 80023ec:	68e3      	ldr	r3, [r4, #12]
 80023ee:	6860      	ldr	r0, [r4, #4]
 80023f0:	061b      	lsls	r3, r3, #24
 80023f2:	68a1      	ldr	r1, [r4, #8]
 80023f4:	4a19      	ldr	r2, [pc, #100]	; (800245c <HAL_RCCEx_PeriphCLKConfig+0x2d8>)
 80023f6:	ea43 1380 	orr.w	r3, r3, r0, lsl #6
 80023fa:	ea43 7301 	orr.w	r3, r3, r1, lsl #28
 80023fe:	f8c2 3084 	str.w	r3, [r2, #132]	; 0x84
 8002402:	4b16      	ldr	r3, [pc, #88]	; (800245c <HAL_RCCEx_PeriphCLKConfig+0x2d8>)
 8002404:	681a      	ldr	r2, [r3, #0]
 8002406:	461e      	mov	r6, r3
 8002408:	f042 6280 	orr.w	r2, r2, #67108864	; 0x4000000
 800240c:	601a      	str	r2, [r3, #0]
 800240e:	f7fe fd31 	bl	8000e74 <HAL_GetTick>
 8002412:	4607      	mov	r7, r0
 8002414:	e004      	b.n	8002420 <HAL_RCCEx_PeriphCLKConfig+0x29c>
 8002416:	f7fe fd2d 	bl	8000e74 <HAL_GetTick>
 800241a:	1bc0      	subs	r0, r0, r7
 800241c:	2864      	cmp	r0, #100	; 0x64
 800241e:	d805      	bhi.n	800242c <HAL_RCCEx_PeriphCLKConfig+0x2a8>
 8002420:	6833      	ldr	r3, [r6, #0]
 8002422:	011b      	lsls	r3, r3, #4
 8002424:	d5f7      	bpl.n	8002416 <HAL_RCCEx_PeriphCLKConfig+0x292>
 8002426:	2d01      	cmp	r5, #1
 8002428:	d1a0      	bne.n	800236c <HAL_RCCEx_PeriphCLKConfig+0x1e8>
 800242a:	e054      	b.n	80024d6 <HAL_RCCEx_PeriphCLKConfig+0x352>
 800242c:	2003      	movs	r0, #3
 800242e:	b003      	add	sp, #12
 8002430:	e8bd 83f0 	ldmia.w	sp!, {r4, r5, r6, r7, r8, r9, pc}
 8002434:	4a09      	ldr	r2, [pc, #36]	; (800245c <HAL_RCCEx_PeriphCLKConfig+0x2d8>)
 8002436:	4b0a      	ldr	r3, [pc, #40]	; (8002460 <HAL_RCCEx_PeriphCLKConfig+0x2dc>)
 8002438:	6c11      	ldr	r1, [r2, #64]	; 0x40
 800243a:	461f      	mov	r7, r3
 800243c:	f041 5180 	orr.w	r1, r1, #268435456	; 0x10000000
 8002440:	6411      	str	r1, [r2, #64]	; 0x40
 8002442:	6c12      	ldr	r2, [r2, #64]	; 0x40
 8002444:	f002 5280 	and.w	r2, r2, #268435456	; 0x10000000
 8002448:	9201      	str	r2, [sp, #4]
 800244a:	9a01      	ldr	r2, [sp, #4]
 800244c:	681a      	ldr	r2, [r3, #0]
 800244e:	f442 7280 	orr.w	r2, r2, #256	; 0x100
 8002452:	601a      	str	r2, [r3, #0]
 8002454:	f7fe fd0e 	bl	8000e74 <HAL_GetTick>
 8002458:	4680      	mov	r8, r0
 800245a:	e009      	b.n	8002470 <HAL_RCCEx_PeriphCLKConfig+0x2ec>
 800245c:	40023800 	.word	0x40023800
 8002460:	40007000 	.word	0x40007000
 8002464:	f7fe fd06 	bl	8000e74 <HAL_GetTick>
 8002468:	eba0 0008 	sub.w	r0, r0, r8
 800246c:	2864      	cmp	r0, #100	; 0x64
 800246e:	d8dd      	bhi.n	800242c <HAL_RCCEx_PeriphCLKConfig+0x2a8>
 8002470:	683b      	ldr	r3, [r7, #0]
 8002472:	05d8      	lsls	r0, r3, #23
 8002474:	d5f6      	bpl.n	8002464 <HAL_RCCEx_PeriphCLKConfig+0x2e0>
 8002476:	4a62      	ldr	r2, [pc, #392]	; (8002600 <HAL_RCCEx_PeriphCLKConfig+0x47c>)
 8002478:	6aa3      	ldr	r3, [r4, #40]	; 0x28
 800247a:	6f11      	ldr	r1, [r2, #112]	; 0x70
 800247c:	f403 7040 	and.w	r0, r3, #768	; 0x300
 8002480:	f411 7140 	ands.w	r1, r1, #768	; 0x300
 8002484:	d011      	beq.n	80024aa <HAL_RCCEx_PeriphCLKConfig+0x326>
 8002486:	4281      	cmp	r1, r0
 8002488:	d00f      	beq.n	80024aa <HAL_RCCEx_PeriphCLKConfig+0x326>
 800248a:	6f11      	ldr	r1, [r2, #112]	; 0x70
 800248c:	6f17      	ldr	r7, [r2, #112]	; 0x70
 800248e:	f421 7140 	bic.w	r1, r1, #768	; 0x300
 8002492:	f447 3780 	orr.w	r7, r7, #65536	; 0x10000
 8002496:	6717      	str	r7, [r2, #112]	; 0x70
 8002498:	6f17      	ldr	r7, [r2, #112]	; 0x70
 800249a:	f427 3780 	bic.w	r7, r7, #65536	; 0x10000
 800249e:	6717      	str	r7, [r2, #112]	; 0x70
 80024a0:	6711      	str	r1, [r2, #112]	; 0x70
 80024a2:	6f11      	ldr	r1, [r2, #112]	; 0x70
 80024a4:	07c9      	lsls	r1, r1, #31
 80024a6:	f100 8096 	bmi.w	80025d6 <HAL_RCCEx_PeriphCLKConfig+0x452>
 80024aa:	f5b0 7f40 	cmp.w	r0, #768	; 0x300
 80024ae:	f000 8085 	beq.w	80025bc <HAL_RCCEx_PeriphCLKConfig+0x438>
 80024b2:	4953      	ldr	r1, [pc, #332]	; (8002600 <HAL_RCCEx_PeriphCLKConfig+0x47c>)
 80024b4:	688a      	ldr	r2, [r1, #8]
 80024b6:	f422 12f8 	bic.w	r2, r2, #2031616	; 0x1f0000
 80024ba:	608a      	str	r2, [r1, #8]
 80024bc:	4a50      	ldr	r2, [pc, #320]	; (8002600 <HAL_RCCEx_PeriphCLKConfig+0x47c>)
 80024be:	f3c3 030b 	ubfx	r3, r3, #0, #12
 80024c2:	6f11      	ldr	r1, [r2, #112]	; 0x70
 80024c4:	430b      	orrs	r3, r1
 80024c6:	6713      	str	r3, [r2, #112]	; 0x70
 80024c8:	6823      	ldr	r3, [r4, #0]
 80024ca:	e699      	b.n	8002200 <HAL_RCCEx_PeriphCLKConfig+0x7c>
 80024cc:	2601      	movs	r6, #1
 80024ce:	e694      	b.n	80021fa <HAL_RCCEx_PeriphCLKConfig+0x76>
 80024d0:	2500      	movs	r5, #0
 80024d2:	2601      	movs	r6, #1
 80024d4:	e67e      	b.n	80021d4 <HAL_RCCEx_PeriphCLKConfig+0x50>
 80024d6:	4b4a      	ldr	r3, [pc, #296]	; (8002600 <HAL_RCCEx_PeriphCLKConfig+0x47c>)
 80024d8:	681a      	ldr	r2, [r3, #0]
 80024da:	461d      	mov	r5, r3
 80024dc:	f022 5280 	bic.w	r2, r2, #268435456	; 0x10000000
 80024e0:	601a      	str	r2, [r3, #0]
 80024e2:	f7fe fcc7 	bl	8000e74 <HAL_GetTick>
 80024e6:	4606      	mov	r6, r0
 80024e8:	e004      	b.n	80024f4 <HAL_RCCEx_PeriphCLKConfig+0x370>
 80024ea:	f7fe fcc3 	bl	8000e74 <HAL_GetTick>
 80024ee:	1b80      	subs	r0, r0, r6
 80024f0:	2864      	cmp	r0, #100	; 0x64
 80024f2:	d89b      	bhi.n	800242c <HAL_RCCEx_PeriphCLKConfig+0x2a8>
 80024f4:	682b      	ldr	r3, [r5, #0]
 80024f6:	009f      	lsls	r7, r3, #2
 80024f8:	d4f7      	bmi.n	80024ea <HAL_RCCEx_PeriphCLKConfig+0x366>
 80024fa:	6823      	ldr	r3, [r4, #0]
 80024fc:	0318      	lsls	r0, r3, #12
 80024fe:	d466      	bmi.n	80025ce <HAL_RCCEx_PeriphCLKConfig+0x44a>
 8002500:	02d9      	lsls	r1, r3, #11
 8002502:	d518      	bpl.n	8002536 <HAL_RCCEx_PeriphCLKConfig+0x3b2>
 8002504:	6ba2      	ldr	r2, [r4, #56]	; 0x38
 8002506:	b9b2      	cbnz	r2, 8002536 <HAL_RCCEx_PeriphCLKConfig+0x3b2>
 8002508:	493d      	ldr	r1, [pc, #244]	; (8002600 <HAL_RCCEx_PeriphCLKConfig+0x47c>)
 800250a:	6962      	ldr	r2, [r4, #20]
 800250c:	f8d1 0088 	ldr.w	r0, [r1, #136]	; 0x88
 8002510:	6925      	ldr	r5, [r4, #16]
 8002512:	0612      	lsls	r2, r2, #24
 8002514:	f400 3040 	and.w	r0, r0, #196608	; 0x30000
 8002518:	ea42 1285 	orr.w	r2, r2, r5, lsl #6
 800251c:	4302      	orrs	r2, r0
 800251e:	f8c1 2088 	str.w	r2, [r1, #136]	; 0x88
 8002522:	f8d1 208c 	ldr.w	r2, [r1, #140]	; 0x8c
 8002526:	6a20      	ldr	r0, [r4, #32]
 8002528:	f422 52f8 	bic.w	r2, r2, #7936	; 0x1f00
 800252c:	3801      	subs	r0, #1
 800252e:	ea42 2200 	orr.w	r2, r2, r0, lsl #8
 8002532:	f8c1 208c 	str.w	r2, [r1, #140]	; 0x8c
 8002536:	029a      	lsls	r2, r3, #10
 8002538:	d510      	bpl.n	800255c <HAL_RCCEx_PeriphCLKConfig+0x3d8>
 800253a:	6f63      	ldr	r3, [r4, #116]	; 0x74
 800253c:	f1b3 6f00 	cmp.w	r3, #134217728	; 0x8000000
 8002540:	d10c      	bne.n	800255c <HAL_RCCEx_PeriphCLKConfig+0x3d8>
 8002542:	492f      	ldr	r1, [pc, #188]	; (8002600 <HAL_RCCEx_PeriphCLKConfig+0x47c>)
 8002544:	69a3      	ldr	r3, [r4, #24]
 8002546:	f8d1 2088 	ldr.w	r2, [r1, #136]	; 0x88
 800254a:	6920      	ldr	r0, [r4, #16]
 800254c:	041b      	lsls	r3, r3, #16
 800254e:	f002 6270 	and.w	r2, r2, #251658240	; 0xf000000
 8002552:	ea43 1380 	orr.w	r3, r3, r0, lsl #6
 8002556:	4313      	orrs	r3, r2
 8002558:	f8c1 3088 	str.w	r3, [r1, #136]	; 0x88
 800255c:	4b28      	ldr	r3, [pc, #160]	; (8002600 <HAL_RCCEx_PeriphCLKConfig+0x47c>)
 800255e:	681a      	ldr	r2, [r3, #0]
 8002560:	461c      	mov	r4, r3
 8002562:	f042 5280 	orr.w	r2, r2, #268435456	; 0x10000000
 8002566:	601a      	str	r2, [r3, #0]
 8002568:	f7fe fc84 	bl	8000e74 <HAL_GetTick>
 800256c:	4605      	mov	r5, r0
 800256e:	e005      	b.n	800257c <HAL_RCCEx_PeriphCLKConfig+0x3f8>
 8002570:	f7fe fc80 	bl	8000e74 <HAL_GetTick>
 8002574:	1b40      	subs	r0, r0, r5
 8002576:	2864      	cmp	r0, #100	; 0x64
 8002578:	f63f af58 	bhi.w	800242c <HAL_RCCEx_PeriphCLKConfig+0x2a8>
 800257c:	6823      	ldr	r3, [r4, #0]
 800257e:	009b      	lsls	r3, r3, #2
 8002580:	d5f6      	bpl.n	8002570 <HAL_RCCEx_PeriphCLKConfig+0x3ec>
 8002582:	e6f3      	b.n	800236c <HAL_RCCEx_PeriphCLKConfig+0x1e8>
 8002584:	6b62      	ldr	r2, [r4, #52]	; 0x34
 8002586:	f5b2 1f80 	cmp.w	r2, #1048576	; 0x100000
 800258a:	f47f af26 	bne.w	80023da <HAL_RCCEx_PeriphCLKConfig+0x256>
 800258e:	491c      	ldr	r1, [pc, #112]	; (8002600 <HAL_RCCEx_PeriphCLKConfig+0x47c>)
 8002590:	68e2      	ldr	r2, [r4, #12]
 8002592:	f8d1 0084 	ldr.w	r0, [r1, #132]	; 0x84
 8002596:	6866      	ldr	r6, [r4, #4]
 8002598:	0612      	lsls	r2, r2, #24
 800259a:	f000 40e0 	and.w	r0, r0, #1879048192	; 0x70000000
 800259e:	ea42 1286 	orr.w	r2, r2, r6, lsl #6
 80025a2:	4302      	orrs	r2, r0
 80025a4:	f8c1 2084 	str.w	r2, [r1, #132]	; 0x84
 80025a8:	f8d1 008c 	ldr.w	r0, [r1, #140]	; 0x8c
 80025ac:	69e2      	ldr	r2, [r4, #28]
 80025ae:	f020 001f 	bic.w	r0, r0, #31
 80025b2:	3a01      	subs	r2, #1
 80025b4:	4302      	orrs	r2, r0
 80025b6:	f8c1 208c 	str.w	r2, [r1, #140]	; 0x8c
 80025ba:	e715      	b.n	80023e8 <HAL_RCCEx_PeriphCLKConfig+0x264>
 80025bc:	4810      	ldr	r0, [pc, #64]	; (8002600 <HAL_RCCEx_PeriphCLKConfig+0x47c>)
 80025be:	4911      	ldr	r1, [pc, #68]	; (8002604 <HAL_RCCEx_PeriphCLKConfig+0x480>)
 80025c0:	6882      	ldr	r2, [r0, #8]
 80025c2:	4019      	ands	r1, r3
 80025c4:	f422 12f8 	bic.w	r2, r2, #2031616	; 0x1f0000
 80025c8:	430a      	orrs	r2, r1
 80025ca:	6082      	str	r2, [r0, #8]
 80025cc:	e776      	b.n	80024bc <HAL_RCCEx_PeriphCLKConfig+0x338>
 80025ce:	6b62      	ldr	r2, [r4, #52]	; 0x34
 80025d0:	2a00      	cmp	r2, #0
 80025d2:	d099      	beq.n	8002508 <HAL_RCCEx_PeriphCLKConfig+0x384>
 80025d4:	e794      	b.n	8002500 <HAL_RCCEx_PeriphCLKConfig+0x37c>
 80025d6:	4617      	mov	r7, r2
 80025d8:	f241 3888 	movw	r8, #5000	; 0x1388
 80025dc:	f7fe fc4a 	bl	8000e74 <HAL_GetTick>
 80025e0:	4681      	mov	r9, r0
 80025e2:	e006      	b.n	80025f2 <HAL_RCCEx_PeriphCLKConfig+0x46e>
 80025e4:	f7fe fc46 	bl	8000e74 <HAL_GetTick>
 80025e8:	eba0 0009 	sub.w	r0, r0, r9
 80025ec:	4540      	cmp	r0, r8
 80025ee:	f63f af1d 	bhi.w	800242c <HAL_RCCEx_PeriphCLKConfig+0x2a8>
 80025f2:	6f3b      	ldr	r3, [r7, #112]	; 0x70
 80025f4:	079b      	lsls	r3, r3, #30
 80025f6:	d5f5      	bpl.n	80025e4 <HAL_RCCEx_PeriphCLKConfig+0x460>
 80025f8:	6aa3      	ldr	r3, [r4, #40]	; 0x28
 80025fa:	f403 7040 	and.w	r0, r3, #768	; 0x300
 80025fe:	e754      	b.n	80024aa <HAL_RCCEx_PeriphCLKConfig+0x326>
 8002600:	40023800 	.word	0x40023800
 8002604:	0ffffcff 	.word	0x0ffffcff

08002608 <HAL_SD_ReadBlocks>:
 8002608:	e92d 47f0 	stmdb	sp!, {r4, r5, r6, r7, r8, r9, sl, lr}
 800260c:	460d      	mov	r5, r1
 800260e:	b086      	sub	sp, #24
 8002610:	4604      	mov	r4, r0
 8002612:	4616      	mov	r6, r2
 8002614:	461f      	mov	r7, r3
 8002616:	f7fe fc2d 	bl	8000e74 <HAL_GetTick>
 800261a:	b375      	cbz	r5, 800267a <HAL_SD_ReadBlocks+0x72>
 800261c:	4680      	mov	r8, r0
 800261e:	f894 0034 	ldrb.w	r0, [r4, #52]	; 0x34
 8002622:	b2c0      	uxtb	r0, r0
 8002624:	2801      	cmp	r0, #1
 8002626:	d007      	beq.n	8002638 <HAL_SD_ReadBlocks+0x30>
 8002628:	6ba3      	ldr	r3, [r4, #56]	; 0x38
 800262a:	2001      	movs	r0, #1
 800262c:	f043 5300 	orr.w	r3, r3, #536870912	; 0x20000000
 8002630:	63a3      	str	r3, [r4, #56]	; 0x38
 8002632:	b006      	add	sp, #24
 8002634:	e8bd 87f0 	ldmia.w	sp!, {r4, r5, r6, r7, r8, r9, sl, pc}
 8002638:	19f3      	adds	r3, r6, r7
 800263a:	6de2      	ldr	r2, [r4, #92]	; 0x5c
 800263c:	2100      	movs	r1, #0
 800263e:	4293      	cmp	r3, r2
 8002640:	63a1      	str	r1, [r4, #56]	; 0x38
 8002642:	d822      	bhi.n	800268a <HAL_SD_ReadBlocks+0x82>
 8002644:	6c63      	ldr	r3, [r4, #68]	; 0x44
 8002646:	2203      	movs	r2, #3
 8002648:	6820      	ldr	r0, [r4, #0]
 800264a:	2b01      	cmp	r3, #1
 800264c:	f884 2034 	strb.w	r2, [r4, #52]	; 0x34
 8002650:	62c1      	str	r1, [r0, #44]	; 0x2c
 8002652:	f44f 7100 	mov.w	r1, #512	; 0x200
 8002656:	bf18      	it	ne
 8002658:	0276      	lslne	r6, r6, #9
 800265a:	f001 ff13 	bl	8004484 <SDMMC_CmdBlockLength>
 800265e:	4603      	mov	r3, r0
 8002660:	b1d0      	cbz	r0, 8002698 <HAL_SD_ReadBlocks+0x90>
 8002662:	6822      	ldr	r2, [r4, #0]
 8002664:	f240 50ff 	movw	r0, #1535	; 0x5ff
 8002668:	2101      	movs	r1, #1
 800266a:	6390      	str	r0, [r2, #56]	; 0x38
 800266c:	6ba2      	ldr	r2, [r4, #56]	; 0x38
 800266e:	4608      	mov	r0, r1
 8002670:	4313      	orrs	r3, r2
 8002672:	63a3      	str	r3, [r4, #56]	; 0x38
 8002674:	f884 1034 	strb.w	r1, [r4, #52]	; 0x34
 8002678:	e7db      	b.n	8002632 <HAL_SD_ReadBlocks+0x2a>
 800267a:	6ba3      	ldr	r3, [r4, #56]	; 0x38
 800267c:	2001      	movs	r0, #1
 800267e:	f043 6300 	orr.w	r3, r3, #134217728	; 0x8000000
 8002682:	63a3      	str	r3, [r4, #56]	; 0x38
 8002684:	b006      	add	sp, #24
 8002686:	e8bd 87f0 	ldmia.w	sp!, {r4, r5, r6, r7, r8, r9, sl, pc}
 800268a:	6ba3      	ldr	r3, [r4, #56]	; 0x38
 800268c:	f043 7300 	orr.w	r3, r3, #33554432	; 0x2000000
 8002690:	63a3      	str	r3, [r4, #56]	; 0x38
 8002692:	b006      	add	sp, #24
 8002694:	e8bd 87f0 	ldmia.w	sp!, {r4, r5, r6, r7, r8, r9, sl, pc}
 8002698:	f04f 31ff 	mov.w	r1, #4294967295
 800269c:	0278      	lsls	r0, r7, #9
 800269e:	2290      	movs	r2, #144	; 0x90
 80026a0:	f04f 0a01 	mov.w	sl, #1
 80026a4:	f04f 0902 	mov.w	r9, #2
 80026a8:	9100      	str	r1, [sp, #0]
 80026aa:	9001      	str	r0, [sp, #4]
 80026ac:	4669      	mov	r1, sp
 80026ae:	6820      	ldr	r0, [r4, #0]
 80026b0:	9304      	str	r3, [sp, #16]
 80026b2:	f8cd a014 	str.w	sl, [sp, #20]
 80026b6:	e9cd 2902 	strd	r2, r9, [sp, #8]
 80026ba:	f001 fecd 	bl	8004458 <SDMMC_ConfigData>
 80026be:	4557      	cmp	r7, sl
 80026c0:	d933      	bls.n	800272a <HAL_SD_ReadBlocks+0x122>
 80026c2:	f8c4 9030 	str.w	r9, [r4, #48]	; 0x30
 80026c6:	4631      	mov	r1, r6
 80026c8:	6820      	ldr	r0, [r4, #0]
 80026ca:	f001 ff59 	bl	8004580 <SDMMC_CmdReadMultiBlock>
 80026ce:	4602      	mov	r2, r0
 80026d0:	6823      	ldr	r3, [r4, #0]
 80026d2:	b152      	cbz	r2, 80026ea <HAL_SD_ReadBlocks+0xe2>
 80026d4:	e01e      	b.n	8002714 <HAL_SD_ReadBlocks+0x10c>
 80026d6:	9b0e      	ldr	r3, [sp, #56]	; 0x38
 80026d8:	b37b      	cbz	r3, 800273a <HAL_SD_ReadBlocks+0x132>
 80026da:	f7fe fbcb 	bl	8000e74 <HAL_GetTick>
 80026de:	9b0e      	ldr	r3, [sp, #56]	; 0x38
 80026e0:	eba0 0008 	sub.w	r0, r0, r8
 80026e4:	4298      	cmp	r0, r3
 80026e6:	d228      	bcs.n	800273a <HAL_SD_ReadBlocks+0x132>
 80026e8:	6823      	ldr	r3, [r4, #0]
 80026ea:	6b5a      	ldr	r2, [r3, #52]	; 0x34
 80026ec:	f412 7f95 	tst.w	r2, #298	; 0x12a
 80026f0:	6b5a      	ldr	r2, [r3, #52]	; 0x34
 80026f2:	d12f      	bne.n	8002754 <HAL_SD_ReadBlocks+0x14c>
 80026f4:	0411      	lsls	r1, r2, #16
 80026f6:	d5ee      	bpl.n	80026d6 <HAL_SD_ReadBlocks+0xce>
 80026f8:	1f2e      	subs	r6, r5, #4
 80026fa:	f105 091c 	add.w	r9, r5, #28
 80026fe:	e000      	b.n	8002702 <HAL_SD_ReadBlocks+0xfa>
 8002700:	6823      	ldr	r3, [r4, #0]
 8002702:	4618      	mov	r0, r3
 8002704:	f001 fe8a 	bl	800441c <SDMMC_ReadFIFO>
 8002708:	f846 0f04 	str.w	r0, [r6, #4]!
 800270c:	45b1      	cmp	r9, r6
 800270e:	d1f7      	bne.n	8002700 <HAL_SD_ReadBlocks+0xf8>
 8002710:	3520      	adds	r5, #32
 8002712:	e7e0      	b.n	80026d6 <HAL_SD_ReadBlocks+0xce>
 8002714:	f240 50ff 	movw	r0, #1535	; 0x5ff
 8002718:	2101      	movs	r1, #1
 800271a:	6398      	str	r0, [r3, #56]	; 0x38
 800271c:	4608      	mov	r0, r1
 800271e:	6ba3      	ldr	r3, [r4, #56]	; 0x38
 8002720:	431a      	orrs	r2, r3
 8002722:	63a2      	str	r2, [r4, #56]	; 0x38
 8002724:	f884 1034 	strb.w	r1, [r4, #52]	; 0x34
 8002728:	e783      	b.n	8002632 <HAL_SD_ReadBlocks+0x2a>
 800272a:	f8c4 a030 	str.w	sl, [r4, #48]	; 0x30
 800272e:	4631      	mov	r1, r6
 8002730:	6820      	ldr	r0, [r4, #0]
 8002732:	f001 fee5 	bl	8004500 <SDMMC_CmdReadSingleBlock>
 8002736:	4602      	mov	r2, r0
 8002738:	e7ca      	b.n	80026d0 <HAL_SD_ReadBlocks+0xc8>
 800273a:	6823      	ldr	r3, [r4, #0]
 800273c:	f240 51ff 	movw	r1, #1535	; 0x5ff
 8002740:	2201      	movs	r2, #1
 8002742:	2003      	movs	r0, #3
 8002744:	6399      	str	r1, [r3, #56]	; 0x38
 8002746:	6ba3      	ldr	r3, [r4, #56]	; 0x38
 8002748:	f043 4300 	orr.w	r3, r3, #2147483648	; 0x80000000
 800274c:	63a3      	str	r3, [r4, #56]	; 0x38
 800274e:	f884 2034 	strb.w	r2, [r4, #52]	; 0x34
 8002752:	e76e      	b.n	8002632 <HAL_SD_ReadBlocks+0x2a>
 8002754:	05d2      	lsls	r2, r2, #23
 8002756:	d50b      	bpl.n	8002770 <HAL_SD_ReadBlocks+0x168>
 8002758:	2f01      	cmp	r7, #1
 800275a:	d909      	bls.n	8002770 <HAL_SD_ReadBlocks+0x168>
 800275c:	6c62      	ldr	r2, [r4, #68]	; 0x44
 800275e:	2a03      	cmp	r2, #3
 8002760:	d006      	beq.n	8002770 <HAL_SD_ReadBlocks+0x168>
 8002762:	4618      	mov	r0, r3
 8002764:	f001 ffca 	bl	80046fc <SDMMC_CmdStopTransfer>
 8002768:	6823      	ldr	r3, [r4, #0]
 800276a:	4601      	mov	r1, r0
 800276c:	2800      	cmp	r0, #0
 800276e:	d15b      	bne.n	8002828 <HAL_SD_ReadBlocks+0x220>
 8002770:	6b5a      	ldr	r2, [r3, #52]	; 0x34
 8002772:	0717      	lsls	r7, r2, #28
 8002774:	d420      	bmi.n	80027b8 <HAL_SD_ReadBlocks+0x1b0>
 8002776:	6b5a      	ldr	r2, [r3, #52]	; 0x34
 8002778:	0796      	lsls	r6, r2, #30
 800277a:	d429      	bmi.n	80027d0 <HAL_SD_ReadBlocks+0x1c8>
 800277c:	6b5a      	ldr	r2, [r3, #52]	; 0x34
 800277e:	0690      	lsls	r0, r2, #26
 8002780:	d432      	bmi.n	80027e8 <HAL_SD_ReadBlocks+0x1e0>
 8002782:	9a0e      	ldr	r2, [sp, #56]	; 0x38
 8002784:	b962      	cbnz	r2, 80027a0 <HAL_SD_ReadBlocks+0x198>
 8002786:	e03b      	b.n	8002800 <HAL_SD_ReadBlocks+0x1f8>
 8002788:	f001 fe48 	bl	800441c <SDMMC_ReadFIFO>
 800278c:	f845 0b04 	str.w	r0, [r5], #4
 8002790:	f7fe fb70 	bl	8000e74 <HAL_GetTick>
 8002794:	9b0e      	ldr	r3, [sp, #56]	; 0x38
 8002796:	eba0 0008 	sub.w	r0, r0, r8
 800279a:	4283      	cmp	r3, r0
 800279c:	d937      	bls.n	800280e <HAL_SD_ReadBlocks+0x206>
 800279e:	6823      	ldr	r3, [r4, #0]
 80027a0:	6b5a      	ldr	r2, [r3, #52]	; 0x34
 80027a2:	4618      	mov	r0, r3
 80027a4:	0291      	lsls	r1, r2, #10
 80027a6:	d4ef      	bmi.n	8002788 <HAL_SD_ReadBlocks+0x180>
 80027a8:	f240 51ff 	movw	r1, #1535	; 0x5ff
 80027ac:	2201      	movs	r2, #1
 80027ae:	2000      	movs	r0, #0
 80027b0:	6399      	str	r1, [r3, #56]	; 0x38
 80027b2:	f884 2034 	strb.w	r2, [r4, #52]	; 0x34
 80027b6:	e73c      	b.n	8002632 <HAL_SD_ReadBlocks+0x2a>
 80027b8:	f240 51ff 	movw	r1, #1535	; 0x5ff
 80027bc:	2201      	movs	r2, #1
 80027be:	6399      	str	r1, [r3, #56]	; 0x38
 80027c0:	4610      	mov	r0, r2
 80027c2:	6ba3      	ldr	r3, [r4, #56]	; 0x38
 80027c4:	f043 0308 	orr.w	r3, r3, #8
 80027c8:	63a3      	str	r3, [r4, #56]	; 0x38
 80027ca:	f884 2034 	strb.w	r2, [r4, #52]	; 0x34
 80027ce:	e730      	b.n	8002632 <HAL_SD_ReadBlocks+0x2a>
 80027d0:	f240 51ff 	movw	r1, #1535	; 0x5ff
 80027d4:	2201      	movs	r2, #1
 80027d6:	6399      	str	r1, [r3, #56]	; 0x38
 80027d8:	4610      	mov	r0, r2
 80027da:	6ba3      	ldr	r3, [r4, #56]	; 0x38
 80027dc:	f043 0302 	orr.w	r3, r3, #2
 80027e0:	63a3      	str	r3, [r4, #56]	; 0x38
 80027e2:	f884 2034 	strb.w	r2, [r4, #52]	; 0x34
 80027e6:	e724      	b.n	8002632 <HAL_SD_ReadBlocks+0x2a>
 80027e8:	f240 51ff 	movw	r1, #1535	; 0x5ff
 80027ec:	2201      	movs	r2, #1
 80027ee:	6399      	str	r1, [r3, #56]	; 0x38
 80027f0:	4610      	mov	r0, r2
 80027f2:	6ba3      	ldr	r3, [r4, #56]	; 0x38
 80027f4:	f043 0320 	orr.w	r3, r3, #32
 80027f8:	63a3      	str	r3, [r4, #56]	; 0x38
 80027fa:	f884 2034 	strb.w	r2, [r4, #52]	; 0x34
 80027fe:	e718      	b.n	8002632 <HAL_SD_ReadBlocks+0x2a>
 8002800:	6b5a      	ldr	r2, [r3, #52]	; 0x34
 8002802:	0292      	lsls	r2, r2, #10
 8002804:	d5d0      	bpl.n	80027a8 <HAL_SD_ReadBlocks+0x1a0>
 8002806:	4618      	mov	r0, r3
 8002808:	f001 fe08 	bl	800441c <SDMMC_ReadFIFO>
 800280c:	6028      	str	r0, [r5, #0]
 800280e:	6823      	ldr	r3, [r4, #0]
 8002810:	f240 51ff 	movw	r1, #1535	; 0x5ff
 8002814:	2201      	movs	r2, #1
 8002816:	6399      	str	r1, [r3, #56]	; 0x38
 8002818:	6ba3      	ldr	r3, [r4, #56]	; 0x38
 800281a:	4610      	mov	r0, r2
 800281c:	f043 4300 	orr.w	r3, r3, #2147483648	; 0x80000000
 8002820:	63a3      	str	r3, [r4, #56]	; 0x38
 8002822:	f884 2034 	strb.w	r2, [r4, #52]	; 0x34
 8002826:	e704      	b.n	8002632 <HAL_SD_ReadBlocks+0x2a>
 8002828:	f240 50ff 	movw	r0, #1535	; 0x5ff
 800282c:	2201      	movs	r2, #1
 800282e:	6398      	str	r0, [r3, #56]	; 0x38
 8002830:	4610      	mov	r0, r2
 8002832:	6ba3      	ldr	r3, [r4, #56]	; 0x38
 8002834:	430b      	orrs	r3, r1
 8002836:	63a3      	str	r3, [r4, #56]	; 0x38
 8002838:	f884 2034 	strb.w	r2, [r4, #52]	; 0x34
 800283c:	e6f9      	b.n	8002632 <HAL_SD_ReadBlocks+0x2a>
 800283e:	bf00      	nop

08002840 <HAL_SD_WriteBlocks>:
 8002840:	e92d 41f0 	stmdb	sp!, {r4, r5, r6, r7, r8, lr}
 8002844:	460d      	mov	r5, r1
 8002846:	b086      	sub	sp, #24
 8002848:	4604      	mov	r4, r0
 800284a:	4616      	mov	r6, r2
 800284c:	461f      	mov	r7, r3
 800284e:	f7fe fb11 	bl	8000e74 <HAL_GetTick>
 8002852:	2d00      	cmp	r5, #0
 8002854:	d038      	beq.n	80028c8 <HAL_SD_WriteBlocks+0x88>
 8002856:	4680      	mov	r8, r0
 8002858:	f894 0034 	ldrb.w	r0, [r4, #52]	; 0x34
 800285c:	b2c0      	uxtb	r0, r0
 800285e:	2801      	cmp	r0, #1
 8002860:	d007      	beq.n	8002872 <HAL_SD_WriteBlocks+0x32>
 8002862:	6ba3      	ldr	r3, [r4, #56]	; 0x38
 8002864:	2001      	movs	r0, #1
 8002866:	f043 5300 	orr.w	r3, r3, #536870912	; 0x20000000
 800286a:	63a3      	str	r3, [r4, #56]	; 0x38
 800286c:	b006      	add	sp, #24
 800286e:	e8bd 81f0 	ldmia.w	sp!, {r4, r5, r6, r7, r8, pc}
 8002872:	19f3      	adds	r3, r6, r7
 8002874:	6de2      	ldr	r2, [r4, #92]	; 0x5c
 8002876:	2100      	movs	r1, #0
 8002878:	4293      	cmp	r3, r2
 800287a:	63a1      	str	r1, [r4, #56]	; 0x38
 800287c:	d82c      	bhi.n	80028d8 <HAL_SD_WriteBlocks+0x98>
 800287e:	6c63      	ldr	r3, [r4, #68]	; 0x44
 8002880:	2203      	movs	r2, #3
 8002882:	6820      	ldr	r0, [r4, #0]
 8002884:	2b01      	cmp	r3, #1
 8002886:	f884 2034 	strb.w	r2, [r4, #52]	; 0x34
 800288a:	62c1      	str	r1, [r0, #44]	; 0x2c
 800288c:	f44f 7100 	mov.w	r1, #512	; 0x200
 8002890:	bf18      	it	ne
 8002892:	0276      	lslne	r6, r6, #9
 8002894:	f001 fdf6 	bl	8004484 <SDMMC_CmdBlockLength>
 8002898:	4603      	mov	r3, r0
 800289a:	bb20      	cbnz	r0, 80028e6 <HAL_SD_WriteBlocks+0xa6>
 800289c:	2f01      	cmp	r7, #1
 800289e:	6820      	ldr	r0, [r4, #0]
 80028a0:	d92d      	bls.n	80028fe <HAL_SD_WriteBlocks+0xbe>
 80028a2:	2320      	movs	r3, #32
 80028a4:	4631      	mov	r1, r6
 80028a6:	6323      	str	r3, [r4, #48]	; 0x30
 80028a8:	f001 fee8 	bl	800467c <SDMMC_CmdWriteMultiBlock>
 80028ac:	4603      	mov	r3, r0
 80028ae:	6820      	ldr	r0, [r4, #0]
 80028b0:	b363      	cbz	r3, 800290c <HAL_SD_WriteBlocks+0xcc>
 80028b2:	f240 52ff 	movw	r2, #1535	; 0x5ff
 80028b6:	2101      	movs	r1, #1
 80028b8:	6382      	str	r2, [r0, #56]	; 0x38
 80028ba:	4608      	mov	r0, r1
 80028bc:	6ba2      	ldr	r2, [r4, #56]	; 0x38
 80028be:	4313      	orrs	r3, r2
 80028c0:	63a3      	str	r3, [r4, #56]	; 0x38
 80028c2:	f884 1034 	strb.w	r1, [r4, #52]	; 0x34
 80028c6:	e7d1      	b.n	800286c <HAL_SD_WriteBlocks+0x2c>
 80028c8:	6ba3      	ldr	r3, [r4, #56]	; 0x38
 80028ca:	2001      	movs	r0, #1
 80028cc:	f043 6300 	orr.w	r3, r3, #134217728	; 0x8000000
 80028d0:	63a3      	str	r3, [r4, #56]	; 0x38
 80028d2:	b006      	add	sp, #24
 80028d4:	e8bd 81f0 	ldmia.w	sp!, {r4, r5, r6, r7, r8, pc}
 80028d8:	6ba3      	ldr	r3, [r4, #56]	; 0x38
 80028da:	f043 7300 	orr.w	r3, r3, #33554432	; 0x2000000
 80028de:	63a3      	str	r3, [r4, #56]	; 0x38
 80028e0:	b006      	add	sp, #24
 80028e2:	e8bd 81f0 	ldmia.w	sp!, {r4, r5, r6, r7, r8, pc}
 80028e6:	6822      	ldr	r2, [r4, #0]
 80028e8:	f240 50ff 	movw	r0, #1535	; 0x5ff
 80028ec:	2101      	movs	r1, #1
 80028ee:	6390      	str	r0, [r2, #56]	; 0x38
 80028f0:	6ba2      	ldr	r2, [r4, #56]	; 0x38
 80028f2:	4608      	mov	r0, r1
 80028f4:	4313      	orrs	r3, r2
 80028f6:	63a3      	str	r3, [r4, #56]	; 0x38
 80028f8:	f884 1034 	strb.w	r1, [r4, #52]	; 0x34
 80028fc:	e7b6      	b.n	800286c <HAL_SD_WriteBlocks+0x2c>
 80028fe:	2310      	movs	r3, #16
 8002900:	4631      	mov	r1, r6
 8002902:	6323      	str	r3, [r4, #48]	; 0x30
 8002904:	f001 fe7c 	bl	8004600 <SDMMC_CmdWriteSingleBlock>
 8002908:	4603      	mov	r3, r0
 800290a:	e7d0      	b.n	80028ae <HAL_SD_WriteBlocks+0x6e>
 800290c:	0279      	lsls	r1, r7, #9
 800290e:	f04f 36ff 	mov.w	r6, #4294967295
 8002912:	2290      	movs	r2, #144	; 0x90
 8002914:	9101      	str	r1, [sp, #4]
 8002916:	4669      	mov	r1, sp
 8002918:	9600      	str	r6, [sp, #0]
 800291a:	9202      	str	r2, [sp, #8]
 800291c:	e9cd 3303 	strd	r3, r3, [sp, #12]
 8002920:	2301      	movs	r3, #1
 8002922:	9305      	str	r3, [sp, #20]
 8002924:	f001 fd98 	bl	8004458 <SDMMC_ConfigData>
 8002928:	e008      	b.n	800293c <HAL_SD_WriteBlocks+0xfc>
 800292a:	9b0c      	ldr	r3, [sp, #48]	; 0x30
 800292c:	b1db      	cbz	r3, 8002966 <HAL_SD_WriteBlocks+0x126>
 800292e:	f7fe faa1 	bl	8000e74 <HAL_GetTick>
 8002932:	9b0c      	ldr	r3, [sp, #48]	; 0x30
 8002934:	eba0 0008 	sub.w	r0, r0, r8
 8002938:	4298      	cmp	r0, r3
 800293a:	d214      	bcs.n	8002966 <HAL_SD_WriteBlocks+0x126>
 800293c:	6823      	ldr	r3, [r4, #0]
 800293e:	6b5a      	ldr	r2, [r3, #52]	; 0x34
 8002940:	f412 7f8d 	tst.w	r2, #282	; 0x11a
 8002944:	6b5a      	ldr	r2, [r3, #52]	; 0x34
 8002946:	d119      	bne.n	800297c <HAL_SD_WriteBlocks+0x13c>
 8002948:	0456      	lsls	r6, r2, #17
 800294a:	d5ee      	bpl.n	800292a <HAL_SD_WriteBlocks+0xea>
 800294c:	f105 0620 	add.w	r6, r5, #32
 8002950:	e000      	b.n	8002954 <HAL_SD_WriteBlocks+0x114>
 8002952:	6823      	ldr	r3, [r4, #0]
 8002954:	4629      	mov	r1, r5
 8002956:	3504      	adds	r5, #4
 8002958:	4618      	mov	r0, r3
 800295a:	f001 fd63 	bl	8004424 <SDMMC_WriteFIFO>
 800295e:	42ae      	cmp	r6, r5
 8002960:	d1f7      	bne.n	8002952 <HAL_SD_WriteBlocks+0x112>
 8002962:	4635      	mov	r5, r6
 8002964:	e7e1      	b.n	800292a <HAL_SD_WriteBlocks+0xea>
 8002966:	6822      	ldr	r2, [r4, #0]
 8002968:	f240 51ff 	movw	r1, #1535	; 0x5ff
 800296c:	2301      	movs	r3, #1
 800296e:	2003      	movs	r0, #3
 8002970:	6391      	str	r1, [r2, #56]	; 0x38
 8002972:	6ba2      	ldr	r2, [r4, #56]	; 0x38
 8002974:	63a2      	str	r2, [r4, #56]	; 0x38
 8002976:	f884 3034 	strb.w	r3, [r4, #52]	; 0x34
 800297a:	e777      	b.n	800286c <HAL_SD_WriteBlocks+0x2c>
 800297c:	05d0      	lsls	r0, r2, #23
 800297e:	d50b      	bpl.n	8002998 <HAL_SD_WriteBlocks+0x158>
 8002980:	2f01      	cmp	r7, #1
 8002982:	d909      	bls.n	8002998 <HAL_SD_WriteBlocks+0x158>
 8002984:	6c62      	ldr	r2, [r4, #68]	; 0x44
 8002986:	2a03      	cmp	r2, #3
 8002988:	d006      	beq.n	8002998 <HAL_SD_WriteBlocks+0x158>
 800298a:	4618      	mov	r0, r3
 800298c:	f001 feb6 	bl	80046fc <SDMMC_CmdStopTransfer>
 8002990:	6823      	ldr	r3, [r4, #0]
 8002992:	4601      	mov	r1, r0
 8002994:	2800      	cmp	r0, #0
 8002996:	d135      	bne.n	8002a04 <HAL_SD_WriteBlocks+0x1c4>
 8002998:	6b5a      	ldr	r2, [r3, #52]	; 0x34
 800299a:	0711      	lsls	r1, r2, #28
 800299c:	d412      	bmi.n	80029c4 <HAL_SD_WriteBlocks+0x184>
 800299e:	6b5a      	ldr	r2, [r3, #52]	; 0x34
 80029a0:	0792      	lsls	r2, r2, #30
 80029a2:	d41b      	bmi.n	80029dc <HAL_SD_WriteBlocks+0x19c>
 80029a4:	6b5a      	ldr	r2, [r3, #52]	; 0x34
 80029a6:	f012 0210 	ands.w	r2, r2, #16
 80029aa:	d023      	beq.n	80029f4 <HAL_SD_WriteBlocks+0x1b4>
 80029ac:	f240 51ff 	movw	r1, #1535	; 0x5ff
 80029b0:	2201      	movs	r2, #1
 80029b2:	6399      	str	r1, [r3, #56]	; 0x38
 80029b4:	4610      	mov	r0, r2
 80029b6:	6ba3      	ldr	r3, [r4, #56]	; 0x38
 80029b8:	f043 0310 	orr.w	r3, r3, #16
 80029bc:	63a3      	str	r3, [r4, #56]	; 0x38
 80029be:	f884 2034 	strb.w	r2, [r4, #52]	; 0x34
 80029c2:	e753      	b.n	800286c <HAL_SD_WriteBlocks+0x2c>
 80029c4:	f240 51ff 	movw	r1, #1535	; 0x5ff
 80029c8:	2201      	movs	r2, #1
 80029ca:	6399      	str	r1, [r3, #56]	; 0x38
 80029cc:	4610      	mov	r0, r2
 80029ce:	6ba3      	ldr	r3, [r4, #56]	; 0x38
 80029d0:	f043 0308 	orr.w	r3, r3, #8
 80029d4:	63a3      	str	r3, [r4, #56]	; 0x38
 80029d6:	f884 2034 	strb.w	r2, [r4, #52]	; 0x34
 80029da:	e747      	b.n	800286c <HAL_SD_WriteBlocks+0x2c>
 80029dc:	f240 51ff 	movw	r1, #1535	; 0x5ff
 80029e0:	2201      	movs	r2, #1
 80029e2:	6399      	str	r1, [r3, #56]	; 0x38
 80029e4:	4610      	mov	r0, r2
 80029e6:	6ba3      	ldr	r3, [r4, #56]	; 0x38
 80029e8:	f043 0302 	orr.w	r3, r3, #2
 80029ec:	63a3      	str	r3, [r4, #56]	; 0x38
 80029ee:	f884 2034 	strb.w	r2, [r4, #52]	; 0x34
 80029f2:	e73b      	b.n	800286c <HAL_SD_WriteBlocks+0x2c>
 80029f4:	f240 55ff 	movw	r5, #1535	; 0x5ff
 80029f8:	2101      	movs	r1, #1
 80029fa:	4610      	mov	r0, r2
 80029fc:	639d      	str	r5, [r3, #56]	; 0x38
 80029fe:	f884 1034 	strb.w	r1, [r4, #52]	; 0x34
 8002a02:	e733      	b.n	800286c <HAL_SD_WriteBlocks+0x2c>
 8002a04:	f240 50ff 	movw	r0, #1535	; 0x5ff
 8002a08:	2201      	movs	r2, #1
 8002a0a:	6398      	str	r0, [r3, #56]	; 0x38
 8002a0c:	4610      	mov	r0, r2
 8002a0e:	6ba3      	ldr	r3, [r4, #56]	; 0x38
 8002a10:	430b      	orrs	r3, r1
 8002a12:	63a3      	str	r3, [r4, #56]	; 0x38
 8002a14:	f884 2034 	strb.w	r2, [r4, #52]	; 0x34
 8002a18:	e728      	b.n	800286c <HAL_SD_WriteBlocks+0x2c>
 8002a1a:	bf00      	nop

08002a1c <HAL_SD_GetCardCSD>:
 8002a1c:	6e43      	ldr	r3, [r0, #100]	; 0x64
 8002a1e:	0f9a      	lsrs	r2, r3, #30
 8002a20:	b5f0      	push	{r4, r5, r6, r7, lr}
 8002a22:	700a      	strb	r2, [r1, #0]
 8002a24:	f3c3 6783 	ubfx	r7, r3, #26, #4
 8002a28:	f3c3 6501 	ubfx	r5, r3, #24, #2
 8002a2c:	f3c3 4407 	ubfx	r4, r3, #16, #8
 8002a30:	f3c3 2207 	ubfx	r2, r3, #8, #8
 8002a34:	b2db      	uxtb	r3, r3
 8002a36:	704f      	strb	r7, [r1, #1]
 8002a38:	2600      	movs	r6, #0
 8002a3a:	708d      	strb	r5, [r1, #2]
 8002a3c:	70cc      	strb	r4, [r1, #3]
 8002a3e:	710a      	strb	r2, [r1, #4]
 8002a40:	714b      	strb	r3, [r1, #5]
 8002a42:	6e83      	ldr	r3, [r0, #104]	; 0x68
 8002a44:	0e1d      	lsrs	r5, r3, #24
 8002a46:	f3c3 5403 	ubfx	r4, r3, #20, #4
 8002a4a:	f3c3 2207 	ubfx	r2, r3, #8, #8
 8002a4e:	012d      	lsls	r5, r5, #4
 8002a50:	ea4f 1cd2 	mov.w	ip, r2, lsr #7
 8002a54:	80cd      	strh	r5, [r1, #6]
 8002a56:	f3c3 4503 	ubfx	r5, r3, #16, #4
 8002a5a:	88cf      	ldrh	r7, [r1, #6]
 8002a5c:	433c      	orrs	r4, r7
 8002a5e:	f3c2 1780 	ubfx	r7, r2, #6, #1
 8002a62:	80cc      	strh	r4, [r1, #6]
 8002a64:	f3c2 1400 	ubfx	r4, r2, #4, #1
 8002a68:	720d      	strb	r5, [r1, #8]
 8002a6a:	f3c2 1540 	ubfx	r5, r2, #5, #1
 8002a6e:	f881 c009 	strb.w	ip, [r1, #9]
 8002a72:	728f      	strb	r7, [r1, #10]
 8002a74:	72cd      	strb	r5, [r1, #11]
 8002a76:	730c      	strb	r4, [r1, #12]
 8002a78:	734e      	strb	r6, [r1, #13]
 8002a7a:	6c44      	ldr	r4, [r0, #68]	; 0x44
 8002a7c:	2c00      	cmp	r4, #0
 8002a7e:	f040 8088 	bne.w	8002b92 <HAL_SD_GetCardCSD+0x176>
 8002a82:	0292      	lsls	r2, r2, #10
 8002a84:	6ec4      	ldr	r4, [r0, #108]	; 0x6c
 8002a86:	009b      	lsls	r3, r3, #2
 8002a88:	2501      	movs	r5, #1
 8002a8a:	f402 6240 	and.w	r2, r2, #3072	; 0xc00
 8002a8e:	0be6      	lsrs	r6, r4, #15
 8002a90:	f403 737f 	and.w	r3, r3, #1020	; 0x3fc
 8002a94:	f3c4 6c02 	ubfx	ip, r4, #24, #3
 8002a98:	610a      	str	r2, [r1, #16]
 8002a9a:	f006 0606 	and.w	r6, r6, #6
 8002a9e:	690a      	ldr	r2, [r1, #16]
 8002aa0:	f3c4 5742 	ubfx	r7, r4, #21, #3
 8002aa4:	f3c4 6ec2 	ubfx	lr, r4, #27, #3
 8002aa8:	431a      	orrs	r2, r3
 8002aaa:	610a      	str	r2, [r1, #16]
 8002aac:	f3c4 4282 	ubfx	r2, r4, #18, #3
 8002ab0:	690b      	ldr	r3, [r1, #16]
 8002ab2:	ea43 7394 	orr.w	r3, r3, r4, lsr #30
 8002ab6:	610b      	str	r3, [r1, #16]
 8002ab8:	f3c4 2307 	ubfx	r3, r4, #8, #8
 8002abc:	f881 e014 	strb.w	lr, [r1, #20]
 8002ac0:	f881 c015 	strb.w	ip, [r1, #21]
 8002ac4:	f3c4 3cc0 	ubfx	ip, r4, #15, #1
 8002ac8:	758f      	strb	r7, [r1, #22]
 8002aca:	f44f 7700 	mov.w	r7, #512	; 0x200
 8002ace:	75ca      	strb	r2, [r1, #23]
 8002ad0:	760e      	strb	r6, [r1, #24]
 8002ad2:	7e0a      	ldrb	r2, [r1, #24]
 8002ad4:	ea42 020c 	orr.w	r2, r2, ip
 8002ad8:	760a      	strb	r2, [r1, #24]
 8002ada:	690a      	ldr	r2, [r1, #16]
 8002adc:	7e0e      	ldrb	r6, [r1, #24]
 8002ade:	442a      	add	r2, r5
 8002ae0:	3602      	adds	r6, #2
 8002ae2:	40b2      	lsls	r2, r6
 8002ae4:	6542      	str	r2, [r0, #84]	; 0x54
 8002ae6:	7a0e      	ldrb	r6, [r1, #8]
 8002ae8:	6607      	str	r7, [r0, #96]	; 0x60
 8002aea:	40b5      	lsls	r5, r6
 8002aec:	0a6e      	lsrs	r6, r5, #9
 8002aee:	6585      	str	r5, [r0, #88]	; 0x58
 8002af0:	fb02 f206 	mul.w	r2, r2, r6
 8002af4:	65c2      	str	r2, [r0, #92]	; 0x5c
 8002af6:	005d      	lsls	r5, r3, #1
 8002af8:	f3c3 1280 	ubfx	r2, r3, #6, #1
 8002afc:	f3c4 17c0 	ubfx	r7, r4, #7, #1
 8002b00:	f004 037f 	and.w	r3, r4, #127	; 0x7f
 8002b04:	f005 047e 	and.w	r4, r5, #126	; 0x7e
 8002b08:	764a      	strb	r2, [r1, #25]
 8002b0a:	2500      	movs	r5, #0
 8002b0c:	768c      	strb	r4, [r1, #26]
 8002b0e:	7e8a      	ldrb	r2, [r1, #26]
 8002b10:	462e      	mov	r6, r5
 8002b12:	433a      	orrs	r2, r7
 8002b14:	2701      	movs	r7, #1
 8002b16:	768a      	strb	r2, [r1, #26]
 8002b18:	76cb      	strb	r3, [r1, #27]
 8002b1a:	6f03      	ldr	r3, [r0, #112]	; 0x70
 8002b1c:	0fda      	lsrs	r2, r3, #31
 8002b1e:	f3c3 7041 	ubfx	r0, r3, #29, #2
 8002b22:	0d9c      	lsrs	r4, r3, #22
 8002b24:	f3c3 5c40 	ubfx	ip, r3, #21, #1
 8002b28:	770a      	strb	r2, [r1, #28]
 8002b2a:	f3c3 6282 	ubfx	r2, r3, #26, #3
 8002b2e:	f004 040c 	and.w	r4, r4, #12
 8002b32:	7748      	strb	r0, [r1, #29]
 8002b34:	778a      	strb	r2, [r1, #30]
 8002b36:	f3c3 5081 	ubfx	r0, r3, #22, #2
 8002b3a:	77cc      	strb	r4, [r1, #31]
 8002b3c:	f3c3 4400 	ubfx	r4, r3, #16, #1
 8002b40:	7fca      	ldrb	r2, [r1, #31]
 8002b42:	4302      	orrs	r2, r0
 8002b44:	f3c3 30c0 	ubfx	r0, r3, #15, #1
 8002b48:	77ca      	strb	r2, [r1, #31]
 8002b4a:	f3c3 3280 	ubfx	r2, r3, #14, #1
 8002b4e:	f881 c020 	strb.w	ip, [r1, #32]
 8002b52:	f881 5021 	strb.w	r5, [r1, #33]	; 0x21
 8002b56:	f3c3 3540 	ubfx	r5, r3, #13, #1
 8002b5a:	f881 4022 	strb.w	r4, [r1, #34]	; 0x22
 8002b5e:	f3c3 3400 	ubfx	r4, r3, #12, #1
 8002b62:	f881 0023 	strb.w	r0, [r1, #35]	; 0x23
 8002b66:	f3c3 2081 	ubfx	r0, r3, #10, #2
 8002b6a:	f881 2024 	strb.w	r2, [r1, #36]	; 0x24
 8002b6e:	f3c3 2201 	ubfx	r2, r3, #8, #2
 8002b72:	f3c3 0346 	ubfx	r3, r3, #1, #7
 8002b76:	f881 5025 	strb.w	r5, [r1, #37]	; 0x25
 8002b7a:	f881 4026 	strb.w	r4, [r1, #38]	; 0x26
 8002b7e:	f881 0027 	strb.w	r0, [r1, #39]	; 0x27
 8002b82:	4630      	mov	r0, r6
 8002b84:	f881 2028 	strb.w	r2, [r1, #40]	; 0x28
 8002b88:	f881 3029 	strb.w	r3, [r1, #41]	; 0x29
 8002b8c:	f881 702a 	strb.w	r7, [r1, #42]	; 0x2a
 8002b90:	bdf0      	pop	{r4, r5, r6, r7, pc}
 8002b92:	2c01      	cmp	r4, #1
 8002b94:	d00d      	beq.n	8002bb2 <HAL_SD_GetCardCSD+0x196>
 8002b96:	6803      	ldr	r3, [r0, #0]
 8002b98:	f240 51ff 	movw	r1, #1535	; 0x5ff
 8002b9c:	2201      	movs	r2, #1
 8002b9e:	6399      	str	r1, [r3, #56]	; 0x38
 8002ba0:	6b83      	ldr	r3, [r0, #56]	; 0x38
 8002ba2:	4616      	mov	r6, r2
 8002ba4:	f043 5380 	orr.w	r3, r3, #268435456	; 0x10000000
 8002ba8:	6383      	str	r3, [r0, #56]	; 0x38
 8002baa:	f880 2034 	strb.w	r2, [r0, #52]	; 0x34
 8002bae:	4630      	mov	r0, r6
 8002bb0:	bdf0      	pop	{r4, r5, r6, r7, pc}
 8002bb2:	041a      	lsls	r2, r3, #16
 8002bb4:	6ec4      	ldr	r4, [r0, #108]	; 0x6c
 8002bb6:	f44f 7600 	mov.w	r6, #512	; 0x200
 8002bba:	f402 127c 	and.w	r2, r2, #4128768	; 0x3f0000
 8002bbe:	0e23      	lsrs	r3, r4, #24
 8002bc0:	610a      	str	r2, [r1, #16]
 8002bc2:	f3c4 4207 	ubfx	r2, r4, #16, #8
 8002bc6:	690d      	ldr	r5, [r1, #16]
 8002bc8:	ea45 2503 	orr.w	r5, r5, r3, lsl #8
 8002bcc:	f3c4 2307 	ubfx	r3, r4, #8, #8
 8002bd0:	610d      	str	r5, [r1, #16]
 8002bd2:	690d      	ldr	r5, [r1, #16]
 8002bd4:	432a      	orrs	r2, r5
 8002bd6:	610a      	str	r2, [r1, #16]
 8002bd8:	690a      	ldr	r2, [r1, #16]
 8002bda:	6586      	str	r6, [r0, #88]	; 0x58
 8002bdc:	3201      	adds	r2, #1
 8002bde:	6606      	str	r6, [r0, #96]	; 0x60
 8002be0:	0292      	lsls	r2, r2, #10
 8002be2:	6542      	str	r2, [r0, #84]	; 0x54
 8002be4:	65c2      	str	r2, [r0, #92]	; 0x5c
 8002be6:	e786      	b.n	8002af6 <HAL_SD_GetCardCSD+0xda>

08002be8 <HAL_SD_InitCard>:
 8002be8:	b570      	push	{r4, r5, r6, lr}
 8002bea:	b098      	sub	sp, #96	; 0x60
 8002bec:	2500      	movs	r5, #0
 8002bee:	2176      	movs	r1, #118	; 0x76
 8002bf0:	4604      	mov	r4, r0
 8002bf2:	aa0a      	add	r2, sp, #40	; 0x28
 8002bf4:	6806      	ldr	r6, [r0, #0]
 8002bf6:	950a      	str	r5, [sp, #40]	; 0x28
 8002bf8:	ab07      	add	r3, sp, #28
 8002bfa:	9509      	str	r5, [sp, #36]	; 0x24
 8002bfc:	e9cd 510b 	strd	r5, r1, [sp, #44]	; 0x2c
 8002c00:	ca07      	ldmia	r2, {r0, r1, r2}
 8002c02:	e9cd 5507 	strd	r5, r5, [sp, #28]
 8002c06:	e88d 0007 	stmia.w	sp, {r0, r1, r2}
 8002c0a:	4630      	mov	r0, r6
 8002c0c:	cb0e      	ldmia	r3, {r1, r2, r3}
 8002c0e:	f001 fbe9 	bl	80043e4 <SDMMC_Init>
 8002c12:	6823      	ldr	r3, [r4, #0]
 8002c14:	685a      	ldr	r2, [r3, #4]
 8002c16:	4618      	mov	r0, r3
 8002c18:	f422 7280 	bic.w	r2, r2, #256	; 0x100
 8002c1c:	605a      	str	r2, [r3, #4]
 8002c1e:	f001 fc07 	bl	8004430 <SDMMC_PowerState_ON>
 8002c22:	6822      	ldr	r2, [r4, #0]
 8002c24:	2002      	movs	r0, #2
 8002c26:	6853      	ldr	r3, [r2, #4]
 8002c28:	f443 7380 	orr.w	r3, r3, #256	; 0x100
 8002c2c:	6053      	str	r3, [r2, #4]
 8002c2e:	f7fe f927 	bl	8000e80 <HAL_Delay>
 8002c32:	6820      	ldr	r0, [r4, #0]
 8002c34:	9506      	str	r5, [sp, #24]
 8002c36:	f001 fddf 	bl	80047f8 <SDMMC_CmdGoIdleState>
 8002c3a:	4605      	mov	r5, r0
 8002c3c:	b138      	cbz	r0, 8002c4e <HAL_SD_InitCard+0x66>
 8002c3e:	2001      	movs	r0, #1
 8002c40:	f884 0034 	strb.w	r0, [r4, #52]	; 0x34
 8002c44:	6ba3      	ldr	r3, [r4, #56]	; 0x38
 8002c46:	431d      	orrs	r5, r3
 8002c48:	63a5      	str	r5, [r4, #56]	; 0x38
 8002c4a:	b018      	add	sp, #96	; 0x60
 8002c4c:	bd70      	pop	{r4, r5, r6, pc}
 8002c4e:	6820      	ldr	r0, [r4, #0]
 8002c50:	f001 fdfe 	bl	8004850 <SDMMC_CmdOperCond>
 8002c54:	2800      	cmp	r0, #0
 8002c56:	d04b      	beq.n	8002cf0 <HAL_SD_InitCard+0x108>
 8002c58:	f64f 76ff 	movw	r6, #65535	; 0xffff
 8002c5c:	64a5      	str	r5, [r4, #72]	; 0x48
 8002c5e:	9b06      	ldr	r3, [sp, #24]
 8002c60:	2100      	movs	r1, #0
 8002c62:	1c5a      	adds	r2, r3, #1
 8002c64:	42b3      	cmp	r3, r6
 8002c66:	9206      	str	r2, [sp, #24]
 8002c68:	f000 80b5 	beq.w	8002dd6 <HAL_SD_InitCard+0x1ee>
 8002c6c:	6820      	ldr	r0, [r4, #0]
 8002c6e:	f001 fe2f 	bl	80048d0 <SDMMC_CmdAppCommand>
 8002c72:	2800      	cmp	r0, #0
 8002c74:	f040 80b2 	bne.w	8002ddc <HAL_SD_InitCard+0x1f4>
 8002c78:	4601      	mov	r1, r0
 8002c7a:	6820      	ldr	r0, [r4, #0]
 8002c7c:	f001 fe68 	bl	8004950 <SDMMC_CmdAppOperCommand>
 8002c80:	2800      	cmp	r0, #0
 8002c82:	f040 80ab 	bne.w	8002ddc <HAL_SD_InitCard+0x1f4>
 8002c86:	4601      	mov	r1, r0
 8002c88:	6820      	ldr	r0, [r4, #0]
 8002c8a:	f001 fbdb 	bl	8004444 <SDMMC_GetResponse>
 8002c8e:	2800      	cmp	r0, #0
 8002c90:	dae5      	bge.n	8002c5e <HAL_SD_InitCard+0x76>
 8002c92:	2300      	movs	r3, #0
 8002c94:	6463      	str	r3, [r4, #68]	; 0x44
 8002c96:	2301      	movs	r3, #1
 8002c98:	6820      	ldr	r0, [r4, #0]
 8002c9a:	f8ad 3016 	strh.w	r3, [sp, #22]
 8002c9e:	f001 fbcd 	bl	800443c <SDMMC_GetPowerState>
 8002ca2:	2800      	cmp	r0, #0
 8002ca4:	f000 8094 	beq.w	8002dd0 <HAL_SD_InitCard+0x1e8>
 8002ca8:	6c62      	ldr	r2, [r4, #68]	; 0x44
 8002caa:	6823      	ldr	r3, [r4, #0]
 8002cac:	2a03      	cmp	r2, #3
 8002cae:	d142      	bne.n	8002d36 <HAL_SD_InitCard+0x14e>
 8002cb0:	4618      	mov	r0, r3
 8002cb2:	2104      	movs	r1, #4
 8002cb4:	f001 fbc6 	bl	8004444 <SDMMC_GetResponse>
 8002cb8:	a90d      	add	r1, sp, #52	; 0x34
 8002cba:	0d03      	lsrs	r3, r0, #20
 8002cbc:	4620      	mov	r0, r4
 8002cbe:	64e3      	str	r3, [r4, #76]	; 0x4c
 8002cc0:	f7ff feac 	bl	8002a1c <HAL_SD_GetCardCSD>
 8002cc4:	6d22      	ldr	r2, [r4, #80]	; 0x50
 8002cc6:	2300      	movs	r3, #0
 8002cc8:	6820      	ldr	r0, [r4, #0]
 8002cca:	0412      	lsls	r2, r2, #16
 8002ccc:	f001 fd54 	bl	8004778 <SDMMC_CmdSelDesel>
 8002cd0:	4605      	mov	r5, r0
 8002cd2:	2800      	cmp	r0, #0
 8002cd4:	d1b3      	bne.n	8002c3e <HAL_SD_InitCard+0x56>
 8002cd6:	1d23      	adds	r3, r4, #4
 8002cd8:	f854 6b10 	ldr.w	r6, [r4], #16
 8002cdc:	e894 0007 	ldmia.w	r4, {r0, r1, r2}
 8002ce0:	e88d 0007 	stmia.w	sp, {r0, r1, r2}
 8002ce4:	4630      	mov	r0, r6
 8002ce6:	cb0e      	ldmia	r3, {r1, r2, r3}
 8002ce8:	f001 fb7c 	bl	80043e4 <SDMMC_Init>
 8002cec:	4628      	mov	r0, r5
 8002cee:	e7ac      	b.n	8002c4a <HAL_SD_InitCard+0x62>
 8002cf0:	2301      	movs	r3, #1
 8002cf2:	f64f 76ff 	movw	r6, #65535	; 0xffff
 8002cf6:	64a3      	str	r3, [r4, #72]	; 0x48
 8002cf8:	9b06      	ldr	r3, [sp, #24]
 8002cfa:	2100      	movs	r1, #0
 8002cfc:	1c5a      	adds	r2, r3, #1
 8002cfe:	42b3      	cmp	r3, r6
 8002d00:	9206      	str	r2, [sp, #24]
 8002d02:	d068      	beq.n	8002dd6 <HAL_SD_InitCard+0x1ee>
 8002d04:	6820      	ldr	r0, [r4, #0]
 8002d06:	f001 fde3 	bl	80048d0 <SDMMC_CmdAppCommand>
 8002d0a:	f04f 4180 	mov.w	r1, #1073741824	; 0x40000000
 8002d0e:	4605      	mov	r5, r0
 8002d10:	2800      	cmp	r0, #0
 8002d12:	d194      	bne.n	8002c3e <HAL_SD_InitCard+0x56>
 8002d14:	6820      	ldr	r0, [r4, #0]
 8002d16:	f001 fe1b 	bl	8004950 <SDMMC_CmdAppOperCommand>
 8002d1a:	4605      	mov	r5, r0
 8002d1c:	2800      	cmp	r0, #0
 8002d1e:	d18e      	bne.n	8002c3e <HAL_SD_InitCard+0x56>
 8002d20:	4601      	mov	r1, r0
 8002d22:	6820      	ldr	r0, [r4, #0]
 8002d24:	f001 fb8e 	bl	8004444 <SDMMC_GetResponse>
 8002d28:	2800      	cmp	r0, #0
 8002d2a:	dae5      	bge.n	8002cf8 <HAL_SD_InitCard+0x110>
 8002d2c:	0043      	lsls	r3, r0, #1
 8002d2e:	d5b0      	bpl.n	8002c92 <HAL_SD_InitCard+0xaa>
 8002d30:	2301      	movs	r3, #1
 8002d32:	6463      	str	r3, [r4, #68]	; 0x44
 8002d34:	e7af      	b.n	8002c96 <HAL_SD_InitCard+0xae>
 8002d36:	4618      	mov	r0, r3
 8002d38:	f001 fe42 	bl	80049c0 <SDMMC_CmdSendCID>
 8002d3c:	4605      	mov	r5, r0
 8002d3e:	2800      	cmp	r0, #0
 8002d40:	f47f af7d 	bne.w	8002c3e <HAL_SD_InitCard+0x56>
 8002d44:	4601      	mov	r1, r0
 8002d46:	6820      	ldr	r0, [r4, #0]
 8002d48:	f001 fb7c 	bl	8004444 <SDMMC_GetResponse>
 8002d4c:	2104      	movs	r1, #4
 8002d4e:	6760      	str	r0, [r4, #116]	; 0x74
 8002d50:	6820      	ldr	r0, [r4, #0]
 8002d52:	f001 fb77 	bl	8004444 <SDMMC_GetResponse>
 8002d56:	2108      	movs	r1, #8
 8002d58:	67a0      	str	r0, [r4, #120]	; 0x78
 8002d5a:	6820      	ldr	r0, [r4, #0]
 8002d5c:	f001 fb72 	bl	8004444 <SDMMC_GetResponse>
 8002d60:	210c      	movs	r1, #12
 8002d62:	67e0      	str	r0, [r4, #124]	; 0x7c
 8002d64:	6820      	ldr	r0, [r4, #0]
 8002d66:	f001 fb6d 	bl	8004444 <SDMMC_GetResponse>
 8002d6a:	6c63      	ldr	r3, [r4, #68]	; 0x44
 8002d6c:	f8c4 0080 	str.w	r0, [r4, #128]	; 0x80
 8002d70:	2b03      	cmp	r3, #3
 8002d72:	d036      	beq.n	8002de2 <HAL_SD_InitCard+0x1fa>
 8002d74:	f10d 0116 	add.w	r1, sp, #22
 8002d78:	6820      	ldr	r0, [r4, #0]
 8002d7a:	f001 fe95 	bl	8004aa8 <SDMMC_CmdSetRelAdd>
 8002d7e:	4605      	mov	r5, r0
 8002d80:	2800      	cmp	r0, #0
 8002d82:	f47f af5c 	bne.w	8002c3e <HAL_SD_InitCard+0x56>
 8002d86:	6c62      	ldr	r2, [r4, #68]	; 0x44
 8002d88:	6823      	ldr	r3, [r4, #0]
 8002d8a:	2a03      	cmp	r2, #3
 8002d8c:	d090      	beq.n	8002cb0 <HAL_SD_InitCard+0xc8>
 8002d8e:	f8bd 1016 	ldrh.w	r1, [sp, #22]
 8002d92:	4618      	mov	r0, r3
 8002d94:	6521      	str	r1, [r4, #80]	; 0x50
 8002d96:	0409      	lsls	r1, r1, #16
 8002d98:	f001 fe4c 	bl	8004a34 <SDMMC_CmdSendCSD>
 8002d9c:	4605      	mov	r5, r0
 8002d9e:	2800      	cmp	r0, #0
 8002da0:	f47f af4d 	bne.w	8002c3e <HAL_SD_InitCard+0x56>
 8002da4:	4601      	mov	r1, r0
 8002da6:	6820      	ldr	r0, [r4, #0]
 8002da8:	f001 fb4c 	bl	8004444 <SDMMC_GetResponse>
 8002dac:	2104      	movs	r1, #4
 8002dae:	6660      	str	r0, [r4, #100]	; 0x64
 8002db0:	6820      	ldr	r0, [r4, #0]
 8002db2:	f001 fb47 	bl	8004444 <SDMMC_GetResponse>
 8002db6:	2108      	movs	r1, #8
 8002db8:	66a0      	str	r0, [r4, #104]	; 0x68
 8002dba:	6820      	ldr	r0, [r4, #0]
 8002dbc:	f001 fb42 	bl	8004444 <SDMMC_GetResponse>
 8002dc0:	210c      	movs	r1, #12
 8002dc2:	66e0      	str	r0, [r4, #108]	; 0x6c
 8002dc4:	6820      	ldr	r0, [r4, #0]
 8002dc6:	f001 fb3d 	bl	8004444 <SDMMC_GetResponse>
 8002dca:	6823      	ldr	r3, [r4, #0]
 8002dcc:	6720      	str	r0, [r4, #112]	; 0x70
 8002dce:	e76f      	b.n	8002cb0 <HAL_SD_InitCard+0xc8>
 8002dd0:	f04f 6580 	mov.w	r5, #67108864	; 0x4000000
 8002dd4:	e733      	b.n	8002c3e <HAL_SD_InitCard+0x56>
 8002dd6:	f04f 7580 	mov.w	r5, #16777216	; 0x1000000
 8002dda:	e730      	b.n	8002c3e <HAL_SD_InitCard+0x56>
 8002ddc:	f04f 5580 	mov.w	r5, #268435456	; 0x10000000
 8002de0:	e72d      	b.n	8002c3e <HAL_SD_InitCard+0x56>
 8002de2:	6823      	ldr	r3, [r4, #0]
 8002de4:	e764      	b.n	8002cb0 <HAL_SD_InitCard+0xc8>
 8002de6:	bf00      	nop

08002de8 <HAL_SD_Init>:
 8002de8:	b1c0      	cbz	r0, 8002e1c <HAL_SD_Init+0x34>
 8002dea:	f890 3034 	ldrb.w	r3, [r0, #52]	; 0x34
 8002dee:	b510      	push	{r4, lr}
 8002df0:	f003 02ff 	and.w	r2, r3, #255	; 0xff
 8002df4:	4604      	mov	r4, r0
 8002df6:	b16b      	cbz	r3, 8002e14 <HAL_SD_Init+0x2c>
 8002df8:	2303      	movs	r3, #3
 8002dfa:	4620      	mov	r0, r4
 8002dfc:	f884 3034 	strb.w	r3, [r4, #52]	; 0x34
 8002e00:	f7ff fef2 	bl	8002be8 <HAL_SD_InitCard>
 8002e04:	2300      	movs	r3, #0
 8002e06:	2201      	movs	r2, #1
 8002e08:	63a3      	str	r3, [r4, #56]	; 0x38
 8002e0a:	4618      	mov	r0, r3
 8002e0c:	6323      	str	r3, [r4, #48]	; 0x30
 8002e0e:	f884 2034 	strb.w	r2, [r4, #52]	; 0x34
 8002e12:	bd10      	pop	{r4, pc}
 8002e14:	7702      	strb	r2, [r0, #28]
 8002e16:	f002 fd97 	bl	8005948 <HAL_SD_MspInit>
 8002e1a:	e7ed      	b.n	8002df8 <HAL_SD_Init+0x10>
 8002e1c:	2001      	movs	r0, #1
 8002e1e:	4770      	bx	lr

08002e20 <HAL_SD_GetCardInfo>:
 8002e20:	4603      	mov	r3, r0
 8002e22:	2000      	movs	r0, #0
 8002e24:	b430      	push	{r4, r5}
 8002e26:	e9d3 2511 	ldrd	r2, r5, [r3, #68]	; 0x44
 8002e2a:	6cdc      	ldr	r4, [r3, #76]	; 0x4c
 8002e2c:	600a      	str	r2, [r1, #0]
 8002e2e:	6d1a      	ldr	r2, [r3, #80]	; 0x50
 8002e30:	604d      	str	r5, [r1, #4]
 8002e32:	6d5d      	ldr	r5, [r3, #84]	; 0x54
 8002e34:	608c      	str	r4, [r1, #8]
 8002e36:	6d9c      	ldr	r4, [r3, #88]	; 0x58
 8002e38:	60ca      	str	r2, [r1, #12]
 8002e3a:	e9d3 2317 	ldrd	r2, r3, [r3, #92]	; 0x5c
 8002e3e:	e9c1 5404 	strd	r5, r4, [r1, #16]
 8002e42:	e9c1 2306 	strd	r2, r3, [r1, #24]
 8002e46:	bc30      	pop	{r4, r5}
 8002e48:	4770      	bx	lr
 8002e4a:	bf00      	nop

08002e4c <HAL_SD_GetCardState>:
 8002e4c:	6d01      	ldr	r1, [r0, #80]	; 0x50
 8002e4e:	b510      	push	{r4, lr}
 8002e50:	0409      	lsls	r1, r1, #16
 8002e52:	4604      	mov	r4, r0
 8002e54:	6800      	ldr	r0, [r0, #0]
 8002e56:	f001 fe87 	bl	8004b68 <SDMMC_CmdSendStatus>
 8002e5a:	4601      	mov	r1, r0
 8002e5c:	b120      	cbz	r0, 8002e68 <HAL_SD_GetCardState+0x1c>
 8002e5e:	6ba3      	ldr	r3, [r4, #56]	; 0x38
 8002e60:	2000      	movs	r0, #0
 8002e62:	4319      	orrs	r1, r3
 8002e64:	63a1      	str	r1, [r4, #56]	; 0x38
 8002e66:	bd10      	pop	{r4, pc}
 8002e68:	6820      	ldr	r0, [r4, #0]
 8002e6a:	f001 faeb 	bl	8004444 <SDMMC_GetResponse>
 8002e6e:	f3c0 2043 	ubfx	r0, r0, #9, #4
 8002e72:	bd10      	pop	{r4, pc}

08002e74 <SPI_EndRxTxTransaction.constprop.10>:
 8002e74:	b538      	push	{r3, r4, r5, lr}
 8002e76:	4604      	mov	r4, r0
 8002e78:	460d      	mov	r5, r1
 8002e7a:	e004      	b.n	8002e86 <SPI_EndRxTxTransaction.constprop.10+0x12>
 8002e7c:	f7fd fffa 	bl	8000e74 <HAL_GetTick>
 8002e80:	1b40      	subs	r0, r0, r5
 8002e82:	2863      	cmp	r0, #99	; 0x63
 8002e84:	d81b      	bhi.n	8002ebe <SPI_EndRxTxTransaction.constprop.10+0x4a>
 8002e86:	6823      	ldr	r3, [r4, #0]
 8002e88:	689a      	ldr	r2, [r3, #8]
 8002e8a:	f412 5fc0 	tst.w	r2, #6144	; 0x1800
 8002e8e:	d1f5      	bne.n	8002e7c <SPI_EndRxTxTransaction.constprop.10+0x8>
 8002e90:	e005      	b.n	8002e9e <SPI_EndRxTxTransaction.constprop.10+0x2a>
 8002e92:	f7fd ffef 	bl	8000e74 <HAL_GetTick>
 8002e96:	1b40      	subs	r0, r0, r5
 8002e98:	6823      	ldr	r3, [r4, #0]
 8002e9a:	2863      	cmp	r0, #99	; 0x63
 8002e9c:	d810      	bhi.n	8002ec0 <SPI_EndRxTxTransaction.constprop.10+0x4c>
 8002e9e:	689a      	ldr	r2, [r3, #8]
 8002ea0:	0612      	lsls	r2, r2, #24
 8002ea2:	d4f6      	bmi.n	8002e92 <SPI_EndRxTxTransaction.constprop.10+0x1e>
 8002ea4:	e006      	b.n	8002eb4 <SPI_EndRxTxTransaction.constprop.10+0x40>
 8002ea6:	7b1b      	ldrb	r3, [r3, #12]
 8002ea8:	f7fd ffe4 	bl	8000e74 <HAL_GetTick>
 8002eac:	1b40      	subs	r0, r0, r5
 8002eae:	6823      	ldr	r3, [r4, #0]
 8002eb0:	2863      	cmp	r0, #99	; 0x63
 8002eb2:	d805      	bhi.n	8002ec0 <SPI_EndRxTxTransaction.constprop.10+0x4c>
 8002eb4:	6898      	ldr	r0, [r3, #8]
 8002eb6:	f410 60c0 	ands.w	r0, r0, #1536	; 0x600
 8002eba:	d1f4      	bne.n	8002ea6 <SPI_EndRxTxTransaction.constprop.10+0x32>
 8002ebc:	bd38      	pop	{r3, r4, r5, pc}
 8002ebe:	6823      	ldr	r3, [r4, #0]
 8002ec0:	6861      	ldr	r1, [r4, #4]
 8002ec2:	685a      	ldr	r2, [r3, #4]
 8002ec4:	f5b1 7f82 	cmp.w	r1, #260	; 0x104
 8002ec8:	f022 02e0 	bic.w	r2, r2, #224	; 0xe0
 8002ecc:	605a      	str	r2, [r3, #4]
 8002ece:	d017      	beq.n	8002f00 <SPI_EndRxTxTransaction.constprop.10+0x8c>
 8002ed0:	6aa2      	ldr	r2, [r4, #40]	; 0x28
 8002ed2:	f5b2 5f00 	cmp.w	r2, #8192	; 0x2000
 8002ed6:	d107      	bne.n	8002ee8 <SPI_EndRxTxTransaction.constprop.10+0x74>
 8002ed8:	681a      	ldr	r2, [r3, #0]
 8002eda:	f422 5200 	bic.w	r2, r2, #8192	; 0x2000
 8002ede:	601a      	str	r2, [r3, #0]
 8002ee0:	681a      	ldr	r2, [r3, #0]
 8002ee2:	f442 5200 	orr.w	r2, r2, #8192	; 0x2000
 8002ee6:	601a      	str	r2, [r3, #0]
 8002ee8:	2301      	movs	r3, #1
 8002eea:	2200      	movs	r2, #0
 8002eec:	2003      	movs	r0, #3
 8002eee:	f884 305d 	strb.w	r3, [r4, #93]	; 0x5d
 8002ef2:	6e23      	ldr	r3, [r4, #96]	; 0x60
 8002ef4:	f884 205c 	strb.w	r2, [r4, #92]	; 0x5c
 8002ef8:	f043 0320 	orr.w	r3, r3, #32
 8002efc:	6623      	str	r3, [r4, #96]	; 0x60
 8002efe:	bd38      	pop	{r3, r4, r5, pc}
 8002f00:	68a2      	ldr	r2, [r4, #8]
 8002f02:	f5b2 4f00 	cmp.w	r2, #32768	; 0x8000
 8002f06:	d002      	beq.n	8002f0e <SPI_EndRxTxTransaction.constprop.10+0x9a>
 8002f08:	f5b2 6f80 	cmp.w	r2, #1024	; 0x400
 8002f0c:	d1e0      	bne.n	8002ed0 <SPI_EndRxTxTransaction.constprop.10+0x5c>
 8002f0e:	681a      	ldr	r2, [r3, #0]
 8002f10:	f022 0240 	bic.w	r2, r2, #64	; 0x40
 8002f14:	601a      	str	r2, [r3, #0]
 8002f16:	e7db      	b.n	8002ed0 <SPI_EndRxTxTransaction.constprop.10+0x5c>

08002f18 <HAL_SPI_Init>:
 8002f18:	2800      	cmp	r0, #0
 8002f1a:	d05d      	beq.n	8002fd8 <HAL_SPI_Init+0xc0>
 8002f1c:	2200      	movs	r2, #0
 8002f1e:	f890 305d 	ldrb.w	r3, [r0, #93]	; 0x5d
 8002f22:	e92d 41f0 	stmdb	sp!, {r4, r5, r6, r7, r8, lr}
 8002f26:	6282      	str	r2, [r0, #40]	; 0x28
 8002f28:	4604      	mov	r4, r0
 8002f2a:	f003 02ff 	and.w	r2, r3, #255	; 0xff
 8002f2e:	2b00      	cmp	r3, #0
 8002f30:	d04d      	beq.n	8002fce <HAL_SPI_Init+0xb6>
 8002f32:	68e7      	ldr	r7, [r4, #12]
 8002f34:	2302      	movs	r3, #2
 8002f36:	6822      	ldr	r2, [r4, #0]
 8002f38:	f5b7 6fe0 	cmp.w	r7, #1792	; 0x700
 8002f3c:	f884 305d 	strb.w	r3, [r4, #93]	; 0x5d
 8002f40:	f427 6100 	bic.w	r1, r7, #2048	; 0x800
 8002f44:	6813      	ldr	r3, [r2, #0]
 8002f46:	bf94      	ite	ls
 8002f48:	f44f 5580 	movls.w	r5, #4096	; 0x1000
 8002f4c:	2500      	movhi	r5, #0
 8002f4e:	f023 0340 	bic.w	r3, r3, #64	; 0x40
 8002f52:	f5b1 6fe0 	cmp.w	r1, #1792	; 0x700
 8002f56:	6013      	str	r3, [r2, #0]
 8002f58:	d135      	bne.n	8002fc6 <HAL_SPI_Init+0xae>
 8002f5a:	6aa6      	ldr	r6, [r4, #40]	; 0x28
 8002f5c:	6b23      	ldr	r3, [r4, #48]	; 0x30
 8002f5e:	b92b      	cbnz	r3, 8002f6c <HAL_SPI_Init+0x54>
 8002f60:	f5b7 6fe0 	cmp.w	r7, #1792	; 0x700
 8002f64:	bf8c      	ite	hi
 8002f66:	2302      	movhi	r3, #2
 8002f68:	2301      	movls	r3, #1
 8002f6a:	6323      	str	r3, [r4, #48]	; 0x30
 8002f6c:	68a1      	ldr	r1, [r4, #8]
 8002f6e:	f04f 0800 	mov.w	r8, #0
 8002f72:	6863      	ldr	r3, [r4, #4]
 8002f74:	6920      	ldr	r0, [r4, #16]
 8002f76:	430b      	orrs	r3, r1
 8002f78:	6961      	ldr	r1, [r4, #20]
 8002f7a:	4303      	orrs	r3, r0
 8002f7c:	430b      	orrs	r3, r1
 8002f7e:	e9d4 0106 	ldrd	r0, r1, [r4, #24]
 8002f82:	430b      	orrs	r3, r1
 8002f84:	6a61      	ldr	r1, [r4, #36]	; 0x24
 8002f86:	ea4f 4c10 	mov.w	ip, r0, lsr #16
 8002f8a:	f400 7e00 	and.w	lr, r0, #512	; 0x200
 8002f8e:	430f      	orrs	r7, r1
 8002f90:	6a21      	ldr	r1, [r4, #32]
 8002f92:	f00c 0c04 	and.w	ip, ip, #4
 8002f96:	4640      	mov	r0, r8
 8002f98:	430b      	orrs	r3, r1
 8002f9a:	6b61      	ldr	r1, [r4, #52]	; 0x34
 8002f9c:	430f      	orrs	r7, r1
 8002f9e:	ea43 030e 	orr.w	r3, r3, lr
 8002fa2:	f04f 0e01 	mov.w	lr, #1
 8002fa6:	ea47 070c 	orr.w	r7, r7, ip
 8002faa:	4333      	orrs	r3, r6
 8002fac:	433d      	orrs	r5, r7
 8002fae:	6013      	str	r3, [r2, #0]
 8002fb0:	6055      	str	r5, [r2, #4]
 8002fb2:	69d3      	ldr	r3, [r2, #28]
 8002fb4:	f423 6300 	bic.w	r3, r3, #2048	; 0x800
 8002fb8:	61d3      	str	r3, [r2, #28]
 8002fba:	f8c4 8060 	str.w	r8, [r4, #96]	; 0x60
 8002fbe:	f884 e05d 	strb.w	lr, [r4, #93]	; 0x5d
 8002fc2:	e8bd 81f0 	ldmia.w	sp!, {r4, r5, r6, r7, r8, pc}
 8002fc6:	2300      	movs	r3, #0
 8002fc8:	461e      	mov	r6, r3
 8002fca:	62a3      	str	r3, [r4, #40]	; 0x28
 8002fcc:	e7c6      	b.n	8002f5c <HAL_SPI_Init+0x44>
 8002fce:	f880 205c 	strb.w	r2, [r0, #92]	; 0x5c
 8002fd2:	f002 fdbb 	bl	8005b4c <HAL_SPI_MspInit>
 8002fd6:	e7ac      	b.n	8002f32 <HAL_SPI_Init+0x1a>
 8002fd8:	2001      	movs	r0, #1
 8002fda:	4770      	bx	lr

08002fdc <HAL_SPI_Transmit_DMA>:
 8002fdc:	f890 305c 	ldrb.w	r3, [r0, #92]	; 0x5c
 8002fe0:	2b01      	cmp	r3, #1
 8002fe2:	d053      	beq.n	800308c <HAL_SPI_Transmit_DMA+0xb0>
 8002fe4:	b570      	push	{r4, r5, r6, lr}
 8002fe6:	4604      	mov	r4, r0
 8002fe8:	2001      	movs	r0, #1
 8002fea:	f894 305d 	ldrb.w	r3, [r4, #93]	; 0x5d
 8002fee:	f884 005c 	strb.w	r0, [r4, #92]	; 0x5c
 8002ff2:	4283      	cmp	r3, r0
 8002ff4:	d004      	beq.n	8003000 <HAL_SPI_Transmit_DMA+0x24>
 8002ff6:	2002      	movs	r0, #2
 8002ff8:	2300      	movs	r3, #0
 8002ffa:	f884 305c 	strb.w	r3, [r4, #92]	; 0x5c
 8002ffe:	bd70      	pop	{r4, r5, r6, pc}
 8003000:	2900      	cmp	r1, #0
 8003002:	d03e      	beq.n	8003082 <HAL_SPI_Transmit_DMA+0xa6>
 8003004:	fab2 f382 	clz	r3, r2
 8003008:	095b      	lsrs	r3, r3, #5
 800300a:	2b00      	cmp	r3, #0
 800300c:	d139      	bne.n	8003082 <HAL_SPI_Transmit_DMA+0xa6>
 800300e:	68a0      	ldr	r0, [r4, #8]
 8003010:	2503      	movs	r5, #3
 8003012:	87a2      	strh	r2, [r4, #60]	; 0x3c
 8003014:	f5b0 4f00 	cmp.w	r0, #32768	; 0x8000
 8003018:	f884 505d 	strb.w	r5, [r4, #93]	; 0x5d
 800301c:	63a1      	str	r1, [r4, #56]	; 0x38
 800301e:	6623      	str	r3, [r4, #96]	; 0x60
 8003020:	6423      	str	r3, [r4, #64]	; 0x40
 8003022:	87e2      	strh	r2, [r4, #62]	; 0x3e
 8003024:	f8a4 3044 	strh.w	r3, [r4, #68]	; 0x44
 8003028:	6822      	ldr	r2, [r4, #0]
 800302a:	f8a4 3046 	strh.w	r3, [r4, #70]	; 0x46
 800302e:	e9c4 3313 	strd	r3, r3, [r4, #76]	; 0x4c
 8003032:	d103      	bne.n	800303c <HAL_SPI_Transmit_DMA+0x60>
 8003034:	6813      	ldr	r3, [r2, #0]
 8003036:	f443 4380 	orr.w	r3, r3, #16384	; 0x4000
 800303a:	6013      	str	r3, [r2, #0]
 800303c:	6d60      	ldr	r0, [r4, #84]	; 0x54
 800303e:	2500      	movs	r5, #0
 8003040:	6853      	ldr	r3, [r2, #4]
 8003042:	6505      	str	r5, [r0, #80]	; 0x50
 8003044:	4d25      	ldr	r5, [pc, #148]	; (80030dc <HAL_SPI_Transmit_DMA+0x100>)
 8003046:	f423 4380 	bic.w	r3, r3, #16384	; 0x4000
 800304a:	4e25      	ldr	r6, [pc, #148]	; (80030e0 <HAL_SPI_Transmit_DMA+0x104>)
 800304c:	63c5      	str	r5, [r0, #60]	; 0x3c
 800304e:	68e5      	ldr	r5, [r4, #12]
 8003050:	6406      	str	r6, [r0, #64]	; 0x40
 8003052:	f5b5 6fe0 	cmp.w	r5, #1792	; 0x700
 8003056:	4e23      	ldr	r6, [pc, #140]	; (80030e4 <HAL_SPI_Transmit_DMA+0x108>)
 8003058:	64c6      	str	r6, [r0, #76]	; 0x4c
 800305a:	6053      	str	r3, [r2, #4]
 800305c:	d803      	bhi.n	8003066 <HAL_SPI_Transmit_DMA+0x8a>
 800305e:	6983      	ldr	r3, [r0, #24]
 8003060:	f5b3 5f00 	cmp.w	r3, #8192	; 0x2000
 8003064:	d025      	beq.n	80030b2 <HAL_SPI_Transmit_DMA+0xd6>
 8003066:	8fe3      	ldrh	r3, [r4, #62]	; 0x3e
 8003068:	320c      	adds	r2, #12
 800306a:	f7fe fa83 	bl	8001574 <HAL_DMA_Start_IT>
 800306e:	b178      	cbz	r0, 8003090 <HAL_SPI_Transmit_DMA+0xb4>
 8003070:	6e23      	ldr	r3, [r4, #96]	; 0x60
 8003072:	2201      	movs	r2, #1
 8003074:	f043 0310 	orr.w	r3, r3, #16
 8003078:	4610      	mov	r0, r2
 800307a:	6623      	str	r3, [r4, #96]	; 0x60
 800307c:	f884 205d 	strb.w	r2, [r4, #93]	; 0x5d
 8003080:	e7ba      	b.n	8002ff8 <HAL_SPI_Transmit_DMA+0x1c>
 8003082:	2300      	movs	r3, #0
 8003084:	2001      	movs	r0, #1
 8003086:	f884 305c 	strb.w	r3, [r4, #92]	; 0x5c
 800308a:	bd70      	pop	{r4, r5, r6, pc}
 800308c:	2002      	movs	r0, #2
 800308e:	4770      	bx	lr
 8003090:	6823      	ldr	r3, [r4, #0]
 8003092:	681a      	ldr	r2, [r3, #0]
 8003094:	0652      	lsls	r2, r2, #25
 8003096:	d403      	bmi.n	80030a0 <HAL_SPI_Transmit_DMA+0xc4>
 8003098:	681a      	ldr	r2, [r3, #0]
 800309a:	f042 0240 	orr.w	r2, r2, #64	; 0x40
 800309e:	601a      	str	r2, [r3, #0]
 80030a0:	685a      	ldr	r2, [r3, #4]
 80030a2:	f042 0220 	orr.w	r2, r2, #32
 80030a6:	605a      	str	r2, [r3, #4]
 80030a8:	685a      	ldr	r2, [r3, #4]
 80030aa:	f042 0202 	orr.w	r2, r2, #2
 80030ae:	605a      	str	r2, [r3, #4]
 80030b0:	e7a2      	b.n	8002ff8 <HAL_SPI_Transmit_DMA+0x1c>
 80030b2:	8fe3      	ldrh	r3, [r4, #62]	; 0x3e
 80030b4:	f013 0f01 	tst.w	r3, #1
 80030b8:	6853      	ldr	r3, [r2, #4]
 80030ba:	d106      	bne.n	80030ca <HAL_SPI_Transmit_DMA+0xee>
 80030bc:	f423 4380 	bic.w	r3, r3, #16384	; 0x4000
 80030c0:	6053      	str	r3, [r2, #4]
 80030c2:	8fe3      	ldrh	r3, [r4, #62]	; 0x3e
 80030c4:	085b      	lsrs	r3, r3, #1
 80030c6:	87e3      	strh	r3, [r4, #62]	; 0x3e
 80030c8:	e7cd      	b.n	8003066 <HAL_SPI_Transmit_DMA+0x8a>
 80030ca:	f443 4380 	orr.w	r3, r3, #16384	; 0x4000
 80030ce:	6053      	str	r3, [r2, #4]
 80030d0:	8fe3      	ldrh	r3, [r4, #62]	; 0x3e
 80030d2:	085b      	lsrs	r3, r3, #1
 80030d4:	3301      	adds	r3, #1
 80030d6:	87e3      	strh	r3, [r4, #62]	; 0x3e
 80030d8:	e7c5      	b.n	8003066 <HAL_SPI_Transmit_DMA+0x8a>
 80030da:	bf00      	nop
 80030dc:	08003449 	.word	0x08003449
 80030e0:	080033f5 	.word	0x080033f5
 80030e4:	08003425 	.word	0x08003425

080030e8 <HAL_SPI_TransmitReceive_DMA>:
 80030e8:	b570      	push	{r4, r5, r6, lr}
 80030ea:	f890 405c 	ldrb.w	r4, [r0, #92]	; 0x5c
 80030ee:	2c01      	cmp	r4, #1
 80030f0:	d067      	beq.n	80031c2 <HAL_SPI_TransmitReceive_DMA+0xda>
 80030f2:	4604      	mov	r4, r0
 80030f4:	f890 005d 	ldrb.w	r0, [r0, #93]	; 0x5d
 80030f8:	2501      	movs	r5, #1
 80030fa:	b2c0      	uxtb	r0, r0
 80030fc:	f884 505c 	strb.w	r5, [r4, #92]	; 0x5c
 8003100:	42a8      	cmp	r0, r5
 8003102:	d00d      	beq.n	8003120 <HAL_SPI_TransmitReceive_DMA+0x38>
 8003104:	6865      	ldr	r5, [r4, #4]
 8003106:	f5b5 7f82 	cmp.w	r5, #260	; 0x104
 800310a:	d004      	beq.n	8003116 <HAL_SPI_TransmitReceive_DMA+0x2e>
 800310c:	2002      	movs	r0, #2
 800310e:	2300      	movs	r3, #0
 8003110:	f884 305c 	strb.w	r3, [r4, #92]	; 0x5c
 8003114:	bd70      	pop	{r4, r5, r6, pc}
 8003116:	68a5      	ldr	r5, [r4, #8]
 8003118:	2d00      	cmp	r5, #0
 800311a:	d1f7      	bne.n	800310c <HAL_SPI_TransmitReceive_DMA+0x24>
 800311c:	2804      	cmp	r0, #4
 800311e:	d1f5      	bne.n	800310c <HAL_SPI_TransmitReceive_DMA+0x24>
 8003120:	2b00      	cmp	r3, #0
 8003122:	bf18      	it	ne
 8003124:	2a00      	cmpne	r2, #0
 8003126:	d04a      	beq.n	80031be <HAL_SPI_TransmitReceive_DMA+0xd6>
 8003128:	2900      	cmp	r1, #0
 800312a:	d048      	beq.n	80031be <HAL_SPI_TransmitReceive_DMA+0xd6>
 800312c:	f894 005d 	ldrb.w	r0, [r4, #93]	; 0x5d
 8003130:	2804      	cmp	r0, #4
 8003132:	d002      	beq.n	800313a <HAL_SPI_TransmitReceive_DMA+0x52>
 8003134:	2005      	movs	r0, #5
 8003136:	f884 005d 	strb.w	r0, [r4, #93]	; 0x5d
 800313a:	2500      	movs	r5, #0
 800313c:	6820      	ldr	r0, [r4, #0]
 800313e:	63a1      	str	r1, [r4, #56]	; 0x38
 8003140:	6625      	str	r5, [r4, #96]	; 0x60
 8003142:	68e6      	ldr	r6, [r4, #12]
 8003144:	87e3      	strh	r3, [r4, #62]	; 0x3e
 8003146:	f8a4 3046 	strh.w	r3, [r4, #70]	; 0x46
 800314a:	f5b6 6fe0 	cmp.w	r6, #1792	; 0x700
 800314e:	6841      	ldr	r1, [r0, #4]
 8003150:	6422      	str	r2, [r4, #64]	; 0x40
 8003152:	f421 41c0 	bic.w	r1, r1, #24576	; 0x6000
 8003156:	87a3      	strh	r3, [r4, #60]	; 0x3c
 8003158:	f8a4 3044 	strh.w	r3, [r4, #68]	; 0x44
 800315c:	6da2      	ldr	r2, [r4, #88]	; 0x58
 800315e:	e9c4 5513 	strd	r5, r5, [r4, #76]	; 0x4c
 8003162:	6041      	str	r1, [r0, #4]
 8003164:	d82f      	bhi.n	80031c6 <HAL_SPI_TransmitReceive_DMA+0xde>
 8003166:	6d65      	ldr	r5, [r4, #84]	; 0x54
 8003168:	6841      	ldr	r1, [r0, #4]
 800316a:	69ad      	ldr	r5, [r5, #24]
 800316c:	f441 5180 	orr.w	r1, r1, #4096	; 0x1000
 8003170:	f5b5 5f00 	cmp.w	r5, #8192	; 0x2000
 8003174:	6041      	str	r1, [r0, #4]
 8003176:	d067      	beq.n	8003248 <HAL_SPI_TransmitReceive_DMA+0x160>
 8003178:	6993      	ldr	r3, [r2, #24]
 800317a:	f5b3 5f00 	cmp.w	r3, #8192	; 0x2000
 800317e:	d050      	beq.n	8003222 <HAL_SPI_TransmitReceive_DMA+0x13a>
 8003180:	f894 305d 	ldrb.w	r3, [r4, #93]	; 0x5d
 8003184:	2b04      	cmp	r3, #4
 8003186:	d023      	beq.n	80031d0 <HAL_SPI_TransmitReceive_DMA+0xe8>
 8003188:	493e      	ldr	r1, [pc, #248]	; (8003284 <HAL_SPI_TransmitReceive_DMA+0x19c>)
 800318a:	4b3f      	ldr	r3, [pc, #252]	; (8003288 <HAL_SPI_TransmitReceive_DMA+0x1a0>)
 800318c:	e9c2 310f 	strd	r3, r1, [r2, #60]	; 0x3c
 8003190:	4e3e      	ldr	r6, [pc, #248]	; (800328c <HAL_SPI_TransmitReceive_DMA+0x1a4>)
 8003192:	2500      	movs	r5, #0
 8003194:	f8b4 3046 	ldrh.w	r3, [r4, #70]	; 0x46
 8003198:	f100 010c 	add.w	r1, r0, #12
 800319c:	64d6      	str	r6, [r2, #76]	; 0x4c
 800319e:	4610      	mov	r0, r2
 80031a0:	6515      	str	r5, [r2, #80]	; 0x50
 80031a2:	6c22      	ldr	r2, [r4, #64]	; 0x40
 80031a4:	f7fe f9e6 	bl	8001574 <HAL_DMA_Start_IT>
 80031a8:	4601      	mov	r1, r0
 80031aa:	b1b0      	cbz	r0, 80031da <HAL_SPI_TransmitReceive_DMA+0xf2>
 80031ac:	6e23      	ldr	r3, [r4, #96]	; 0x60
 80031ae:	2201      	movs	r2, #1
 80031b0:	f043 0310 	orr.w	r3, r3, #16
 80031b4:	4610      	mov	r0, r2
 80031b6:	6623      	str	r3, [r4, #96]	; 0x60
 80031b8:	f884 205d 	strb.w	r2, [r4, #93]	; 0x5d
 80031bc:	e7a7      	b.n	800310e <HAL_SPI_TransmitReceive_DMA+0x26>
 80031be:	2001      	movs	r0, #1
 80031c0:	e7a5      	b.n	800310e <HAL_SPI_TransmitReceive_DMA+0x26>
 80031c2:	2002      	movs	r0, #2
 80031c4:	bd70      	pop	{r4, r5, r6, pc}
 80031c6:	6843      	ldr	r3, [r0, #4]
 80031c8:	f423 5380 	bic.w	r3, r3, #4096	; 0x1000
 80031cc:	6043      	str	r3, [r0, #4]
 80031ce:	e7d7      	b.n	8003180 <HAL_SPI_TransmitReceive_DMA+0x98>
 80031d0:	492f      	ldr	r1, [pc, #188]	; (8003290 <HAL_SPI_TransmitReceive_DMA+0x1a8>)
 80031d2:	4b30      	ldr	r3, [pc, #192]	; (8003294 <HAL_SPI_TransmitReceive_DMA+0x1ac>)
 80031d4:	e9c2 310f 	strd	r3, r1, [r2, #60]	; 0x3c
 80031d8:	e7da      	b.n	8003190 <HAL_SPI_TransmitReceive_DMA+0xa8>
 80031da:	6823      	ldr	r3, [r4, #0]
 80031dc:	6d65      	ldr	r5, [r4, #84]	; 0x54
 80031de:	685e      	ldr	r6, [r3, #4]
 80031e0:	f103 020c 	add.w	r2, r3, #12
 80031e4:	4628      	mov	r0, r5
 80031e6:	f046 0601 	orr.w	r6, r6, #1
 80031ea:	605e      	str	r6, [r3, #4]
 80031ec:	8fe3      	ldrh	r3, [r4, #62]	; 0x3e
 80031ee:	e9c5 110f 	strd	r1, r1, [r5, #60]	; 0x3c
 80031f2:	e9c5 1113 	strd	r1, r1, [r5, #76]	; 0x4c
 80031f6:	6ba1      	ldr	r1, [r4, #56]	; 0x38
 80031f8:	f7fe f9bc 	bl	8001574 <HAL_DMA_Start_IT>
 80031fc:	2800      	cmp	r0, #0
 80031fe:	d1d5      	bne.n	80031ac <HAL_SPI_TransmitReceive_DMA+0xc4>
 8003200:	6823      	ldr	r3, [r4, #0]
 8003202:	681a      	ldr	r2, [r3, #0]
 8003204:	0652      	lsls	r2, r2, #25
 8003206:	d403      	bmi.n	8003210 <HAL_SPI_TransmitReceive_DMA+0x128>
 8003208:	681a      	ldr	r2, [r3, #0]
 800320a:	f042 0240 	orr.w	r2, r2, #64	; 0x40
 800320e:	601a      	str	r2, [r3, #0]
 8003210:	685a      	ldr	r2, [r3, #4]
 8003212:	f042 0220 	orr.w	r2, r2, #32
 8003216:	605a      	str	r2, [r3, #4]
 8003218:	685a      	ldr	r2, [r3, #4]
 800321a:	f042 0202 	orr.w	r2, r2, #2
 800321e:	605a      	str	r2, [r3, #4]
 8003220:	e775      	b.n	800310e <HAL_SPI_TransmitReceive_DMA+0x26>
 8003222:	6843      	ldr	r3, [r0, #4]
 8003224:	f423 5380 	bic.w	r3, r3, #4096	; 0x1000
 8003228:	6043      	str	r3, [r0, #4]
 800322a:	f8b4 3046 	ldrh.w	r3, [r4, #70]	; 0x46
 800322e:	f013 0f01 	tst.w	r3, #1
 8003232:	6843      	ldr	r3, [r0, #4]
 8003234:	d113      	bne.n	800325e <HAL_SPI_TransmitReceive_DMA+0x176>
 8003236:	f423 5300 	bic.w	r3, r3, #8192	; 0x2000
 800323a:	6043      	str	r3, [r0, #4]
 800323c:	f8b4 3046 	ldrh.w	r3, [r4, #70]	; 0x46
 8003240:	085b      	lsrs	r3, r3, #1
 8003242:	f8a4 3046 	strh.w	r3, [r4, #70]	; 0x46
 8003246:	e79b      	b.n	8003180 <HAL_SPI_TransmitReceive_DMA+0x98>
 8003248:	f013 0f01 	tst.w	r3, #1
 800324c:	6843      	ldr	r3, [r0, #4]
 800324e:	d110      	bne.n	8003272 <HAL_SPI_TransmitReceive_DMA+0x18a>
 8003250:	f423 4380 	bic.w	r3, r3, #16384	; 0x4000
 8003254:	6043      	str	r3, [r0, #4]
 8003256:	8fe3      	ldrh	r3, [r4, #62]	; 0x3e
 8003258:	085b      	lsrs	r3, r3, #1
 800325a:	87e3      	strh	r3, [r4, #62]	; 0x3e
 800325c:	e78c      	b.n	8003178 <HAL_SPI_TransmitReceive_DMA+0x90>
 800325e:	f443 5300 	orr.w	r3, r3, #8192	; 0x2000
 8003262:	6043      	str	r3, [r0, #4]
 8003264:	f8b4 3046 	ldrh.w	r3, [r4, #70]	; 0x46
 8003268:	085b      	lsrs	r3, r3, #1
 800326a:	3301      	adds	r3, #1
 800326c:	f8a4 3046 	strh.w	r3, [r4, #70]	; 0x46
 8003270:	e786      	b.n	8003180 <HAL_SPI_TransmitReceive_DMA+0x98>
 8003272:	f443 4380 	orr.w	r3, r3, #16384	; 0x4000
 8003276:	6043      	str	r3, [r0, #4]
 8003278:	8fe3      	ldrh	r3, [r4, #62]	; 0x3e
 800327a:	085b      	lsrs	r3, r3, #1
 800327c:	3301      	adds	r3, #1
 800327e:	87e3      	strh	r3, [r4, #62]	; 0x3e
 8003280:	e77a      	b.n	8003178 <HAL_SPI_TransmitReceive_DMA+0x90>
 8003282:	bf00      	nop
 8003284:	08003415 	.word	0x08003415
 8003288:	080035b5 	.word	0x080035b5
 800328c:	08003425 	.word	0x08003425
 8003290:	08003405 	.word	0x08003405
 8003294:	080034b5 	.word	0x080034b5

08003298 <HAL_SPI_Receive_DMA>:
 8003298:	6883      	ldr	r3, [r0, #8]
 800329a:	e92d 41f0 	stmdb	sp!, {r4, r5, r6, r7, r8, lr}
 800329e:	4604      	mov	r4, r0
 80032a0:	460d      	mov	r5, r1
 80032a2:	b91b      	cbnz	r3, 80032ac <HAL_SPI_Receive_DMA+0x14>
 80032a4:	6846      	ldr	r6, [r0, #4]
 80032a6:	f5b6 7f82 	cmp.w	r6, #260	; 0x104
 80032aa:	d052      	beq.n	8003352 <HAL_SPI_Receive_DMA+0xba>
 80032ac:	f894 105c 	ldrb.w	r1, [r4, #92]	; 0x5c
 80032b0:	2901      	cmp	r1, #1
 80032b2:	d059      	beq.n	8003368 <HAL_SPI_Receive_DMA+0xd0>
 80032b4:	2001      	movs	r0, #1
 80032b6:	f894 105d 	ldrb.w	r1, [r4, #93]	; 0x5d
 80032ba:	4281      	cmp	r1, r0
 80032bc:	f884 005c 	strb.w	r0, [r4, #92]	; 0x5c
 80032c0:	d005      	beq.n	80032ce <HAL_SPI_Receive_DMA+0x36>
 80032c2:	2002      	movs	r0, #2
 80032c4:	2300      	movs	r3, #0
 80032c6:	f884 305c 	strb.w	r3, [r4, #92]	; 0x5c
 80032ca:	e8bd 81f0 	ldmia.w	sp!, {r4, r5, r6, r7, r8, pc}
 80032ce:	2d00      	cmp	r5, #0
 80032d0:	d048      	beq.n	8003364 <HAL_SPI_Receive_DMA+0xcc>
 80032d2:	fab2 f082 	clz	r0, r2
 80032d6:	0940      	lsrs	r0, r0, #5
 80032d8:	2800      	cmp	r0, #0
 80032da:	d143      	bne.n	8003364 <HAL_SPI_Receive_DMA+0xcc>
 80032dc:	2104      	movs	r1, #4
 80032de:	f5b3 4f00 	cmp.w	r3, #32768	; 0x8000
 80032e2:	6425      	str	r5, [r4, #64]	; 0x40
 80032e4:	f884 105d 	strb.w	r1, [r4, #93]	; 0x5d
 80032e8:	f8a4 2044 	strh.w	r2, [r4, #68]	; 0x44
 80032ec:	6620      	str	r0, [r4, #96]	; 0x60
 80032ee:	87a0      	strh	r0, [r4, #60]	; 0x3c
 80032f0:	f8a4 2046 	strh.w	r2, [r4, #70]	; 0x46
 80032f4:	6821      	ldr	r1, [r4, #0]
 80032f6:	87e0      	strh	r0, [r4, #62]	; 0x3e
 80032f8:	e9c4 0013 	strd	r0, r0, [r4, #76]	; 0x4c
 80032fc:	d103      	bne.n	8003306 <HAL_SPI_Receive_DMA+0x6e>
 80032fe:	680b      	ldr	r3, [r1, #0]
 8003300:	f423 4380 	bic.w	r3, r3, #16384	; 0x4000
 8003304:	600b      	str	r3, [r1, #0]
 8003306:	684a      	ldr	r2, [r1, #4]
 8003308:	68e0      	ldr	r0, [r4, #12]
 800330a:	f422 5200 	bic.w	r2, r2, #8192	; 0x2000
 800330e:	6da3      	ldr	r3, [r4, #88]	; 0x58
 8003310:	f5b0 6fe0 	cmp.w	r0, #1792	; 0x700
 8003314:	604a      	str	r2, [r1, #4]
 8003316:	684a      	ldr	r2, [r1, #4]
 8003318:	d93a      	bls.n	8003390 <HAL_SPI_Receive_DMA+0xf8>
 800331a:	f422 5280 	bic.w	r2, r2, #4096	; 0x1000
 800331e:	604a      	str	r2, [r1, #4]
 8003320:	2000      	movs	r0, #0
 8003322:	4f2d      	ldr	r7, [pc, #180]	; (80033d8 <HAL_SPI_Receive_DMA+0x140>)
 8003324:	4e2d      	ldr	r6, [pc, #180]	; (80033dc <HAL_SPI_Receive_DMA+0x144>)
 8003326:	462a      	mov	r2, r5
 8003328:	4d2d      	ldr	r5, [pc, #180]	; (80033e0 <HAL_SPI_Receive_DMA+0x148>)
 800332a:	310c      	adds	r1, #12
 800332c:	6518      	str	r0, [r3, #80]	; 0x50
 800332e:	4618      	mov	r0, r3
 8003330:	64dd      	str	r5, [r3, #76]	; 0x4c
 8003332:	e9c3 670f 	strd	r6, r7, [r3, #60]	; 0x3c
 8003336:	f8b4 3046 	ldrh.w	r3, [r4, #70]	; 0x46
 800333a:	f7fe f91b 	bl	8001574 <HAL_DMA_Start_IT>
 800333e:	b1b0      	cbz	r0, 800336e <HAL_SPI_Receive_DMA+0xd6>
 8003340:	6e23      	ldr	r3, [r4, #96]	; 0x60
 8003342:	2201      	movs	r2, #1
 8003344:	f043 0310 	orr.w	r3, r3, #16
 8003348:	4610      	mov	r0, r2
 800334a:	6623      	str	r3, [r4, #96]	; 0x60
 800334c:	f884 205d 	strb.w	r2, [r4, #93]	; 0x5d
 8003350:	e7b8      	b.n	80032c4 <HAL_SPI_Receive_DMA+0x2c>
 8003352:	2604      	movs	r6, #4
 8003354:	4613      	mov	r3, r2
 8003356:	460a      	mov	r2, r1
 8003358:	f880 605d 	strb.w	r6, [r0, #93]	; 0x5d
 800335c:	e8bd 41f0 	ldmia.w	sp!, {r4, r5, r6, r7, r8, lr}
 8003360:	f7ff bec2 	b.w	80030e8 <HAL_SPI_TransmitReceive_DMA>
 8003364:	2001      	movs	r0, #1
 8003366:	e7ad      	b.n	80032c4 <HAL_SPI_Receive_DMA+0x2c>
 8003368:	2002      	movs	r0, #2
 800336a:	e8bd 81f0 	ldmia.w	sp!, {r4, r5, r6, r7, r8, pc}
 800336e:	6823      	ldr	r3, [r4, #0]
 8003370:	681a      	ldr	r2, [r3, #0]
 8003372:	0652      	lsls	r2, r2, #25
 8003374:	d403      	bmi.n	800337e <HAL_SPI_Receive_DMA+0xe6>
 8003376:	681a      	ldr	r2, [r3, #0]
 8003378:	f042 0240 	orr.w	r2, r2, #64	; 0x40
 800337c:	601a      	str	r2, [r3, #0]
 800337e:	685a      	ldr	r2, [r3, #4]
 8003380:	f042 0220 	orr.w	r2, r2, #32
 8003384:	605a      	str	r2, [r3, #4]
 8003386:	685a      	ldr	r2, [r3, #4]
 8003388:	f042 0201 	orr.w	r2, r2, #1
 800338c:	605a      	str	r2, [r3, #4]
 800338e:	e799      	b.n	80032c4 <HAL_SPI_Receive_DMA+0x2c>
 8003390:	6998      	ldr	r0, [r3, #24]
 8003392:	f442 5280 	orr.w	r2, r2, #4096	; 0x1000
 8003396:	f5b0 5f00 	cmp.w	r0, #8192	; 0x2000
 800339a:	604a      	str	r2, [r1, #4]
 800339c:	d1c0      	bne.n	8003320 <HAL_SPI_Receive_DMA+0x88>
 800339e:	684a      	ldr	r2, [r1, #4]
 80033a0:	f422 5280 	bic.w	r2, r2, #4096	; 0x1000
 80033a4:	604a      	str	r2, [r1, #4]
 80033a6:	f8b4 2046 	ldrh.w	r2, [r4, #70]	; 0x46
 80033aa:	f012 0f01 	tst.w	r2, #1
 80033ae:	684a      	ldr	r2, [r1, #4]
 80033b0:	d108      	bne.n	80033c4 <HAL_SPI_Receive_DMA+0x12c>
 80033b2:	f422 5200 	bic.w	r2, r2, #8192	; 0x2000
 80033b6:	604a      	str	r2, [r1, #4]
 80033b8:	f8b4 2046 	ldrh.w	r2, [r4, #70]	; 0x46
 80033bc:	0852      	lsrs	r2, r2, #1
 80033be:	f8a4 2046 	strh.w	r2, [r4, #70]	; 0x46
 80033c2:	e7ad      	b.n	8003320 <HAL_SPI_Receive_DMA+0x88>
 80033c4:	f442 5200 	orr.w	r2, r2, #8192	; 0x2000
 80033c8:	604a      	str	r2, [r1, #4]
 80033ca:	f8b4 2046 	ldrh.w	r2, [r4, #70]	; 0x46
 80033ce:	0852      	lsrs	r2, r2, #1
 80033d0:	3201      	adds	r2, #1
 80033d2:	f8a4 2046 	strh.w	r2, [r4, #70]	; 0x46
 80033d6:	e7a3      	b.n	8003320 <HAL_SPI_Receive_DMA+0x88>
 80033d8:	08003405 	.word	0x08003405
 80033dc:	080034b5 	.word	0x080034b5
 80033e0:	08003425 	.word	0x08003425

080033e4 <HAL_SPI_TxCpltCallback>:
 80033e4:	4770      	bx	lr
 80033e6:	bf00      	nop

080033e8 <HAL_SPI_RxCpltCallback>:
 80033e8:	4770      	bx	lr
 80033ea:	bf00      	nop

080033ec <HAL_SPI_TxRxCpltCallback>:
 80033ec:	4770      	bx	lr
 80033ee:	bf00      	nop

080033f0 <HAL_SPI_TxHalfCpltCallback>:
 80033f0:	4770      	bx	lr
 80033f2:	bf00      	nop

080033f4 <SPI_DMAHalfTransmitCplt>:
 80033f4:	b508      	push	{r3, lr}
 80033f6:	6b80      	ldr	r0, [r0, #56]	; 0x38
 80033f8:	f7ff fffa 	bl	80033f0 <HAL_SPI_TxHalfCpltCallback>
 80033fc:	bd08      	pop	{r3, pc}
 80033fe:	bf00      	nop

08003400 <HAL_SPI_RxHalfCpltCallback>:
 8003400:	4770      	bx	lr
 8003402:	bf00      	nop

08003404 <SPI_DMAHalfReceiveCplt>:
 8003404:	b508      	push	{r3, lr}
 8003406:	6b80      	ldr	r0, [r0, #56]	; 0x38
 8003408:	f7ff fffa 	bl	8003400 <HAL_SPI_RxHalfCpltCallback>
 800340c:	bd08      	pop	{r3, pc}
 800340e:	bf00      	nop

08003410 <HAL_SPI_TxRxHalfCpltCallback>:
 8003410:	4770      	bx	lr
 8003412:	bf00      	nop

08003414 <SPI_DMAHalfTransmitReceiveCplt>:
 8003414:	b508      	push	{r3, lr}
 8003416:	6b80      	ldr	r0, [r0, #56]	; 0x38
 8003418:	f7ff fffa 	bl	8003410 <HAL_SPI_TxRxHalfCpltCallback>
 800341c:	bd08      	pop	{r3, pc}
 800341e:	bf00      	nop

08003420 <HAL_SPI_ErrorCallback>:
 8003420:	4770      	bx	lr
 8003422:	bf00      	nop

08003424 <SPI_DMAError>:
 8003424:	6b83      	ldr	r3, [r0, #56]	; 0x38
 8003426:	6819      	ldr	r1, [r3, #0]
 8003428:	4618      	mov	r0, r3
 800342a:	684a      	ldr	r2, [r1, #4]
 800342c:	f022 0203 	bic.w	r2, r2, #3
 8003430:	b510      	push	{r4, lr}
 8003432:	604a      	str	r2, [r1, #4]
 8003434:	2401      	movs	r4, #1
 8003436:	6e1a      	ldr	r2, [r3, #96]	; 0x60
 8003438:	f042 0210 	orr.w	r2, r2, #16
 800343c:	661a      	str	r2, [r3, #96]	; 0x60
 800343e:	f883 405d 	strb.w	r4, [r3, #93]	; 0x5d
 8003442:	f7ff ffed 	bl	8003420 <HAL_SPI_ErrorCallback>
 8003446:	bd10      	pop	{r4, pc}

08003448 <SPI_DMATransmitCplt>:
 8003448:	b530      	push	{r4, r5, lr}
 800344a:	4605      	mov	r5, r0
 800344c:	b083      	sub	sp, #12
 800344e:	6b84      	ldr	r4, [r0, #56]	; 0x38
 8003450:	f7fd fd10 	bl	8000e74 <HAL_GetTick>
 8003454:	682b      	ldr	r3, [r5, #0]
 8003456:	681b      	ldr	r3, [r3, #0]
 8003458:	05db      	lsls	r3, r3, #23
 800345a:	d421      	bmi.n	80034a0 <SPI_DMATransmitCplt+0x58>
 800345c:	6823      	ldr	r3, [r4, #0]
 800345e:	4601      	mov	r1, r0
 8003460:	4620      	mov	r0, r4
 8003462:	685a      	ldr	r2, [r3, #4]
 8003464:	f022 0220 	bic.w	r2, r2, #32
 8003468:	605a      	str	r2, [r3, #4]
 800346a:	685a      	ldr	r2, [r3, #4]
 800346c:	f022 0202 	bic.w	r2, r2, #2
 8003470:	605a      	str	r2, [r3, #4]
 8003472:	f7ff fcff 	bl	8002e74 <SPI_EndRxTxTransaction.constprop.10>
 8003476:	b118      	cbz	r0, 8003480 <SPI_DMATransmitCplt+0x38>
 8003478:	6e23      	ldr	r3, [r4, #96]	; 0x60
 800347a:	f043 0320 	orr.w	r3, r3, #32
 800347e:	6623      	str	r3, [r4, #96]	; 0x60
 8003480:	68a3      	ldr	r3, [r4, #8]
 8003482:	b933      	cbnz	r3, 8003492 <SPI_DMATransmitCplt+0x4a>
 8003484:	6822      	ldr	r2, [r4, #0]
 8003486:	9301      	str	r3, [sp, #4]
 8003488:	68d3      	ldr	r3, [r2, #12]
 800348a:	9301      	str	r3, [sp, #4]
 800348c:	6893      	ldr	r3, [r2, #8]
 800348e:	9301      	str	r3, [sp, #4]
 8003490:	9b01      	ldr	r3, [sp, #4]
 8003492:	2301      	movs	r3, #1
 8003494:	2200      	movs	r2, #0
 8003496:	87e2      	strh	r2, [r4, #62]	; 0x3e
 8003498:	f884 305d 	strb.w	r3, [r4, #93]	; 0x5d
 800349c:	6e23      	ldr	r3, [r4, #96]	; 0x60
 800349e:	b923      	cbnz	r3, 80034aa <SPI_DMATransmitCplt+0x62>
 80034a0:	4620      	mov	r0, r4
 80034a2:	f7ff ff9f 	bl	80033e4 <HAL_SPI_TxCpltCallback>
 80034a6:	b003      	add	sp, #12
 80034a8:	bd30      	pop	{r4, r5, pc}
 80034aa:	4620      	mov	r0, r4
 80034ac:	f7ff ffb8 	bl	8003420 <HAL_SPI_ErrorCallback>
 80034b0:	b003      	add	sp, #12
 80034b2:	bd30      	pop	{r4, r5, pc}

080034b4 <SPI_DMAReceiveCplt>:
 80034b4:	b570      	push	{r4, r5, r6, lr}
 80034b6:	4606      	mov	r6, r0
 80034b8:	6b84      	ldr	r4, [r0, #56]	; 0x38
 80034ba:	f7fd fcdb 	bl	8000e74 <HAL_GetTick>
 80034be:	6833      	ldr	r3, [r6, #0]
 80034c0:	681b      	ldr	r3, [r3, #0]
 80034c2:	05d9      	lsls	r1, r3, #23
 80034c4:	d42e      	bmi.n	8003524 <SPI_DMAReceiveCplt+0x70>
 80034c6:	4605      	mov	r5, r0
 80034c8:	e9d4 3100 	ldrd	r3, r1, [r4]
 80034cc:	685a      	ldr	r2, [r3, #4]
 80034ce:	f5b1 7f82 	cmp.w	r1, #260	; 0x104
 80034d2:	f022 0220 	bic.w	r2, r2, #32
 80034d6:	605a      	str	r2, [r3, #4]
 80034d8:	685a      	ldr	r2, [r3, #4]
 80034da:	f022 0203 	bic.w	r2, r2, #3
 80034de:	605a      	str	r2, [r3, #4]
 80034e0:	d111      	bne.n	8003506 <SPI_DMAReceiveCplt+0x52>
 80034e2:	68a2      	ldr	r2, [r4, #8]
 80034e4:	f5b2 4f00 	cmp.w	r2, #32768	; 0x8000
 80034e8:	d002      	beq.n	80034f0 <SPI_DMAReceiveCplt+0x3c>
 80034ea:	f5b2 6f80 	cmp.w	r2, #1024	; 0x400
 80034ee:	d10a      	bne.n	8003506 <SPI_DMAReceiveCplt+0x52>
 80034f0:	681a      	ldr	r2, [r3, #0]
 80034f2:	f022 0240 	bic.w	r2, r2, #64	; 0x40
 80034f6:	601a      	str	r2, [r3, #0]
 80034f8:	e005      	b.n	8003506 <SPI_DMAReceiveCplt+0x52>
 80034fa:	f7fd fcbb 	bl	8000e74 <HAL_GetTick>
 80034fe:	1b40      	subs	r0, r0, r5
 8003500:	6823      	ldr	r3, [r4, #0]
 8003502:	2863      	cmp	r0, #99	; 0x63
 8003504:	d824      	bhi.n	8003550 <SPI_DMAReceiveCplt+0x9c>
 8003506:	689a      	ldr	r2, [r3, #8]
 8003508:	0612      	lsls	r2, r2, #24
 800350a:	d4f6      	bmi.n	80034fa <SPI_DMAReceiveCplt+0x46>
 800350c:	6862      	ldr	r2, [r4, #4]
 800350e:	f5b2 7f82 	cmp.w	r2, #260	; 0x104
 8003512:	d00b      	beq.n	800352c <SPI_DMAReceiveCplt+0x78>
 8003514:	2301      	movs	r3, #1
 8003516:	2200      	movs	r2, #0
 8003518:	f8a4 2046 	strh.w	r2, [r4, #70]	; 0x46
 800351c:	f884 305d 	strb.w	r3, [r4, #93]	; 0x5d
 8003520:	6e23      	ldr	r3, [r4, #96]	; 0x60
 8003522:	bb73      	cbnz	r3, 8003582 <SPI_DMAReceiveCplt+0xce>
 8003524:	4620      	mov	r0, r4
 8003526:	f7ff ff5f 	bl	80033e8 <HAL_SPI_RxCpltCallback>
 800352a:	bd70      	pop	{r4, r5, r6, pc}
 800352c:	68a2      	ldr	r2, [r4, #8]
 800352e:	f5b2 4f00 	cmp.w	r2, #32768	; 0x8000
 8003532:	d002      	beq.n	800353a <SPI_DMAReceiveCplt+0x86>
 8003534:	f5b2 6f80 	cmp.w	r2, #1024	; 0x400
 8003538:	d1ec      	bne.n	8003514 <SPI_DMAReceiveCplt+0x60>
 800353a:	689a      	ldr	r2, [r3, #8]
 800353c:	f412 6fc0 	tst.w	r2, #1536	; 0x600
 8003540:	d0e8      	beq.n	8003514 <SPI_DMAReceiveCplt+0x60>
 8003542:	7b1b      	ldrb	r3, [r3, #12]
 8003544:	f7fd fc96 	bl	8000e74 <HAL_GetTick>
 8003548:	1b40      	subs	r0, r0, r5
 800354a:	6823      	ldr	r3, [r4, #0]
 800354c:	2863      	cmp	r0, #99	; 0x63
 800354e:	d9f4      	bls.n	800353a <SPI_DMAReceiveCplt+0x86>
 8003550:	6861      	ldr	r1, [r4, #4]
 8003552:	685a      	ldr	r2, [r3, #4]
 8003554:	f5b1 7f82 	cmp.w	r1, #260	; 0x104
 8003558:	f022 02e0 	bic.w	r2, r2, #224	; 0xe0
 800355c:	605a      	str	r2, [r3, #4]
 800355e:	d01d      	beq.n	800359c <SPI_DMAReceiveCplt+0xe8>
 8003560:	6aa2      	ldr	r2, [r4, #40]	; 0x28
 8003562:	f5b2 5f00 	cmp.w	r2, #8192	; 0x2000
 8003566:	d010      	beq.n	800358a <SPI_DMAReceiveCplt+0xd6>
 8003568:	2301      	movs	r3, #1
 800356a:	2200      	movs	r2, #0
 800356c:	f884 305d 	strb.w	r3, [r4, #93]	; 0x5d
 8003570:	6e23      	ldr	r3, [r4, #96]	; 0x60
 8003572:	f884 205c 	strb.w	r2, [r4, #92]	; 0x5c
 8003576:	f043 0320 	orr.w	r3, r3, #32
 800357a:	6623      	str	r3, [r4, #96]	; 0x60
 800357c:	2320      	movs	r3, #32
 800357e:	6623      	str	r3, [r4, #96]	; 0x60
 8003580:	e7c8      	b.n	8003514 <SPI_DMAReceiveCplt+0x60>
 8003582:	4620      	mov	r0, r4
 8003584:	f7ff ff4c 	bl	8003420 <HAL_SPI_ErrorCallback>
 8003588:	bd70      	pop	{r4, r5, r6, pc}
 800358a:	681a      	ldr	r2, [r3, #0]
 800358c:	f422 5200 	bic.w	r2, r2, #8192	; 0x2000
 8003590:	601a      	str	r2, [r3, #0]
 8003592:	681a      	ldr	r2, [r3, #0]
 8003594:	f442 5200 	orr.w	r2, r2, #8192	; 0x2000
 8003598:	601a      	str	r2, [r3, #0]
 800359a:	e7e5      	b.n	8003568 <SPI_DMAReceiveCplt+0xb4>
 800359c:	68a2      	ldr	r2, [r4, #8]
 800359e:	f5b2 4f00 	cmp.w	r2, #32768	; 0x8000
 80035a2:	d002      	beq.n	80035aa <SPI_DMAReceiveCplt+0xf6>
 80035a4:	f5b2 6f80 	cmp.w	r2, #1024	; 0x400
 80035a8:	d1da      	bne.n	8003560 <SPI_DMAReceiveCplt+0xac>
 80035aa:	681a      	ldr	r2, [r3, #0]
 80035ac:	f022 0240 	bic.w	r2, r2, #64	; 0x40
 80035b0:	601a      	str	r2, [r3, #0]
 80035b2:	e7d5      	b.n	8003560 <SPI_DMAReceiveCplt+0xac>

080035b4 <SPI_DMATransmitReceiveCplt>:
 80035b4:	b538      	push	{r3, r4, r5, lr}
 80035b6:	4605      	mov	r5, r0
 80035b8:	6b84      	ldr	r4, [r0, #56]	; 0x38
 80035ba:	f7fd fc5b 	bl	8000e74 <HAL_GetTick>
 80035be:	682b      	ldr	r3, [r5, #0]
 80035c0:	681b      	ldr	r3, [r3, #0]
 80035c2:	05db      	lsls	r3, r3, #23
 80035c4:	d41b      	bmi.n	80035fe <SPI_DMATransmitReceiveCplt+0x4a>
 80035c6:	6822      	ldr	r2, [r4, #0]
 80035c8:	4601      	mov	r1, r0
 80035ca:	4620      	mov	r0, r4
 80035cc:	6853      	ldr	r3, [r2, #4]
 80035ce:	f023 0320 	bic.w	r3, r3, #32
 80035d2:	6053      	str	r3, [r2, #4]
 80035d4:	f7ff fc4e 	bl	8002e74 <SPI_EndRxTxTransaction.constprop.10>
 80035d8:	b118      	cbz	r0, 80035e2 <SPI_DMATransmitReceiveCplt+0x2e>
 80035da:	6e23      	ldr	r3, [r4, #96]	; 0x60
 80035dc:	f043 0320 	orr.w	r3, r3, #32
 80035e0:	6623      	str	r3, [r4, #96]	; 0x60
 80035e2:	6821      	ldr	r1, [r4, #0]
 80035e4:	2200      	movs	r2, #0
 80035e6:	2001      	movs	r0, #1
 80035e8:	684b      	ldr	r3, [r1, #4]
 80035ea:	f023 0303 	bic.w	r3, r3, #3
 80035ee:	604b      	str	r3, [r1, #4]
 80035f0:	87e2      	strh	r2, [r4, #62]	; 0x3e
 80035f2:	f8a4 2046 	strh.w	r2, [r4, #70]	; 0x46
 80035f6:	f884 005d 	strb.w	r0, [r4, #93]	; 0x5d
 80035fa:	6e23      	ldr	r3, [r4, #96]	; 0x60
 80035fc:	b91b      	cbnz	r3, 8003606 <SPI_DMATransmitReceiveCplt+0x52>
 80035fe:	4620      	mov	r0, r4
 8003600:	f7ff fef4 	bl	80033ec <HAL_SPI_TxRxCpltCallback>
 8003604:	bd38      	pop	{r3, r4, r5, pc}
 8003606:	4620      	mov	r0, r4
 8003608:	f7ff ff0a 	bl	8003420 <HAL_SPI_ErrorCallback>
 800360c:	bd38      	pop	{r3, r4, r5, pc}
 800360e:	bf00      	nop

08003610 <HAL_SPI_GetState>:
 8003610:	f890 005d 	ldrb.w	r0, [r0, #93]	; 0x5d
 8003614:	4770      	bx	lr
 8003616:	bf00      	nop

08003618 <HAL_TIM_Base_Init>:
 8003618:	2800      	cmp	r0, #0
 800361a:	d065      	beq.n	80036e8 <HAL_TIM_Base_Init+0xd0>
 800361c:	b5f8      	push	{r3, r4, r5, r6, r7, lr}
 800361e:	f890 303d 	ldrb.w	r3, [r0, #61]	; 0x3d
 8003622:	4604      	mov	r4, r0
 8003624:	f003 02ff 	and.w	r2, r3, #255	; 0xff
 8003628:	2b00      	cmp	r3, #0
 800362a:	d03b      	beq.n	80036a4 <HAL_TIM_Base_Init+0x8c>
 800362c:	6822      	ldr	r2, [r4, #0]
 800362e:	2002      	movs	r0, #2
 8003630:	4e36      	ldr	r6, [pc, #216]	; (800370c <HAL_TIM_Base_Init+0xf4>)
 8003632:	4f37      	ldr	r7, [pc, #220]	; (8003710 <HAL_TIM_Base_Init+0xf8>)
 8003634:	f1b2 4f80 	cmp.w	r2, #1073741824	; 0x40000000
 8003638:	eba2 0606 	sub.w	r6, r2, r6
 800363c:	f884 003d 	strb.w	r0, [r4, #61]	; 0x3d
 8003640:	eba2 0707 	sub.w	r7, r2, r7
 8003644:	6813      	ldr	r3, [r2, #0]
 8003646:	fab6 f686 	clz	r6, r6
 800364a:	fab7 f787 	clz	r7, r7
 800364e:	ea4f 1656 	mov.w	r6, r6, lsr #5
 8003652:	ea4f 1757 	mov.w	r7, r7, lsr #5
 8003656:	d02a      	beq.n	80036ae <HAL_TIM_Base_Init+0x96>
 8003658:	bb4e      	cbnz	r6, 80036ae <HAL_TIM_Base_Init+0x96>
 800365a:	492e      	ldr	r1, [pc, #184]	; (8003714 <HAL_TIM_Base_Init+0xfc>)
 800365c:	428a      	cmp	r2, r1
 800365e:	d045      	beq.n	80036ec <HAL_TIM_Base_Init+0xd4>
 8003660:	f501 6180 	add.w	r1, r1, #1024	; 0x400
 8003664:	428a      	cmp	r2, r1
 8003666:	d041      	beq.n	80036ec <HAL_TIM_Base_Init+0xd4>
 8003668:	f501 6180 	add.w	r1, r1, #1024	; 0x400
 800366c:	428a      	cmp	r2, r1
 800366e:	d042      	beq.n	80036f6 <HAL_TIM_Base_Init+0xde>
 8003670:	2f00      	cmp	r7, #0
 8003672:	d140      	bne.n	80036f6 <HAL_TIM_Base_Init+0xde>
 8003674:	4928      	ldr	r1, [pc, #160]	; (8003718 <HAL_TIM_Base_Init+0x100>)
 8003676:	428a      	cmp	r2, r1
 8003678:	d01e      	beq.n	80036b8 <HAL_TIM_Base_Init+0xa0>
 800367a:	f501 6180 	add.w	r1, r1, #1024	; 0x400
 800367e:	428a      	cmp	r2, r1
 8003680:	d01a      	beq.n	80036b8 <HAL_TIM_Base_Init+0xa0>
 8003682:	f501 6180 	add.w	r1, r1, #1024	; 0x400
 8003686:	428a      	cmp	r2, r1
 8003688:	d016      	beq.n	80036b8 <HAL_TIM_Base_Init+0xa0>
 800368a:	f5a1 3198 	sub.w	r1, r1, #77824	; 0x13000
 800368e:	428a      	cmp	r2, r1
 8003690:	d012      	beq.n	80036b8 <HAL_TIM_Base_Init+0xa0>
 8003692:	f501 6180 	add.w	r1, r1, #1024	; 0x400
 8003696:	428a      	cmp	r2, r1
 8003698:	d00e      	beq.n	80036b8 <HAL_TIM_Base_Init+0xa0>
 800369a:	f501 6180 	add.w	r1, r1, #1024	; 0x400
 800369e:	428a      	cmp	r2, r1
 80036a0:	d10e      	bne.n	80036c0 <HAL_TIM_Base_Init+0xa8>
 80036a2:	e009      	b.n	80036b8 <HAL_TIM_Base_Init+0xa0>
 80036a4:	f880 203c 	strb.w	r2, [r0, #60]	; 0x3c
 80036a8:	f002 fd90 	bl	80061cc <HAL_TIM_Base_MspInit>
 80036ac:	e7be      	b.n	800362c <HAL_TIM_Base_Init+0x14>
 80036ae:	f023 0570 	bic.w	r5, r3, #112	; 0x70
 80036b2:	68a0      	ldr	r0, [r4, #8]
 80036b4:	ea45 0300 	orr.w	r3, r5, r0
 80036b8:	f423 7340 	bic.w	r3, r3, #768	; 0x300
 80036bc:	6920      	ldr	r0, [r4, #16]
 80036be:	4303      	orrs	r3, r0
 80036c0:	69a1      	ldr	r1, [r4, #24]
 80036c2:	f023 0380 	bic.w	r3, r3, #128	; 0x80
 80036c6:	68e0      	ldr	r0, [r4, #12]
 80036c8:	430b      	orrs	r3, r1
 80036ca:	6861      	ldr	r1, [r4, #4]
 80036cc:	6013      	str	r3, [r2, #0]
 80036ce:	62d0      	str	r0, [r2, #44]	; 0x2c
 80036d0:	6291      	str	r1, [r2, #40]	; 0x28
 80036d2:	b936      	cbnz	r6, 80036e2 <HAL_TIM_Base_Init+0xca>
 80036d4:	b92f      	cbnz	r7, 80036e2 <HAL_TIM_Base_Init+0xca>
 80036d6:	2301      	movs	r3, #1
 80036d8:	2000      	movs	r0, #0
 80036da:	6153      	str	r3, [r2, #20]
 80036dc:	f884 303d 	strb.w	r3, [r4, #61]	; 0x3d
 80036e0:	bdf8      	pop	{r3, r4, r5, r6, r7, pc}
 80036e2:	6963      	ldr	r3, [r4, #20]
 80036e4:	6313      	str	r3, [r2, #48]	; 0x30
 80036e6:	e7f6      	b.n	80036d6 <HAL_TIM_Base_Init+0xbe>
 80036e8:	2001      	movs	r0, #1
 80036ea:	4770      	bx	lr
 80036ec:	f023 0370 	bic.w	r3, r3, #112	; 0x70
 80036f0:	68a1      	ldr	r1, [r4, #8]
 80036f2:	430b      	orrs	r3, r1
 80036f4:	e7e0      	b.n	80036b8 <HAL_TIM_Base_Init+0xa0>
 80036f6:	4909      	ldr	r1, [pc, #36]	; (800371c <HAL_TIM_Base_Init+0x104>)
 80036f8:	f023 0370 	bic.w	r3, r3, #112	; 0x70
 80036fc:	68a0      	ldr	r0, [r4, #8]
 80036fe:	428a      	cmp	r2, r1
 8003700:	ea43 0300 	orr.w	r3, r3, r0
 8003704:	d0d8      	beq.n	80036b8 <HAL_TIM_Base_Init+0xa0>
 8003706:	2f00      	cmp	r7, #0
 8003708:	d1d6      	bne.n	80036b8 <HAL_TIM_Base_Init+0xa0>
 800370a:	e7b3      	b.n	8003674 <HAL_TIM_Base_Init+0x5c>
 800370c:	40010000 	.word	0x40010000
 8003710:	40010400 	.word	0x40010400
 8003714:	40000400 	.word	0x40000400
 8003718:	40014000 	.word	0x40014000
 800371c:	40000c00 	.word	0x40000c00

08003720 <HAL_TIM_Base_Start>:
 8003720:	4602      	mov	r2, r0
 8003722:	2002      	movs	r0, #2
 8003724:	4b09      	ldr	r3, [pc, #36]	; (800374c <HAL_TIM_Base_Start+0x2c>)
 8003726:	6811      	ldr	r1, [r2, #0]
 8003728:	f882 003d 	strb.w	r0, [r2, #61]	; 0x3d
 800372c:	6888      	ldr	r0, [r1, #8]
 800372e:	4003      	ands	r3, r0
 8003730:	2b06      	cmp	r3, #6
 8003732:	d006      	beq.n	8003742 <HAL_TIM_Base_Start+0x22>
 8003734:	f5b3 3f80 	cmp.w	r3, #65536	; 0x10000
 8003738:	d003      	beq.n	8003742 <HAL_TIM_Base_Start+0x22>
 800373a:	680b      	ldr	r3, [r1, #0]
 800373c:	f043 0301 	orr.w	r3, r3, #1
 8003740:	600b      	str	r3, [r1, #0]
 8003742:	2301      	movs	r3, #1
 8003744:	2000      	movs	r0, #0
 8003746:	f882 303d 	strb.w	r3, [r2, #61]	; 0x3d
 800374a:	4770      	bx	lr
 800374c:	00010007 	.word	0x00010007

08003750 <HAL_TIM_PWM_Init>:
 8003750:	2800      	cmp	r0, #0
 8003752:	d065      	beq.n	8003820 <HAL_TIM_PWM_Init+0xd0>
 8003754:	b5f8      	push	{r3, r4, r5, r6, r7, lr}
 8003756:	f890 303d 	ldrb.w	r3, [r0, #61]	; 0x3d
 800375a:	4604      	mov	r4, r0
 800375c:	f003 02ff 	and.w	r2, r3, #255	; 0xff
 8003760:	2b00      	cmp	r3, #0
 8003762:	d03b      	beq.n	80037dc <HAL_TIM_PWM_Init+0x8c>
 8003764:	6822      	ldr	r2, [r4, #0]
 8003766:	2002      	movs	r0, #2
 8003768:	4e36      	ldr	r6, [pc, #216]	; (8003844 <HAL_TIM_PWM_Init+0xf4>)
 800376a:	4f37      	ldr	r7, [pc, #220]	; (8003848 <HAL_TIM_PWM_Init+0xf8>)
 800376c:	f1b2 4f80 	cmp.w	r2, #1073741824	; 0x40000000
 8003770:	eba2 0606 	sub.w	r6, r2, r6
 8003774:	f884 003d 	strb.w	r0, [r4, #61]	; 0x3d
 8003778:	eba2 0707 	sub.w	r7, r2, r7
 800377c:	6813      	ldr	r3, [r2, #0]
 800377e:	fab6 f686 	clz	r6, r6
 8003782:	fab7 f787 	clz	r7, r7
 8003786:	ea4f 1656 	mov.w	r6, r6, lsr #5
 800378a:	ea4f 1757 	mov.w	r7, r7, lsr #5
 800378e:	d02a      	beq.n	80037e6 <HAL_TIM_PWM_Init+0x96>
 8003790:	bb4e      	cbnz	r6, 80037e6 <HAL_TIM_PWM_Init+0x96>
 8003792:	492e      	ldr	r1, [pc, #184]	; (800384c <HAL_TIM_PWM_Init+0xfc>)
 8003794:	428a      	cmp	r2, r1
 8003796:	d045      	beq.n	8003824 <HAL_TIM_PWM_Init+0xd4>
 8003798:	f501 6180 	add.w	r1, r1, #1024	; 0x400
 800379c:	428a      	cmp	r2, r1
 800379e:	d041      	beq.n	8003824 <HAL_TIM_PWM_Init+0xd4>
 80037a0:	f501 6180 	add.w	r1, r1, #1024	; 0x400
 80037a4:	428a      	cmp	r2, r1
 80037a6:	d042      	beq.n	800382e <HAL_TIM_PWM_Init+0xde>
 80037a8:	2f00      	cmp	r7, #0
 80037aa:	d140      	bne.n	800382e <HAL_TIM_PWM_Init+0xde>
 80037ac:	4928      	ldr	r1, [pc, #160]	; (8003850 <HAL_TIM_PWM_Init+0x100>)
 80037ae:	428a      	cmp	r2, r1
 80037b0:	d01e      	beq.n	80037f0 <HAL_TIM_PWM_Init+0xa0>
 80037b2:	f501 6180 	add.w	r1, r1, #1024	; 0x400
 80037b6:	428a      	cmp	r2, r1
 80037b8:	d01a      	beq.n	80037f0 <HAL_TIM_PWM_Init+0xa0>
 80037ba:	f501 6180 	add.w	r1, r1, #1024	; 0x400
 80037be:	428a      	cmp	r2, r1
 80037c0:	d016      	beq.n	80037f0 <HAL_TIM_PWM_Init+0xa0>
 80037c2:	f5a1 3198 	sub.w	r1, r1, #77824	; 0x13000
 80037c6:	428a      	cmp	r2, r1
 80037c8:	d012      	beq.n	80037f0 <HAL_TIM_PWM_Init+0xa0>
 80037ca:	f501 6180 	add.w	r1, r1, #1024	; 0x400
 80037ce:	428a      	cmp	r2, r1
 80037d0:	d00e      	beq.n	80037f0 <HAL_TIM_PWM_Init+0xa0>
 80037d2:	f501 6180 	add.w	r1, r1, #1024	; 0x400
 80037d6:	428a      	cmp	r2, r1
 80037d8:	d10e      	bne.n	80037f8 <HAL_TIM_PWM_Init+0xa8>
 80037da:	e009      	b.n	80037f0 <HAL_TIM_PWM_Init+0xa0>
 80037dc:	f880 203c 	strb.w	r2, [r0, #60]	; 0x3c
 80037e0:	f002 fd1c 	bl	800621c <HAL_TIM_PWM_MspInit>
 80037e4:	e7be      	b.n	8003764 <HAL_TIM_PWM_Init+0x14>
 80037e6:	f023 0570 	bic.w	r5, r3, #112	; 0x70
 80037ea:	68a0      	ldr	r0, [r4, #8]
 80037ec:	ea45 0300 	orr.w	r3, r5, r0
 80037f0:	f423 7340 	bic.w	r3, r3, #768	; 0x300
 80037f4:	6920      	ldr	r0, [r4, #16]
 80037f6:	4303      	orrs	r3, r0
 80037f8:	69a1      	ldr	r1, [r4, #24]
 80037fa:	f023 0380 	bic.w	r3, r3, #128	; 0x80
 80037fe:	68e0      	ldr	r0, [r4, #12]
 8003800:	430b      	orrs	r3, r1
 8003802:	6861      	ldr	r1, [r4, #4]
 8003804:	6013      	str	r3, [r2, #0]
 8003806:	62d0      	str	r0, [r2, #44]	; 0x2c
 8003808:	6291      	str	r1, [r2, #40]	; 0x28
 800380a:	b936      	cbnz	r6, 800381a <HAL_TIM_PWM_Init+0xca>
 800380c:	b92f      	cbnz	r7, 800381a <HAL_TIM_PWM_Init+0xca>
 800380e:	2301      	movs	r3, #1
 8003810:	2000      	movs	r0, #0
 8003812:	6153      	str	r3, [r2, #20]
 8003814:	f884 303d 	strb.w	r3, [r4, #61]	; 0x3d
 8003818:	bdf8      	pop	{r3, r4, r5, r6, r7, pc}
 800381a:	6963      	ldr	r3, [r4, #20]
 800381c:	6313      	str	r3, [r2, #48]	; 0x30
 800381e:	e7f6      	b.n	800380e <HAL_TIM_PWM_Init+0xbe>
 8003820:	2001      	movs	r0, #1
 8003822:	4770      	bx	lr
 8003824:	f023 0370 	bic.w	r3, r3, #112	; 0x70
 8003828:	68a1      	ldr	r1, [r4, #8]
 800382a:	430b      	orrs	r3, r1
 800382c:	e7e0      	b.n	80037f0 <HAL_TIM_PWM_Init+0xa0>
 800382e:	4909      	ldr	r1, [pc, #36]	; (8003854 <HAL_TIM_PWM_Init+0x104>)
 8003830:	f023 0370 	bic.w	r3, r3, #112	; 0x70
 8003834:	68a0      	ldr	r0, [r4, #8]
 8003836:	428a      	cmp	r2, r1
 8003838:	ea43 0300 	orr.w	r3, r3, r0
 800383c:	d0d8      	beq.n	80037f0 <HAL_TIM_PWM_Init+0xa0>
 800383e:	2f00      	cmp	r7, #0
 8003840:	d1d6      	bne.n	80037f0 <HAL_TIM_PWM_Init+0xa0>
 8003842:	e7b3      	b.n	80037ac <HAL_TIM_PWM_Init+0x5c>
 8003844:	40010000 	.word	0x40010000
 8003848:	40010400 	.word	0x40010400
 800384c:	40000400 	.word	0x40000400
 8003850:	40014000 	.word	0x40014000
 8003854:	40000c00 	.word	0x40000c00

08003858 <HAL_TIM_PWM_Start>:
 8003858:	6803      	ldr	r3, [r0, #0]
 800385a:	2201      	movs	r2, #1
 800385c:	f001 011f 	and.w	r1, r1, #31
 8003860:	6a18      	ldr	r0, [r3, #32]
 8003862:	fa02 f101 	lsl.w	r1, r2, r1
 8003866:	ea20 0001 	bic.w	r0, r0, r1
 800386a:	b410      	push	{r4}
 800386c:	6218      	str	r0, [r3, #32]
 800386e:	4c0f      	ldr	r4, [pc, #60]	; (80038ac <HAL_TIM_PWM_Start+0x54>)
 8003870:	6a1a      	ldr	r2, [r3, #32]
 8003872:	42a3      	cmp	r3, r4
 8003874:	ea41 0102 	orr.w	r1, r1, r2
 8003878:	6219      	str	r1, [r3, #32]
 800387a:	d012      	beq.n	80038a2 <HAL_TIM_PWM_Start+0x4a>
 800387c:	4a0c      	ldr	r2, [pc, #48]	; (80038b0 <HAL_TIM_PWM_Start+0x58>)
 800387e:	4293      	cmp	r3, r2
 8003880:	d00f      	beq.n	80038a2 <HAL_TIM_PWM_Start+0x4a>
 8003882:	6899      	ldr	r1, [r3, #8]
 8003884:	4a0b      	ldr	r2, [pc, #44]	; (80038b4 <HAL_TIM_PWM_Start+0x5c>)
 8003886:	400a      	ands	r2, r1
 8003888:	2a06      	cmp	r2, #6
 800388a:	d006      	beq.n	800389a <HAL_TIM_PWM_Start+0x42>
 800388c:	f5b2 3f80 	cmp.w	r2, #65536	; 0x10000
 8003890:	d003      	beq.n	800389a <HAL_TIM_PWM_Start+0x42>
 8003892:	681a      	ldr	r2, [r3, #0]
 8003894:	f042 0201 	orr.w	r2, r2, #1
 8003898:	601a      	str	r2, [r3, #0]
 800389a:	2000      	movs	r0, #0
 800389c:	f85d 4b04 	ldr.w	r4, [sp], #4
 80038a0:	4770      	bx	lr
 80038a2:	6c5a      	ldr	r2, [r3, #68]	; 0x44
 80038a4:	f442 4200 	orr.w	r2, r2, #32768	; 0x8000
 80038a8:	645a      	str	r2, [r3, #68]	; 0x44
 80038aa:	e7ea      	b.n	8003882 <HAL_TIM_PWM_Start+0x2a>
 80038ac:	40010000 	.word	0x40010000
 80038b0:	40010400 	.word	0x40010400
 80038b4:	00010007 	.word	0x00010007

080038b8 <HAL_TIM_PWM_ConfigChannel>:
 80038b8:	4603      	mov	r3, r0
 80038ba:	f890 003c 	ldrb.w	r0, [r0, #60]	; 0x3c
 80038be:	2801      	cmp	r0, #1
 80038c0:	f000 813e 	beq.w	8003b40 <HAL_TIM_PWM_ConfigChannel+0x288>
 80038c4:	2002      	movs	r0, #2
 80038c6:	b4f0      	push	{r4, r5, r6, r7}
 80038c8:	2401      	movs	r4, #1
 80038ca:	f883 003d 	strb.w	r0, [r3, #61]	; 0x3d
 80038ce:	f883 403c 	strb.w	r4, [r3, #60]	; 0x3c
 80038d2:	2a14      	cmp	r2, #20
 80038d4:	d843      	bhi.n	800395e <HAL_TIM_PWM_ConfigChannel+0xa6>
 80038d6:	e8df f012 	tbh	[pc, r2, lsl #1]
 80038da:	0015      	.short	0x0015
 80038dc:	00420042 	.word	0x00420042
 80038e0:	007b0042 	.word	0x007b0042
 80038e4:	00420042 	.word	0x00420042
 80038e8:	00da0042 	.word	0x00da0042
 80038ec:	00420042 	.word	0x00420042
 80038f0:	00aa0042 	.word	0x00aa0042
 80038f4:	00420042 	.word	0x00420042
 80038f8:	01060042 	.word	0x01060042
 80038fc:	00420042 	.word	0x00420042
 8003900:	004b0042 	.word	0x004b0042
 8003904:	681a      	ldr	r2, [r3, #0]
 8003906:	f8d1 c008 	ldr.w	ip, [r1, #8]
 800390a:	6a15      	ldr	r5, [r2, #32]
 800390c:	680f      	ldr	r7, [r1, #0]
 800390e:	f025 0501 	bic.w	r5, r5, #1
 8003912:	4cab      	ldr	r4, [pc, #684]	; (8003bc0 <HAL_TIM_PWM_ConfigChannel+0x308>)
 8003914:	6215      	str	r5, [r2, #32]
 8003916:	6a10      	ldr	r0, [r2, #32]
 8003918:	6856      	ldr	r6, [r2, #4]
 800391a:	6995      	ldr	r5, [r2, #24]
 800391c:	f020 0002 	bic.w	r0, r0, #2
 8003920:	402c      	ands	r4, r5
 8003922:	4da8      	ldr	r5, [pc, #672]	; (8003bc4 <HAL_TIM_PWM_ConfigChannel+0x30c>)
 8003924:	ea40 000c 	orr.w	r0, r0, ip
 8003928:	42aa      	cmp	r2, r5
 800392a:	ea44 0407 	orr.w	r4, r4, r7
 800392e:	f000 8115 	beq.w	8003b5c <HAL_TIM_PWM_ConfigChannel+0x2a4>
 8003932:	f505 6580 	add.w	r5, r5, #1024	; 0x400
 8003936:	42aa      	cmp	r2, r5
 8003938:	f000 8110 	beq.w	8003b5c <HAL_TIM_PWM_ConfigChannel+0x2a4>
 800393c:	684d      	ldr	r5, [r1, #4]
 800393e:	6056      	str	r6, [r2, #4]
 8003940:	6194      	str	r4, [r2, #24]
 8003942:	6355      	str	r5, [r2, #52]	; 0x34
 8003944:	6210      	str	r0, [r2, #32]
 8003946:	6990      	ldr	r0, [r2, #24]
 8003948:	690c      	ldr	r4, [r1, #16]
 800394a:	f040 0008 	orr.w	r0, r0, #8
 800394e:	6190      	str	r0, [r2, #24]
 8003950:	6990      	ldr	r0, [r2, #24]
 8003952:	f020 0004 	bic.w	r0, r0, #4
 8003956:	6190      	str	r0, [r2, #24]
 8003958:	6991      	ldr	r1, [r2, #24]
 800395a:	4321      	orrs	r1, r4
 800395c:	6191      	str	r1, [r2, #24]
 800395e:	2200      	movs	r2, #0
 8003960:	2101      	movs	r1, #1
 8003962:	4610      	mov	r0, r2
 8003964:	f883 103d 	strb.w	r1, [r3, #61]	; 0x3d
 8003968:	f883 203c 	strb.w	r2, [r3, #60]	; 0x3c
 800396c:	bcf0      	pop	{r4, r5, r6, r7}
 800396e:	4770      	bx	lr
 8003970:	681a      	ldr	r2, [r3, #0]
 8003972:	688e      	ldr	r6, [r1, #8]
 8003974:	6a15      	ldr	r5, [r2, #32]
 8003976:	680f      	ldr	r7, [r1, #0]
 8003978:	f425 1580 	bic.w	r5, r5, #1048576	; 0x100000
 800397c:	4c92      	ldr	r4, [pc, #584]	; (8003bc8 <HAL_TIM_PWM_ConfigChannel+0x310>)
 800397e:	6215      	str	r5, [r2, #32]
 8003980:	6a10      	ldr	r0, [r2, #32]
 8003982:	6855      	ldr	r5, [r2, #4]
 8003984:	f420 1000 	bic.w	r0, r0, #2097152	; 0x200000
 8003988:	f8d2 c054 	ldr.w	ip, [r2, #84]	; 0x54
 800398c:	ea40 5006 	orr.w	r0, r0, r6, lsl #20
 8003990:	4e8c      	ldr	r6, [pc, #560]	; (8003bc4 <HAL_TIM_PWM_ConfigChannel+0x30c>)
 8003992:	ea0c 0404 	and.w	r4, ip, r4
 8003996:	42b2      	cmp	r2, r6
 8003998:	ea44 2407 	orr.w	r4, r4, r7, lsl #8
 800399c:	f000 80d2 	beq.w	8003b44 <HAL_TIM_PWM_ConfigChannel+0x28c>
 80039a0:	f506 6680 	add.w	r6, r6, #1024	; 0x400
 80039a4:	42b2      	cmp	r2, r6
 80039a6:	f000 80cd 	beq.w	8003b44 <HAL_TIM_PWM_ConfigChannel+0x28c>
 80039aa:	684e      	ldr	r6, [r1, #4]
 80039ac:	6055      	str	r5, [r2, #4]
 80039ae:	6554      	str	r4, [r2, #84]	; 0x54
 80039b0:	65d6      	str	r6, [r2, #92]	; 0x5c
 80039b2:	6210      	str	r0, [r2, #32]
 80039b4:	6d50      	ldr	r0, [r2, #84]	; 0x54
 80039b6:	690c      	ldr	r4, [r1, #16]
 80039b8:	f440 6000 	orr.w	r0, r0, #2048	; 0x800
 80039bc:	6550      	str	r0, [r2, #84]	; 0x54
 80039be:	6d50      	ldr	r0, [r2, #84]	; 0x54
 80039c0:	f420 6080 	bic.w	r0, r0, #1024	; 0x400
 80039c4:	6550      	str	r0, [r2, #84]	; 0x54
 80039c6:	6d51      	ldr	r1, [r2, #84]	; 0x54
 80039c8:	ea41 2104 	orr.w	r1, r1, r4, lsl #8
 80039cc:	6551      	str	r1, [r2, #84]	; 0x54
 80039ce:	e7c6      	b.n	800395e <HAL_TIM_PWM_ConfigChannel+0xa6>
 80039d0:	681a      	ldr	r2, [r3, #0]
 80039d2:	f8d1 c008 	ldr.w	ip, [r1, #8]
 80039d6:	6a15      	ldr	r5, [r2, #32]
 80039d8:	680f      	ldr	r7, [r1, #0]
 80039da:	f025 0510 	bic.w	r5, r5, #16
 80039de:	4c7b      	ldr	r4, [pc, #492]	; (8003bcc <HAL_TIM_PWM_ConfigChannel+0x314>)
 80039e0:	6215      	str	r5, [r2, #32]
 80039e2:	6a10      	ldr	r0, [r2, #32]
 80039e4:	6856      	ldr	r6, [r2, #4]
 80039e6:	6995      	ldr	r5, [r2, #24]
 80039e8:	f020 0020 	bic.w	r0, r0, #32
 80039ec:	402c      	ands	r4, r5
 80039ee:	4d75      	ldr	r5, [pc, #468]	; (8003bc4 <HAL_TIM_PWM_ConfigChannel+0x30c>)
 80039f0:	ea40 100c 	orr.w	r0, r0, ip, lsl #4
 80039f4:	42aa      	cmp	r2, r5
 80039f6:	ea44 2407 	orr.w	r4, r4, r7, lsl #8
 80039fa:	f000 80c3 	beq.w	8003b84 <HAL_TIM_PWM_ConfigChannel+0x2cc>
 80039fe:	f505 6580 	add.w	r5, r5, #1024	; 0x400
 8003a02:	42aa      	cmp	r2, r5
 8003a04:	f000 80be 	beq.w	8003b84 <HAL_TIM_PWM_ConfigChannel+0x2cc>
 8003a08:	684d      	ldr	r5, [r1, #4]
 8003a0a:	6056      	str	r6, [r2, #4]
 8003a0c:	6194      	str	r4, [r2, #24]
 8003a0e:	6395      	str	r5, [r2, #56]	; 0x38
 8003a10:	6210      	str	r0, [r2, #32]
 8003a12:	6990      	ldr	r0, [r2, #24]
 8003a14:	690c      	ldr	r4, [r1, #16]
 8003a16:	f440 6000 	orr.w	r0, r0, #2048	; 0x800
 8003a1a:	6190      	str	r0, [r2, #24]
 8003a1c:	6990      	ldr	r0, [r2, #24]
 8003a1e:	f420 6080 	bic.w	r0, r0, #1024	; 0x400
 8003a22:	6190      	str	r0, [r2, #24]
 8003a24:	6991      	ldr	r1, [r2, #24]
 8003a26:	ea41 2104 	orr.w	r1, r1, r4, lsl #8
 8003a2a:	6191      	str	r1, [r2, #24]
 8003a2c:	e797      	b.n	800395e <HAL_TIM_PWM_ConfigChannel+0xa6>
 8003a2e:	681a      	ldr	r2, [r3, #0]
 8003a30:	688e      	ldr	r6, [r1, #8]
 8003a32:	6a15      	ldr	r5, [r2, #32]
 8003a34:	680f      	ldr	r7, [r1, #0]
 8003a36:	f425 5580 	bic.w	r5, r5, #4096	; 0x1000
 8003a3a:	4c64      	ldr	r4, [pc, #400]	; (8003bcc <HAL_TIM_PWM_ConfigChannel+0x314>)
 8003a3c:	6215      	str	r5, [r2, #32]
 8003a3e:	6a10      	ldr	r0, [r2, #32]
 8003a40:	6855      	ldr	r5, [r2, #4]
 8003a42:	f420 5000 	bic.w	r0, r0, #8192	; 0x2000
 8003a46:	f8d2 c01c 	ldr.w	ip, [r2, #28]
 8003a4a:	ea40 3006 	orr.w	r0, r0, r6, lsl #12
 8003a4e:	4e5d      	ldr	r6, [pc, #372]	; (8003bc4 <HAL_TIM_PWM_ConfigChannel+0x30c>)
 8003a50:	ea0c 0404 	and.w	r4, ip, r4
 8003a54:	42b2      	cmp	r2, r6
 8003a56:	ea44 2407 	orr.w	r4, r4, r7, lsl #8
 8003a5a:	f000 808d 	beq.w	8003b78 <HAL_TIM_PWM_ConfigChannel+0x2c0>
 8003a5e:	f506 6680 	add.w	r6, r6, #1024	; 0x400
 8003a62:	42b2      	cmp	r2, r6
 8003a64:	f000 8088 	beq.w	8003b78 <HAL_TIM_PWM_ConfigChannel+0x2c0>
 8003a68:	684e      	ldr	r6, [r1, #4]
 8003a6a:	6055      	str	r5, [r2, #4]
 8003a6c:	61d4      	str	r4, [r2, #28]
 8003a6e:	6416      	str	r6, [r2, #64]	; 0x40
 8003a70:	6210      	str	r0, [r2, #32]
 8003a72:	69d0      	ldr	r0, [r2, #28]
 8003a74:	690c      	ldr	r4, [r1, #16]
 8003a76:	f440 6000 	orr.w	r0, r0, #2048	; 0x800
 8003a7a:	61d0      	str	r0, [r2, #28]
 8003a7c:	69d0      	ldr	r0, [r2, #28]
 8003a7e:	f420 6080 	bic.w	r0, r0, #1024	; 0x400
 8003a82:	61d0      	str	r0, [r2, #28]
 8003a84:	69d1      	ldr	r1, [r2, #28]
 8003a86:	ea41 2104 	orr.w	r1, r1, r4, lsl #8
 8003a8a:	61d1      	str	r1, [r2, #28]
 8003a8c:	e767      	b.n	800395e <HAL_TIM_PWM_ConfigChannel+0xa6>
 8003a8e:	681a      	ldr	r2, [r3, #0]
 8003a90:	f8d1 c008 	ldr.w	ip, [r1, #8]
 8003a94:	6a15      	ldr	r5, [r2, #32]
 8003a96:	680f      	ldr	r7, [r1, #0]
 8003a98:	f425 7580 	bic.w	r5, r5, #256	; 0x100
 8003a9c:	4c48      	ldr	r4, [pc, #288]	; (8003bc0 <HAL_TIM_PWM_ConfigChannel+0x308>)
 8003a9e:	6215      	str	r5, [r2, #32]
 8003aa0:	6a10      	ldr	r0, [r2, #32]
 8003aa2:	6856      	ldr	r6, [r2, #4]
 8003aa4:	69d5      	ldr	r5, [r2, #28]
 8003aa6:	f420 7000 	bic.w	r0, r0, #512	; 0x200
 8003aaa:	402c      	ands	r4, r5
 8003aac:	4d45      	ldr	r5, [pc, #276]	; (8003bc4 <HAL_TIM_PWM_ConfigChannel+0x30c>)
 8003aae:	ea40 200c 	orr.w	r0, r0, ip, lsl #8
 8003ab2:	42aa      	cmp	r2, r5
 8003ab4:	ea44 0407 	orr.w	r4, r4, r7
 8003ab8:	d073      	beq.n	8003ba2 <HAL_TIM_PWM_ConfigChannel+0x2ea>
 8003aba:	f505 6580 	add.w	r5, r5, #1024	; 0x400
 8003abe:	42aa      	cmp	r2, r5
 8003ac0:	d06f      	beq.n	8003ba2 <HAL_TIM_PWM_ConfigChannel+0x2ea>
 8003ac2:	684d      	ldr	r5, [r1, #4]
 8003ac4:	6056      	str	r6, [r2, #4]
 8003ac6:	61d4      	str	r4, [r2, #28]
 8003ac8:	63d5      	str	r5, [r2, #60]	; 0x3c
 8003aca:	6210      	str	r0, [r2, #32]
 8003acc:	69d0      	ldr	r0, [r2, #28]
 8003ace:	690c      	ldr	r4, [r1, #16]
 8003ad0:	f040 0008 	orr.w	r0, r0, #8
 8003ad4:	61d0      	str	r0, [r2, #28]
 8003ad6:	69d0      	ldr	r0, [r2, #28]
 8003ad8:	f020 0004 	bic.w	r0, r0, #4
 8003adc:	61d0      	str	r0, [r2, #28]
 8003ade:	69d1      	ldr	r1, [r2, #28]
 8003ae0:	4321      	orrs	r1, r4
 8003ae2:	61d1      	str	r1, [r2, #28]
 8003ae4:	e73b      	b.n	800395e <HAL_TIM_PWM_ConfigChannel+0xa6>
 8003ae6:	681a      	ldr	r2, [r3, #0]
 8003ae8:	688e      	ldr	r6, [r1, #8]
 8003aea:	6a15      	ldr	r5, [r2, #32]
 8003aec:	680f      	ldr	r7, [r1, #0]
 8003aee:	f425 3580 	bic.w	r5, r5, #65536	; 0x10000
 8003af2:	4c37      	ldr	r4, [pc, #220]	; (8003bd0 <HAL_TIM_PWM_ConfigChannel+0x318>)
 8003af4:	6215      	str	r5, [r2, #32]
 8003af6:	6a10      	ldr	r0, [r2, #32]
 8003af8:	6855      	ldr	r5, [r2, #4]
 8003afa:	f420 3000 	bic.w	r0, r0, #131072	; 0x20000
 8003afe:	f8d2 c054 	ldr.w	ip, [r2, #84]	; 0x54
 8003b02:	ea40 4006 	orr.w	r0, r0, r6, lsl #16
 8003b06:	4e2f      	ldr	r6, [pc, #188]	; (8003bc4 <HAL_TIM_PWM_ConfigChannel+0x30c>)
 8003b08:	ea0c 0404 	and.w	r4, ip, r4
 8003b0c:	42b2      	cmp	r2, r6
 8003b0e:	ea44 0407 	orr.w	r4, r4, r7
 8003b12:	d01d      	beq.n	8003b50 <HAL_TIM_PWM_ConfigChannel+0x298>
 8003b14:	f506 6680 	add.w	r6, r6, #1024	; 0x400
 8003b18:	42b2      	cmp	r2, r6
 8003b1a:	d019      	beq.n	8003b50 <HAL_TIM_PWM_ConfigChannel+0x298>
 8003b1c:	684e      	ldr	r6, [r1, #4]
 8003b1e:	6055      	str	r5, [r2, #4]
 8003b20:	6554      	str	r4, [r2, #84]	; 0x54
 8003b22:	6596      	str	r6, [r2, #88]	; 0x58
 8003b24:	6210      	str	r0, [r2, #32]
 8003b26:	6d50      	ldr	r0, [r2, #84]	; 0x54
 8003b28:	690c      	ldr	r4, [r1, #16]
 8003b2a:	f040 0008 	orr.w	r0, r0, #8
 8003b2e:	6550      	str	r0, [r2, #84]	; 0x54
 8003b30:	6d50      	ldr	r0, [r2, #84]	; 0x54
 8003b32:	f020 0004 	bic.w	r0, r0, #4
 8003b36:	6550      	str	r0, [r2, #84]	; 0x54
 8003b38:	6d51      	ldr	r1, [r2, #84]	; 0x54
 8003b3a:	4321      	orrs	r1, r4
 8003b3c:	6551      	str	r1, [r2, #84]	; 0x54
 8003b3e:	e70e      	b.n	800395e <HAL_TIM_PWM_ConfigChannel+0xa6>
 8003b40:	2002      	movs	r0, #2
 8003b42:	4770      	bx	lr
 8003b44:	f425 2580 	bic.w	r5, r5, #262144	; 0x40000
 8003b48:	694e      	ldr	r6, [r1, #20]
 8003b4a:	ea45 2586 	orr.w	r5, r5, r6, lsl #10
 8003b4e:	e72c      	b.n	80039aa <HAL_TIM_PWM_ConfigChannel+0xf2>
 8003b50:	f425 3580 	bic.w	r5, r5, #65536	; 0x10000
 8003b54:	694e      	ldr	r6, [r1, #20]
 8003b56:	ea45 2506 	orr.w	r5, r5, r6, lsl #8
 8003b5a:	e7df      	b.n	8003b1c <HAL_TIM_PWM_ConfigChannel+0x264>
 8003b5c:	f426 7c40 	bic.w	ip, r6, #768	; 0x300
 8003b60:	f020 0008 	bic.w	r0, r0, #8
 8003b64:	698e      	ldr	r6, [r1, #24]
 8003b66:	68cf      	ldr	r7, [r1, #12]
 8003b68:	694d      	ldr	r5, [r1, #20]
 8003b6a:	4338      	orrs	r0, r7
 8003b6c:	4335      	orrs	r5, r6
 8003b6e:	f020 0004 	bic.w	r0, r0, #4
 8003b72:	ea45 060c 	orr.w	r6, r5, ip
 8003b76:	e6e1      	b.n	800393c <HAL_TIM_PWM_ConfigChannel+0x84>
 8003b78:	f425 4580 	bic.w	r5, r5, #16384	; 0x4000
 8003b7c:	694e      	ldr	r6, [r1, #20]
 8003b7e:	ea45 1586 	orr.w	r5, r5, r6, lsl #6
 8003b82:	e771      	b.n	8003a68 <HAL_TIM_PWM_ConfigChannel+0x1b0>
 8003b84:	f426 6c40 	bic.w	ip, r6, #3072	; 0xc00
 8003b88:	f020 0080 	bic.w	r0, r0, #128	; 0x80
 8003b8c:	698e      	ldr	r6, [r1, #24]
 8003b8e:	68cf      	ldr	r7, [r1, #12]
 8003b90:	694d      	ldr	r5, [r1, #20]
 8003b92:	ea40 1007 	orr.w	r0, r0, r7, lsl #4
 8003b96:	4335      	orrs	r5, r6
 8003b98:	f020 0040 	bic.w	r0, r0, #64	; 0x40
 8003b9c:	ea4c 0685 	orr.w	r6, ip, r5, lsl #2
 8003ba0:	e732      	b.n	8003a08 <HAL_TIM_PWM_ConfigChannel+0x150>
 8003ba2:	f426 5c40 	bic.w	ip, r6, #12288	; 0x3000
 8003ba6:	f420 6000 	bic.w	r0, r0, #2048	; 0x800
 8003baa:	698e      	ldr	r6, [r1, #24]
 8003bac:	68cf      	ldr	r7, [r1, #12]
 8003bae:	694d      	ldr	r5, [r1, #20]
 8003bb0:	ea40 2007 	orr.w	r0, r0, r7, lsl #8
 8003bb4:	4335      	orrs	r5, r6
 8003bb6:	f420 6080 	bic.w	r0, r0, #1024	; 0x400
 8003bba:	ea4c 1605 	orr.w	r6, ip, r5, lsl #4
 8003bbe:	e780      	b.n	8003ac2 <HAL_TIM_PWM_ConfigChannel+0x20a>
 8003bc0:	fffeff8c 	.word	0xfffeff8c
 8003bc4:	40010000 	.word	0x40010000
 8003bc8:	feff8fff 	.word	0xfeff8fff
 8003bcc:	feff8cff 	.word	0xfeff8cff
 8003bd0:	fffeff8f 	.word	0xfffeff8f

08003bd4 <HAL_TIM_ConfigClockSource>:
 8003bd4:	f890 303c 	ldrb.w	r3, [r0, #60]	; 0x3c
 8003bd8:	2b01      	cmp	r3, #1
 8003bda:	d05b      	beq.n	8003c94 <HAL_TIM_ConfigClockSource+0xc0>
 8003bdc:	4602      	mov	r2, r0
 8003bde:	2002      	movs	r0, #2
 8003be0:	6813      	ldr	r3, [r2, #0]
 8003be2:	b470      	push	{r4, r5, r6}
 8003be4:	f882 003d 	strb.w	r0, [r2, #61]	; 0x3d
 8003be8:	2501      	movs	r5, #1
 8003bea:	6898      	ldr	r0, [r3, #8]
 8003bec:	4c4c      	ldr	r4, [pc, #304]	; (8003d20 <HAL_TIM_ConfigClockSource+0x14c>)
 8003bee:	f882 503c 	strb.w	r5, [r2, #60]	; 0x3c
 8003bf2:	4004      	ands	r4, r0
 8003bf4:	6808      	ldr	r0, [r1, #0]
 8003bf6:	2840      	cmp	r0, #64	; 0x40
 8003bf8:	609c      	str	r4, [r3, #8]
 8003bfa:	d076      	beq.n	8003cea <HAL_TIM_ConfigClockSource+0x116>
 8003bfc:	d94c      	bls.n	8003c98 <HAL_TIM_ConfigClockSource+0xc4>
 8003bfe:	2860      	cmp	r0, #96	; 0x60
 8003c00:	d02f      	beq.n	8003c62 <HAL_TIM_ConfigClockSource+0x8e>
 8003c02:	d958      	bls.n	8003cb6 <HAL_TIM_ConfigClockSource+0xe2>
 8003c04:	2870      	cmp	r0, #112	; 0x70
 8003c06:	d01b      	beq.n	8003c40 <HAL_TIM_ConfigClockSource+0x6c>
 8003c08:	f5b0 5f00 	cmp.w	r0, #8192	; 0x2000
 8003c0c:	d10f      	bne.n	8003c2e <HAL_TIM_ConfigClockSource+0x5a>
 8003c0e:	68cc      	ldr	r4, [r1, #12]
 8003c10:	e9d1 5001 	ldrd	r5, r0, [r1, #4]
 8003c14:	ea40 0105 	orr.w	r1, r0, r5
 8003c18:	6898      	ldr	r0, [r3, #8]
 8003c1a:	ea41 2104 	orr.w	r1, r1, r4, lsl #8
 8003c1e:	f420 407f 	bic.w	r0, r0, #65280	; 0xff00
 8003c22:	4301      	orrs	r1, r0
 8003c24:	6099      	str	r1, [r3, #8]
 8003c26:	6899      	ldr	r1, [r3, #8]
 8003c28:	f441 4180 	orr.w	r1, r1, #16384	; 0x4000
 8003c2c:	6099      	str	r1, [r3, #8]
 8003c2e:	2300      	movs	r3, #0
 8003c30:	2101      	movs	r1, #1
 8003c32:	4618      	mov	r0, r3
 8003c34:	f882 103d 	strb.w	r1, [r2, #61]	; 0x3d
 8003c38:	f882 303c 	strb.w	r3, [r2, #60]	; 0x3c
 8003c3c:	bc70      	pop	{r4, r5, r6}
 8003c3e:	4770      	bx	lr
 8003c40:	e9d1 5001 	ldrd	r5, r0, [r1, #4]
 8003c44:	68cc      	ldr	r4, [r1, #12]
 8003c46:	ea40 0105 	orr.w	r1, r0, r5
 8003c4a:	6898      	ldr	r0, [r3, #8]
 8003c4c:	ea41 2104 	orr.w	r1, r1, r4, lsl #8
 8003c50:	f420 407f 	bic.w	r0, r0, #65280	; 0xff00
 8003c54:	4301      	orrs	r1, r0
 8003c56:	6099      	str	r1, [r3, #8]
 8003c58:	6899      	ldr	r1, [r3, #8]
 8003c5a:	f041 0177 	orr.w	r1, r1, #119	; 0x77
 8003c5e:	6099      	str	r1, [r3, #8]
 8003c60:	e7e5      	b.n	8003c2e <HAL_TIM_ConfigClockSource+0x5a>
 8003c62:	6a1c      	ldr	r4, [r3, #32]
 8003c64:	684d      	ldr	r5, [r1, #4]
 8003c66:	f024 0410 	bic.w	r4, r4, #16
 8003c6a:	68ce      	ldr	r6, [r1, #12]
 8003c6c:	621c      	str	r4, [r3, #32]
 8003c6e:	6998      	ldr	r0, [r3, #24]
 8003c70:	6a19      	ldr	r1, [r3, #32]
 8003c72:	f420 4070 	bic.w	r0, r0, #61440	; 0xf000
 8003c76:	f021 01a0 	bic.w	r1, r1, #160	; 0xa0
 8003c7a:	ea40 3006 	orr.w	r0, r0, r6, lsl #12
 8003c7e:	ea41 1105 	orr.w	r1, r1, r5, lsl #4
 8003c82:	6198      	str	r0, [r3, #24]
 8003c84:	6219      	str	r1, [r3, #32]
 8003c86:	6899      	ldr	r1, [r3, #8]
 8003c88:	f021 0170 	bic.w	r1, r1, #112	; 0x70
 8003c8c:	f041 0167 	orr.w	r1, r1, #103	; 0x67
 8003c90:	6099      	str	r1, [r3, #8]
 8003c92:	e7cc      	b.n	8003c2e <HAL_TIM_ConfigClockSource+0x5a>
 8003c94:	2002      	movs	r0, #2
 8003c96:	4770      	bx	lr
 8003c98:	2810      	cmp	r0, #16
 8003c9a:	d004      	beq.n	8003ca6 <HAL_TIM_ConfigClockSource+0xd2>
 8003c9c:	d93d      	bls.n	8003d1a <HAL_TIM_ConfigClockSource+0x146>
 8003c9e:	2820      	cmp	r0, #32
 8003ca0:	d001      	beq.n	8003ca6 <HAL_TIM_ConfigClockSource+0xd2>
 8003ca2:	2830      	cmp	r0, #48	; 0x30
 8003ca4:	d1c3      	bne.n	8003c2e <HAL_TIM_ConfigClockSource+0x5a>
 8003ca6:	6899      	ldr	r1, [r3, #8]
 8003ca8:	f040 0007 	orr.w	r0, r0, #7
 8003cac:	f021 0170 	bic.w	r1, r1, #112	; 0x70
 8003cb0:	4308      	orrs	r0, r1
 8003cb2:	6098      	str	r0, [r3, #8]
 8003cb4:	e7bb      	b.n	8003c2e <HAL_TIM_ConfigClockSource+0x5a>
 8003cb6:	2850      	cmp	r0, #80	; 0x50
 8003cb8:	d1b9      	bne.n	8003c2e <HAL_TIM_ConfigClockSource+0x5a>
 8003cba:	6a1d      	ldr	r5, [r3, #32]
 8003cbc:	6a1c      	ldr	r4, [r3, #32]
 8003cbe:	6848      	ldr	r0, [r1, #4]
 8003cc0:	f025 050a 	bic.w	r5, r5, #10
 8003cc4:	f024 0401 	bic.w	r4, r4, #1
 8003cc8:	68ce      	ldr	r6, [r1, #12]
 8003cca:	4328      	orrs	r0, r5
 8003ccc:	621c      	str	r4, [r3, #32]
 8003cce:	6999      	ldr	r1, [r3, #24]
 8003cd0:	f021 01f0 	bic.w	r1, r1, #240	; 0xf0
 8003cd4:	ea41 1106 	orr.w	r1, r1, r6, lsl #4
 8003cd8:	6199      	str	r1, [r3, #24]
 8003cda:	6218      	str	r0, [r3, #32]
 8003cdc:	6899      	ldr	r1, [r3, #8]
 8003cde:	f021 0170 	bic.w	r1, r1, #112	; 0x70
 8003ce2:	f041 0157 	orr.w	r1, r1, #87	; 0x57
 8003ce6:	6099      	str	r1, [r3, #8]
 8003ce8:	e7a1      	b.n	8003c2e <HAL_TIM_ConfigClockSource+0x5a>
 8003cea:	6a1d      	ldr	r5, [r3, #32]
 8003cec:	6a1c      	ldr	r4, [r3, #32]
 8003cee:	6848      	ldr	r0, [r1, #4]
 8003cf0:	f025 050a 	bic.w	r5, r5, #10
 8003cf4:	f024 0401 	bic.w	r4, r4, #1
 8003cf8:	68ce      	ldr	r6, [r1, #12]
 8003cfa:	4328      	orrs	r0, r5
 8003cfc:	621c      	str	r4, [r3, #32]
 8003cfe:	6999      	ldr	r1, [r3, #24]
 8003d00:	f021 01f0 	bic.w	r1, r1, #240	; 0xf0
 8003d04:	ea41 1106 	orr.w	r1, r1, r6, lsl #4
 8003d08:	6199      	str	r1, [r3, #24]
 8003d0a:	6218      	str	r0, [r3, #32]
 8003d0c:	6899      	ldr	r1, [r3, #8]
 8003d0e:	f021 0170 	bic.w	r1, r1, #112	; 0x70
 8003d12:	f041 0147 	orr.w	r1, r1, #71	; 0x47
 8003d16:	6099      	str	r1, [r3, #8]
 8003d18:	e789      	b.n	8003c2e <HAL_TIM_ConfigClockSource+0x5a>
 8003d1a:	2800      	cmp	r0, #0
 8003d1c:	d0c3      	beq.n	8003ca6 <HAL_TIM_ConfigClockSource+0xd2>
 8003d1e:	e786      	b.n	8003c2e <HAL_TIM_ConfigClockSource+0x5a>
 8003d20:	fffe0088 	.word	0xfffe0088

08003d24 <HAL_TIMEx_MasterConfigSynchronization>:
 8003d24:	f890 303c 	ldrb.w	r3, [r0, #60]	; 0x3c
 8003d28:	2b01      	cmp	r3, #1
 8003d2a:	d025      	beq.n	8003d78 <HAL_TIMEx_MasterConfigSynchronization+0x54>
 8003d2c:	6802      	ldr	r2, [r0, #0]
 8003d2e:	2302      	movs	r3, #2
 8003d30:	b470      	push	{r4, r5, r6}
 8003d32:	4d13      	ldr	r5, [pc, #76]	; (8003d80 <HAL_TIMEx_MasterConfigSynchronization+0x5c>)
 8003d34:	f880 303d 	strb.w	r3, [r0, #61]	; 0x3d
 8003d38:	42aa      	cmp	r2, r5
 8003d3a:	6853      	ldr	r3, [r2, #4]
 8003d3c:	6894      	ldr	r4, [r2, #8]
 8003d3e:	d016      	beq.n	8003d6e <HAL_TIMEx_MasterConfigSynchronization+0x4a>
 8003d40:	f505 6580 	add.w	r5, r5, #1024	; 0x400
 8003d44:	42aa      	cmp	r2, r5
 8003d46:	d012      	beq.n	8003d6e <HAL_TIMEx_MasterConfigSynchronization+0x4a>
 8003d48:	680d      	ldr	r5, [r1, #0]
 8003d4a:	f024 0480 	bic.w	r4, r4, #128	; 0x80
 8003d4e:	6889      	ldr	r1, [r1, #8]
 8003d50:	f023 0370 	bic.w	r3, r3, #112	; 0x70
 8003d54:	2601      	movs	r6, #1
 8003d56:	432b      	orrs	r3, r5
 8003d58:	4321      	orrs	r1, r4
 8003d5a:	2500      	movs	r5, #0
 8003d5c:	6053      	str	r3, [r2, #4]
 8003d5e:	6091      	str	r1, [r2, #8]
 8003d60:	f880 603d 	strb.w	r6, [r0, #61]	; 0x3d
 8003d64:	f880 503c 	strb.w	r5, [r0, #60]	; 0x3c
 8003d68:	4628      	mov	r0, r5
 8003d6a:	bc70      	pop	{r4, r5, r6}
 8003d6c:	4770      	bx	lr
 8003d6e:	f423 0370 	bic.w	r3, r3, #15728640	; 0xf00000
 8003d72:	684d      	ldr	r5, [r1, #4]
 8003d74:	432b      	orrs	r3, r5
 8003d76:	e7e7      	b.n	8003d48 <HAL_TIMEx_MasterConfigSynchronization+0x24>
 8003d78:	2302      	movs	r3, #2
 8003d7a:	4618      	mov	r0, r3
 8003d7c:	4770      	bx	lr
 8003d7e:	bf00      	nop
 8003d80:	40010000 	.word	0x40010000

08003d84 <HAL_UART_Transmit>:
 8003d84:	e92d 41f0 	stmdb	sp!, {r4, r5, r6, r7, r8, lr}
 8003d88:	461d      	mov	r5, r3
 8003d8a:	6f43      	ldr	r3, [r0, #116]	; 0x74
 8003d8c:	b082      	sub	sp, #8
 8003d8e:	2b20      	cmp	r3, #32
 8003d90:	d146      	bne.n	8003e20 <HAL_UART_Transmit+0x9c>
 8003d92:	4688      	mov	r8, r1
 8003d94:	2900      	cmp	r1, #0
 8003d96:	d047      	beq.n	8003e28 <HAL_UART_Transmit+0xa4>
 8003d98:	fab2 f682 	clz	r6, r2
 8003d9c:	9201      	str	r2, [sp, #4]
 8003d9e:	0976      	lsrs	r6, r6, #5
 8003da0:	2e00      	cmp	r6, #0
 8003da2:	d141      	bne.n	8003e28 <HAL_UART_Transmit+0xa4>
 8003da4:	f890 3070 	ldrb.w	r3, [r0, #112]	; 0x70
 8003da8:	4604      	mov	r4, r0
 8003daa:	2b01      	cmp	r3, #1
 8003dac:	d038      	beq.n	8003e20 <HAL_UART_Transmit+0x9c>
 8003dae:	2321      	movs	r3, #33	; 0x21
 8003db0:	2101      	movs	r1, #1
 8003db2:	67c6      	str	r6, [r0, #124]	; 0x7c
 8003db4:	f880 1070 	strb.w	r1, [r0, #112]	; 0x70
 8003db8:	6743      	str	r3, [r0, #116]	; 0x74
 8003dba:	f7fd f85b 	bl	8000e74 <HAL_GetTick>
 8003dbe:	68a3      	ldr	r3, [r4, #8]
 8003dc0:	9a01      	ldr	r2, [sp, #4]
 8003dc2:	4607      	mov	r7, r0
 8003dc4:	f5b3 5f80 	cmp.w	r3, #4096	; 0x1000
 8003dc8:	f8a4 2050 	strh.w	r2, [r4, #80]	; 0x50
 8003dcc:	f8a4 2052 	strh.w	r2, [r4, #82]	; 0x52
 8003dd0:	d05d      	beq.n	8003e8e <HAL_UART_Transmit+0x10a>
 8003dd2:	f8b4 3052 	ldrh.w	r3, [r4, #82]	; 0x52
 8003dd6:	6820      	ldr	r0, [r4, #0]
 8003dd8:	b29b      	uxth	r3, r3
 8003dda:	b1ab      	cbz	r3, 8003e08 <HAL_UART_Transmit+0x84>
 8003ddc:	1c69      	adds	r1, r5, #1
 8003dde:	d127      	bne.n	8003e30 <HAL_UART_Transmit+0xac>
 8003de0:	69c2      	ldr	r2, [r0, #28]
 8003de2:	0612      	lsls	r2, r2, #24
 8003de4:	d5fc      	bpl.n	8003de0 <HAL_UART_Transmit+0x5c>
 8003de6:	f1b8 0f00 	cmp.w	r8, #0
 8003dea:	d02c      	beq.n	8003e46 <HAL_UART_Transmit+0xc2>
 8003dec:	f818 3b01 	ldrb.w	r3, [r8], #1
 8003df0:	6283      	str	r3, [r0, #40]	; 0x28
 8003df2:	f8b4 3052 	ldrh.w	r3, [r4, #82]	; 0x52
 8003df6:	3b01      	subs	r3, #1
 8003df8:	b29b      	uxth	r3, r3
 8003dfa:	f8a4 3052 	strh.w	r3, [r4, #82]	; 0x52
 8003dfe:	f8b4 3052 	ldrh.w	r3, [r4, #82]	; 0x52
 8003e02:	b29b      	uxth	r3, r3
 8003e04:	2b00      	cmp	r3, #0
 8003e06:	d1e9      	bne.n	8003ddc <HAL_UART_Transmit+0x58>
 8003e08:	1c69      	adds	r1, r5, #1
 8003e0a:	d134      	bne.n	8003e76 <HAL_UART_Transmit+0xf2>
 8003e0c:	69c3      	ldr	r3, [r0, #28]
 8003e0e:	065a      	lsls	r2, r3, #25
 8003e10:	d5fc      	bpl.n	8003e0c <HAL_UART_Transmit+0x88>
 8003e12:	2300      	movs	r3, #0
 8003e14:	2220      	movs	r2, #32
 8003e16:	4618      	mov	r0, r3
 8003e18:	6762      	str	r2, [r4, #116]	; 0x74
 8003e1a:	f884 3070 	strb.w	r3, [r4, #112]	; 0x70
 8003e1e:	e000      	b.n	8003e22 <HAL_UART_Transmit+0x9e>
 8003e20:	2002      	movs	r0, #2
 8003e22:	b002      	add	sp, #8
 8003e24:	e8bd 81f0 	ldmia.w	sp!, {r4, r5, r6, r7, r8, pc}
 8003e28:	2001      	movs	r0, #1
 8003e2a:	b002      	add	sp, #8
 8003e2c:	e8bd 81f0 	ldmia.w	sp!, {r4, r5, r6, r7, r8, pc}
 8003e30:	69c3      	ldr	r3, [r0, #28]
 8003e32:	061b      	lsls	r3, r3, #24
 8003e34:	d4d7      	bmi.n	8003de6 <HAL_UART_Transmit+0x62>
 8003e36:	f7fd f81d 	bl	8000e74 <HAL_GetTick>
 8003e3a:	1bc0      	subs	r0, r0, r7
 8003e3c:	4285      	cmp	r5, r0
 8003e3e:	d307      	bcc.n	8003e50 <HAL_UART_Transmit+0xcc>
 8003e40:	b135      	cbz	r5, 8003e50 <HAL_UART_Transmit+0xcc>
 8003e42:	6820      	ldr	r0, [r4, #0]
 8003e44:	e7ca      	b.n	8003ddc <HAL_UART_Transmit+0x58>
 8003e46:	f836 3b02 	ldrh.w	r3, [r6], #2
 8003e4a:	f3c3 0308 	ubfx	r3, r3, #0, #9
 8003e4e:	e7cf      	b.n	8003df0 <HAL_UART_Transmit+0x6c>
 8003e50:	6823      	ldr	r3, [r4, #0]
 8003e52:	2120      	movs	r1, #32
 8003e54:	2500      	movs	r5, #0
 8003e56:	2003      	movs	r0, #3
 8003e58:	681a      	ldr	r2, [r3, #0]
 8003e5a:	f422 72d0 	bic.w	r2, r2, #416	; 0x1a0
 8003e5e:	601a      	str	r2, [r3, #0]
 8003e60:	689a      	ldr	r2, [r3, #8]
 8003e62:	f022 0201 	bic.w	r2, r2, #1
 8003e66:	609a      	str	r2, [r3, #8]
 8003e68:	6761      	str	r1, [r4, #116]	; 0x74
 8003e6a:	f884 5070 	strb.w	r5, [r4, #112]	; 0x70
 8003e6e:	67a1      	str	r1, [r4, #120]	; 0x78
 8003e70:	b002      	add	sp, #8
 8003e72:	e8bd 81f0 	ldmia.w	sp!, {r4, r5, r6, r7, r8, pc}
 8003e76:	69c3      	ldr	r3, [r0, #28]
 8003e78:	065b      	lsls	r3, r3, #25
 8003e7a:	d4ca      	bmi.n	8003e12 <HAL_UART_Transmit+0x8e>
 8003e7c:	f7fc fffa 	bl	8000e74 <HAL_GetTick>
 8003e80:	1bc0      	subs	r0, r0, r7
 8003e82:	4285      	cmp	r5, r0
 8003e84:	d3e4      	bcc.n	8003e50 <HAL_UART_Transmit+0xcc>
 8003e86:	2d00      	cmp	r5, #0
 8003e88:	d0e2      	beq.n	8003e50 <HAL_UART_Transmit+0xcc>
 8003e8a:	6820      	ldr	r0, [r4, #0]
 8003e8c:	e7bc      	b.n	8003e08 <HAL_UART_Transmit+0x84>
 8003e8e:	6923      	ldr	r3, [r4, #16]
 8003e90:	2b00      	cmp	r3, #0
 8003e92:	d19e      	bne.n	8003dd2 <HAL_UART_Transmit+0x4e>
 8003e94:	4646      	mov	r6, r8
 8003e96:	4698      	mov	r8, r3
 8003e98:	e79b      	b.n	8003dd2 <HAL_UART_Transmit+0x4e>
 8003e9a:	bf00      	nop

08003e9c <UART_AdvFeatureConfig>:
 8003e9c:	6a43      	ldr	r3, [r0, #36]	; 0x24
 8003e9e:	07da      	lsls	r2, r3, #31
 8003ea0:	b410      	push	{r4}
 8003ea2:	d506      	bpl.n	8003eb2 <UART_AdvFeatureConfig+0x16>
 8003ea4:	6801      	ldr	r1, [r0, #0]
 8003ea6:	6a84      	ldr	r4, [r0, #40]	; 0x28
 8003ea8:	684a      	ldr	r2, [r1, #4]
 8003eaa:	f422 3200 	bic.w	r2, r2, #131072	; 0x20000
 8003eae:	4322      	orrs	r2, r4
 8003eb0:	604a      	str	r2, [r1, #4]
 8003eb2:	079c      	lsls	r4, r3, #30
 8003eb4:	d506      	bpl.n	8003ec4 <UART_AdvFeatureConfig+0x28>
 8003eb6:	6801      	ldr	r1, [r0, #0]
 8003eb8:	6ac4      	ldr	r4, [r0, #44]	; 0x2c
 8003eba:	684a      	ldr	r2, [r1, #4]
 8003ebc:	f422 3280 	bic.w	r2, r2, #65536	; 0x10000
 8003ec0:	4322      	orrs	r2, r4
 8003ec2:	604a      	str	r2, [r1, #4]
 8003ec4:	0759      	lsls	r1, r3, #29
 8003ec6:	d506      	bpl.n	8003ed6 <UART_AdvFeatureConfig+0x3a>
 8003ec8:	6801      	ldr	r1, [r0, #0]
 8003eca:	6b04      	ldr	r4, [r0, #48]	; 0x30
 8003ecc:	684a      	ldr	r2, [r1, #4]
 8003ece:	f422 2280 	bic.w	r2, r2, #262144	; 0x40000
 8003ed2:	4322      	orrs	r2, r4
 8003ed4:	604a      	str	r2, [r1, #4]
 8003ed6:	071a      	lsls	r2, r3, #28
 8003ed8:	d506      	bpl.n	8003ee8 <UART_AdvFeatureConfig+0x4c>
 8003eda:	6801      	ldr	r1, [r0, #0]
 8003edc:	6b44      	ldr	r4, [r0, #52]	; 0x34
 8003ede:	684a      	ldr	r2, [r1, #4]
 8003ee0:	f422 4200 	bic.w	r2, r2, #32768	; 0x8000
 8003ee4:	4322      	orrs	r2, r4
 8003ee6:	604a      	str	r2, [r1, #4]
 8003ee8:	06dc      	lsls	r4, r3, #27
 8003eea:	d506      	bpl.n	8003efa <UART_AdvFeatureConfig+0x5e>
 8003eec:	6801      	ldr	r1, [r0, #0]
 8003eee:	6b84      	ldr	r4, [r0, #56]	; 0x38
 8003ef0:	688a      	ldr	r2, [r1, #8]
 8003ef2:	f422 5280 	bic.w	r2, r2, #4096	; 0x1000
 8003ef6:	4322      	orrs	r2, r4
 8003ef8:	608a      	str	r2, [r1, #8]
 8003efa:	0699      	lsls	r1, r3, #26
 8003efc:	d506      	bpl.n	8003f0c <UART_AdvFeatureConfig+0x70>
 8003efe:	6801      	ldr	r1, [r0, #0]
 8003f00:	6bc4      	ldr	r4, [r0, #60]	; 0x3c
 8003f02:	688a      	ldr	r2, [r1, #8]
 8003f04:	f422 5200 	bic.w	r2, r2, #8192	; 0x2000
 8003f08:	4322      	orrs	r2, r4
 8003f0a:	608a      	str	r2, [r1, #8]
 8003f0c:	065a      	lsls	r2, r3, #25
 8003f0e:	d50a      	bpl.n	8003f26 <UART_AdvFeatureConfig+0x8a>
 8003f10:	6801      	ldr	r1, [r0, #0]
 8003f12:	6c04      	ldr	r4, [r0, #64]	; 0x40
 8003f14:	684a      	ldr	r2, [r1, #4]
 8003f16:	f5b4 1f80 	cmp.w	r4, #1048576	; 0x100000
 8003f1a:	f422 1280 	bic.w	r2, r2, #1048576	; 0x100000
 8003f1e:	ea42 0204 	orr.w	r2, r2, r4
 8003f22:	604a      	str	r2, [r1, #4]
 8003f24:	d00b      	beq.n	8003f3e <UART_AdvFeatureConfig+0xa2>
 8003f26:	061b      	lsls	r3, r3, #24
 8003f28:	d506      	bpl.n	8003f38 <UART_AdvFeatureConfig+0x9c>
 8003f2a:	6802      	ldr	r2, [r0, #0]
 8003f2c:	6c81      	ldr	r1, [r0, #72]	; 0x48
 8003f2e:	6853      	ldr	r3, [r2, #4]
 8003f30:	f423 2300 	bic.w	r3, r3, #524288	; 0x80000
 8003f34:	430b      	orrs	r3, r1
 8003f36:	6053      	str	r3, [r2, #4]
 8003f38:	f85d 4b04 	ldr.w	r4, [sp], #4
 8003f3c:	4770      	bx	lr
 8003f3e:	684a      	ldr	r2, [r1, #4]
 8003f40:	6c44      	ldr	r4, [r0, #68]	; 0x44
 8003f42:	f422 02c0 	bic.w	r2, r2, #6291456	; 0x600000
 8003f46:	4322      	orrs	r2, r4
 8003f48:	604a      	str	r2, [r1, #4]
 8003f4a:	e7ec      	b.n	8003f26 <UART_AdvFeatureConfig+0x8a>

08003f4c <HAL_UART_Init>:
 8003f4c:	2800      	cmp	r0, #0
 8003f4e:	d04f      	beq.n	8003ff0 <HAL_UART_Init+0xa4>
 8003f50:	6f43      	ldr	r3, [r0, #116]	; 0x74
 8003f52:	b570      	push	{r4, r5, r6, lr}
 8003f54:	4604      	mov	r4, r0
 8003f56:	2b00      	cmp	r3, #0
 8003f58:	d045      	beq.n	8003fe6 <HAL_UART_Init+0x9a>
 8003f5a:	6823      	ldr	r3, [r4, #0]
 8003f5c:	2124      	movs	r1, #36	; 0x24
 8003f5e:	6920      	ldr	r0, [r4, #16]
 8003f60:	6761      	str	r1, [r4, #116]	; 0x74
 8003f62:	68a2      	ldr	r2, [r4, #8]
 8003f64:	6819      	ldr	r1, [r3, #0]
 8003f66:	4302      	orrs	r2, r0
 8003f68:	6960      	ldr	r0, [r4, #20]
 8003f6a:	f021 0101 	bic.w	r1, r1, #1
 8003f6e:	4dbe      	ldr	r5, [pc, #760]	; (8004268 <HAL_UART_Init+0x31c>)
 8003f70:	4302      	orrs	r2, r0
 8003f72:	69e0      	ldr	r0, [r4, #28]
 8003f74:	6019      	str	r1, [r3, #0]
 8003f76:	6819      	ldr	r1, [r3, #0]
 8003f78:	4302      	orrs	r2, r0
 8003f7a:	68e6      	ldr	r6, [r4, #12]
 8003f7c:	400d      	ands	r5, r1
 8003f7e:	69a1      	ldr	r1, [r4, #24]
 8003f80:	432a      	orrs	r2, r5
 8003f82:	6a25      	ldr	r5, [r4, #32]
 8003f84:	601a      	str	r2, [r3, #0]
 8003f86:	ea41 0205 	orr.w	r2, r1, r5
 8003f8a:	6859      	ldr	r1, [r3, #4]
 8003f8c:	4db7      	ldr	r5, [pc, #732]	; (800426c <HAL_UART_Init+0x320>)
 8003f8e:	f421 5140 	bic.w	r1, r1, #12288	; 0x3000
 8003f92:	42ab      	cmp	r3, r5
 8003f94:	ea41 0106 	orr.w	r1, r1, r6
 8003f98:	6059      	str	r1, [r3, #4]
 8003f9a:	6899      	ldr	r1, [r3, #8]
 8003f9c:	f421 6130 	bic.w	r1, r1, #2816	; 0xb00
 8003fa0:	ea42 0201 	orr.w	r2, r2, r1
 8003fa4:	609a      	str	r2, [r3, #8]
 8003fa6:	d025      	beq.n	8003ff4 <HAL_UART_Init+0xa8>
 8003fa8:	4ab1      	ldr	r2, [pc, #708]	; (8004270 <HAL_UART_Init+0x324>)
 8003faa:	4293      	cmp	r3, r2
 8003fac:	d044      	beq.n	8004038 <HAL_UART_Init+0xec>
 8003fae:	4ab1      	ldr	r2, [pc, #708]	; (8004274 <HAL_UART_Init+0x328>)
 8003fb0:	4293      	cmp	r3, r2
 8003fb2:	f000 80d3 	beq.w	800415c <HAL_UART_Init+0x210>
 8003fb6:	4ab0      	ldr	r2, [pc, #704]	; (8004278 <HAL_UART_Init+0x32c>)
 8003fb8:	4293      	cmp	r3, r2
 8003fba:	d045      	beq.n	8004048 <HAL_UART_Init+0xfc>
 8003fbc:	4aaf      	ldr	r2, [pc, #700]	; (800427c <HAL_UART_Init+0x330>)
 8003fbe:	4293      	cmp	r3, r2
 8003fc0:	f000 80e1 	beq.w	8004186 <HAL_UART_Init+0x23a>
 8003fc4:	4aae      	ldr	r2, [pc, #696]	; (8004280 <HAL_UART_Init+0x334>)
 8003fc6:	4293      	cmp	r3, r2
 8003fc8:	f000 816a 	beq.w	80042a0 <HAL_UART_Init+0x354>
 8003fcc:	4aad      	ldr	r2, [pc, #692]	; (8004284 <HAL_UART_Init+0x338>)
 8003fce:	4293      	cmp	r3, r2
 8003fd0:	f000 8179 	beq.w	80042c6 <HAL_UART_Init+0x37a>
 8003fd4:	4aac      	ldr	r2, [pc, #688]	; (8004288 <HAL_UART_Init+0x33c>)
 8003fd6:	4293      	cmp	r3, r2
 8003fd8:	f000 8135 	beq.w	8004246 <HAL_UART_Init+0x2fa>
 8003fdc:	2300      	movs	r3, #0
 8003fde:	2001      	movs	r0, #1
 8003fe0:	e9c4 3318 	strd	r3, r3, [r4, #96]	; 0x60
 8003fe4:	bd70      	pop	{r4, r5, r6, pc}
 8003fe6:	f880 3070 	strb.w	r3, [r0, #112]	; 0x70
 8003fea:	f002 f969 	bl	80062c0 <HAL_UART_MspInit>
 8003fee:	e7b4      	b.n	8003f5a <HAL_UART_Init+0xe>
 8003ff0:	2001      	movs	r0, #1
 8003ff2:	4770      	bx	lr
 8003ff4:	4ba5      	ldr	r3, [pc, #660]	; (800428c <HAL_UART_Init+0x340>)
 8003ff6:	4aa6      	ldr	r2, [pc, #664]	; (8004290 <HAL_UART_Init+0x344>)
 8003ff8:	f8d3 3090 	ldr.w	r3, [r3, #144]	; 0x90
 8003ffc:	f003 0303 	and.w	r3, r3, #3
 8004000:	5cd3      	ldrb	r3, [r2, r3]
 8004002:	f5b0 4f00 	cmp.w	r0, #32768	; 0x8000
 8004006:	d02f      	beq.n	8004068 <HAL_UART_Init+0x11c>
 8004008:	2b08      	cmp	r3, #8
 800400a:	d8e7      	bhi.n	8003fdc <HAL_UART_Init+0x90>
 800400c:	a201      	add	r2, pc, #4	; (adr r2, 8004014 <HAL_UART_Init+0xc8>)
 800400e:	f852 f023 	ldr.w	pc, [r2, r3, lsl #2]
 8004012:	bf00      	nop
 8004014:	0800414b 	.word	0x0800414b
 8004018:	080040a5 	.word	0x080040a5
 800401c:	08004177 	.word	0x08004177
 8004020:	08003fdd 	.word	0x08003fdd
 8004024:	0800419d 	.word	0x0800419d
 8004028:	08003fdd 	.word	0x08003fdd
 800402c:	08003fdd 	.word	0x08003fdd
 8004030:	08003fdd 	.word	0x08003fdd
 8004034:	080041af 	.word	0x080041af
 8004038:	4b94      	ldr	r3, [pc, #592]	; (800428c <HAL_UART_Init+0x340>)
 800403a:	4a96      	ldr	r2, [pc, #600]	; (8004294 <HAL_UART_Init+0x348>)
 800403c:	f8d3 3090 	ldr.w	r3, [r3, #144]	; 0x90
 8004040:	f003 030c 	and.w	r3, r3, #12
 8004044:	5cd3      	ldrb	r3, [r2, r3]
 8004046:	e7dc      	b.n	8004002 <HAL_UART_Init+0xb6>
 8004048:	4b90      	ldr	r3, [pc, #576]	; (800428c <HAL_UART_Init+0x340>)
 800404a:	f8d3 3090 	ldr.w	r3, [r3, #144]	; 0x90
 800404e:	f003 03c0 	and.w	r3, r3, #192	; 0xc0
 8004052:	2b40      	cmp	r3, #64	; 0x40
 8004054:	f000 809f 	beq.w	8004196 <HAL_UART_Init+0x24a>
 8004058:	d971      	bls.n	800413e <HAL_UART_Init+0x1f2>
 800405a:	2b80      	cmp	r3, #128	; 0x80
 800405c:	f000 8088 	beq.w	8004170 <HAL_UART_Init+0x224>
 8004060:	2bc0      	cmp	r3, #192	; 0xc0
 8004062:	f000 80b9 	beq.w	80041d8 <HAL_UART_Init+0x28c>
 8004066:	e7b9      	b.n	8003fdc <HAL_UART_Init+0x90>
 8004068:	2b08      	cmp	r3, #8
 800406a:	d8b7      	bhi.n	8003fdc <HAL_UART_Init+0x90>
 800406c:	a201      	add	r2, pc, #4	; (adr r2, 8004074 <HAL_UART_Init+0x128>)
 800406e:	f852 f023 	ldr.w	pc, [r2, r3, lsl #2]
 8004072:	bf00      	nop
 8004074:	08004241 	.word	0x08004241
 8004078:	08004217 	.word	0x08004217
 800407c:	08004231 	.word	0x08004231
 8004080:	08003fdd 	.word	0x08003fdd
 8004084:	0800422b 	.word	0x0800422b
 8004088:	08003fdd 	.word	0x08003fdd
 800408c:	08003fdd 	.word	0x08003fdd
 8004090:	08003fdd 	.word	0x08003fdd
 8004094:	080041df 	.word	0x080041df
 8004098:	2b00      	cmp	r3, #0
 800409a:	d19f      	bne.n	8003fdc <HAL_UART_Init+0x90>
 800409c:	f5b0 4f00 	cmp.w	r0, #32768	; 0x8000
 80040a0:	f000 80b9 	beq.w	8004216 <HAL_UART_Init+0x2ca>
 80040a4:	f7fe f85e 	bl	8002164 <HAL_RCC_GetPCLK2Freq>
 80040a8:	6863      	ldr	r3, [r4, #4]
 80040aa:	eb00 0253 	add.w	r2, r0, r3, lsr #1
 80040ae:	fbb2 f2f3 	udiv	r2, r2, r3
 80040b2:	b292      	uxth	r2, r2
 80040b4:	f1a2 0110 	sub.w	r1, r2, #16
 80040b8:	f64f 73ef 	movw	r3, #65519	; 0xffef
 80040bc:	4299      	cmp	r1, r3
 80040be:	d88d      	bhi.n	8003fdc <HAL_UART_Init+0x90>
 80040c0:	6823      	ldr	r3, [r4, #0]
 80040c2:	2100      	movs	r1, #0
 80040c4:	60da      	str	r2, [r3, #12]
 80040c6:	e9c4 1118 	strd	r1, r1, [r4, #96]	; 0x60
 80040ca:	6a62      	ldr	r2, [r4, #36]	; 0x24
 80040cc:	2a00      	cmp	r2, #0
 80040ce:	d176      	bne.n	80041be <HAL_UART_Init+0x272>
 80040d0:	685a      	ldr	r2, [r3, #4]
 80040d2:	2100      	movs	r1, #0
 80040d4:	f422 4290 	bic.w	r2, r2, #18432	; 0x4800
 80040d8:	605a      	str	r2, [r3, #4]
 80040da:	689a      	ldr	r2, [r3, #8]
 80040dc:	f022 022a 	bic.w	r2, r2, #42	; 0x2a
 80040e0:	609a      	str	r2, [r3, #8]
 80040e2:	681a      	ldr	r2, [r3, #0]
 80040e4:	f042 0201 	orr.w	r2, r2, #1
 80040e8:	601a      	str	r2, [r3, #0]
 80040ea:	67e1      	str	r1, [r4, #124]	; 0x7c
 80040ec:	f7fc fec2 	bl	8000e74 <HAL_GetTick>
 80040f0:	6823      	ldr	r3, [r4, #0]
 80040f2:	4606      	mov	r6, r0
 80040f4:	681a      	ldr	r2, [r3, #0]
 80040f6:	0712      	lsls	r2, r2, #28
 80040f8:	d407      	bmi.n	800410a <HAL_UART_Init+0x1be>
 80040fa:	2220      	movs	r2, #32
 80040fc:	2300      	movs	r3, #0
 80040fe:	6762      	str	r2, [r4, #116]	; 0x74
 8004100:	4618      	mov	r0, r3
 8004102:	67a2      	str	r2, [r4, #120]	; 0x78
 8004104:	f884 3070 	strb.w	r3, [r4, #112]	; 0x70
 8004108:	bd70      	pop	{r4, r5, r6, pc}
 800410a:	69dd      	ldr	r5, [r3, #28]
 800410c:	f415 1500 	ands.w	r5, r5, #2097152	; 0x200000
 8004110:	d1f3      	bne.n	80040fa <HAL_UART_Init+0x1ae>
 8004112:	f7fc feaf 	bl	8000e74 <HAL_GetTick>
 8004116:	1b80      	subs	r0, r0, r6
 8004118:	6823      	ldr	r3, [r4, #0]
 800411a:	f1b0 7f00 	cmp.w	r0, #33554432	; 0x2000000
 800411e:	d3f4      	bcc.n	800410a <HAL_UART_Init+0x1be>
 8004120:	681a      	ldr	r2, [r3, #0]
 8004122:	2120      	movs	r1, #32
 8004124:	2003      	movs	r0, #3
 8004126:	f422 72d0 	bic.w	r2, r2, #416	; 0x1a0
 800412a:	601a      	str	r2, [r3, #0]
 800412c:	689a      	ldr	r2, [r3, #8]
 800412e:	f022 0201 	bic.w	r2, r2, #1
 8004132:	609a      	str	r2, [r3, #8]
 8004134:	6761      	str	r1, [r4, #116]	; 0x74
 8004136:	f884 5070 	strb.w	r5, [r4, #112]	; 0x70
 800413a:	67a1      	str	r1, [r4, #120]	; 0x78
 800413c:	bd70      	pop	{r4, r5, r6, pc}
 800413e:	2b00      	cmp	r3, #0
 8004140:	f47f af4c 	bne.w	8003fdc <HAL_UART_Init+0x90>
 8004144:	f5b0 4f00 	cmp.w	r0, #32768	; 0x8000
 8004148:	d07a      	beq.n	8004240 <HAL_UART_Init+0x2f4>
 800414a:	f7fd fffb 	bl	8002144 <HAL_RCC_GetPCLK1Freq>
 800414e:	6863      	ldr	r3, [r4, #4]
 8004150:	eb00 0253 	add.w	r2, r0, r3, lsr #1
 8004154:	fbb2 f2f3 	udiv	r2, r2, r3
 8004158:	b292      	uxth	r2, r2
 800415a:	e7ab      	b.n	80040b4 <HAL_UART_Init+0x168>
 800415c:	4b4b      	ldr	r3, [pc, #300]	; (800428c <HAL_UART_Init+0x340>)
 800415e:	f8d3 3090 	ldr.w	r3, [r3, #144]	; 0x90
 8004162:	f003 0330 	and.w	r3, r3, #48	; 0x30
 8004166:	2b10      	cmp	r3, #16
 8004168:	d015      	beq.n	8004196 <HAL_UART_Init+0x24a>
 800416a:	d9e8      	bls.n	800413e <HAL_UART_Init+0x1f2>
 800416c:	2b20      	cmp	r3, #32
 800416e:	d14f      	bne.n	8004210 <HAL_UART_Init+0x2c4>
 8004170:	f5b0 4f00 	cmp.w	r0, #32768	; 0x8000
 8004174:	d05c      	beq.n	8004230 <HAL_UART_Init+0x2e4>
 8004176:	6863      	ldr	r3, [r4, #4]
 8004178:	4a47      	ldr	r2, [pc, #284]	; (8004298 <HAL_UART_Init+0x34c>)
 800417a:	eb02 0253 	add.w	r2, r2, r3, lsr #1
 800417e:	fbb2 f2f3 	udiv	r2, r2, r3
 8004182:	b292      	uxth	r2, r2
 8004184:	e796      	b.n	80040b4 <HAL_UART_Init+0x168>
 8004186:	4b41      	ldr	r3, [pc, #260]	; (800428c <HAL_UART_Init+0x340>)
 8004188:	f8d3 3090 	ldr.w	r3, [r3, #144]	; 0x90
 800418c:	f403 7340 	and.w	r3, r3, #768	; 0x300
 8004190:	f5b3 7f80 	cmp.w	r3, #256	; 0x100
 8004194:	d118      	bne.n	80041c8 <HAL_UART_Init+0x27c>
 8004196:	f5b0 4f00 	cmp.w	r0, #32768	; 0x8000
 800419a:	d046      	beq.n	800422a <HAL_UART_Init+0x2de>
 800419c:	f7fd ff9e 	bl	80020dc <HAL_RCC_GetSysClockFreq>
 80041a0:	6863      	ldr	r3, [r4, #4]
 80041a2:	eb00 0253 	add.w	r2, r0, r3, lsr #1
 80041a6:	fbb2 f2f3 	udiv	r2, r2, r3
 80041aa:	b292      	uxth	r2, r2
 80041ac:	e782      	b.n	80040b4 <HAL_UART_Init+0x168>
 80041ae:	6863      	ldr	r3, [r4, #4]
 80041b0:	085a      	lsrs	r2, r3, #1
 80041b2:	f502 4200 	add.w	r2, r2, #32768	; 0x8000
 80041b6:	fbb2 f2f3 	udiv	r2, r2, r3
 80041ba:	b292      	uxth	r2, r2
 80041bc:	e77a      	b.n	80040b4 <HAL_UART_Init+0x168>
 80041be:	4620      	mov	r0, r4
 80041c0:	f7ff fe6c 	bl	8003e9c <UART_AdvFeatureConfig>
 80041c4:	6823      	ldr	r3, [r4, #0]
 80041c6:	e783      	b.n	80040d0 <HAL_UART_Init+0x184>
 80041c8:	d9b9      	bls.n	800413e <HAL_UART_Init+0x1f2>
 80041ca:	f5b3 7f00 	cmp.w	r3, #512	; 0x200
 80041ce:	d0cf      	beq.n	8004170 <HAL_UART_Init+0x224>
 80041d0:	f5b3 7f40 	cmp.w	r3, #768	; 0x300
 80041d4:	f47f af02 	bne.w	8003fdc <HAL_UART_Init+0x90>
 80041d8:	f5b0 4f00 	cmp.w	r0, #32768	; 0x8000
 80041dc:	d1e7      	bne.n	80041ae <HAL_UART_Init+0x262>
 80041de:	6862      	ldr	r2, [r4, #4]
 80041e0:	0853      	lsrs	r3, r2, #1
 80041e2:	f503 3380 	add.w	r3, r3, #65536	; 0x10000
 80041e6:	fbb3 f3f2 	udiv	r3, r3, r2
 80041ea:	b29b      	uxth	r3, r3
 80041ec:	f1a3 0110 	sub.w	r1, r3, #16
 80041f0:	f64f 72ef 	movw	r2, #65519	; 0xffef
 80041f4:	4291      	cmp	r1, r2
 80041f6:	f63f aef1 	bhi.w	8003fdc <HAL_UART_Init+0x90>
 80041fa:	f023 010f 	bic.w	r1, r3, #15
 80041fe:	f3c3 0242 	ubfx	r2, r3, #1, #3
 8004202:	2000      	movs	r0, #0
 8004204:	6823      	ldr	r3, [r4, #0]
 8004206:	430a      	orrs	r2, r1
 8004208:	60da      	str	r2, [r3, #12]
 800420a:	e9c4 0018 	strd	r0, r0, [r4, #96]	; 0x60
 800420e:	e75c      	b.n	80040ca <HAL_UART_Init+0x17e>
 8004210:	2b30      	cmp	r3, #48	; 0x30
 8004212:	d0e1      	beq.n	80041d8 <HAL_UART_Init+0x28c>
 8004214:	e6e2      	b.n	8003fdc <HAL_UART_Init+0x90>
 8004216:	f7fd ffa5 	bl	8002164 <HAL_RCC_GetPCLK2Freq>
 800421a:	6862      	ldr	r2, [r4, #4]
 800421c:	0853      	lsrs	r3, r2, #1
 800421e:	eb03 0340 	add.w	r3, r3, r0, lsl #1
 8004222:	fbb3 f3f2 	udiv	r3, r3, r2
 8004226:	b29b      	uxth	r3, r3
 8004228:	e7e0      	b.n	80041ec <HAL_UART_Init+0x2a0>
 800422a:	f7fd ff57 	bl	80020dc <HAL_RCC_GetSysClockFreq>
 800422e:	e7f4      	b.n	800421a <HAL_UART_Init+0x2ce>
 8004230:	6862      	ldr	r2, [r4, #4]
 8004232:	4b1a      	ldr	r3, [pc, #104]	; (800429c <HAL_UART_Init+0x350>)
 8004234:	eb03 0352 	add.w	r3, r3, r2, lsr #1
 8004238:	fbb3 f3f2 	udiv	r3, r3, r2
 800423c:	b29b      	uxth	r3, r3
 800423e:	e7d5      	b.n	80041ec <HAL_UART_Init+0x2a0>
 8004240:	f7fd ff80 	bl	8002144 <HAL_RCC_GetPCLK1Freq>
 8004244:	e7e9      	b.n	800421a <HAL_UART_Init+0x2ce>
 8004246:	4b11      	ldr	r3, [pc, #68]	; (800428c <HAL_UART_Init+0x340>)
 8004248:	f8d3 3090 	ldr.w	r3, [r3, #144]	; 0x90
 800424c:	f403 4340 	and.w	r3, r3, #49152	; 0xc000
 8004250:	f5b3 4f80 	cmp.w	r3, #16384	; 0x4000
 8004254:	d09f      	beq.n	8004196 <HAL_UART_Init+0x24a>
 8004256:	f67f af72 	bls.w	800413e <HAL_UART_Init+0x1f2>
 800425a:	f5b3 4f00 	cmp.w	r3, #32768	; 0x8000
 800425e:	d087      	beq.n	8004170 <HAL_UART_Init+0x224>
 8004260:	f5b3 4f40 	cmp.w	r3, #49152	; 0xc000
 8004264:	d0b8      	beq.n	80041d8 <HAL_UART_Init+0x28c>
 8004266:	e6b9      	b.n	8003fdc <HAL_UART_Init+0x90>
 8004268:	efff69f3 	.word	0xefff69f3
 800426c:	40011000 	.word	0x40011000
 8004270:	40004400 	.word	0x40004400
 8004274:	40004800 	.word	0x40004800
 8004278:	40004c00 	.word	0x40004c00
 800427c:	40005000 	.word	0x40005000
 8004280:	40011400 	.word	0x40011400
 8004284:	40007800 	.word	0x40007800
 8004288:	40007c00 	.word	0x40007c00
 800428c:	40023800 	.word	0x40023800
 8004290:	08006d2c 	.word	0x08006d2c
 8004294:	08006d30 	.word	0x08006d30
 8004298:	00f42400 	.word	0x00f42400
 800429c:	01e84800 	.word	0x01e84800
 80042a0:	4b13      	ldr	r3, [pc, #76]	; (80042f0 <HAL_UART_Init+0x3a4>)
 80042a2:	f8d3 3090 	ldr.w	r3, [r3, #144]	; 0x90
 80042a6:	f403 6340 	and.w	r3, r3, #3072	; 0xc00
 80042aa:	f5b3 6f80 	cmp.w	r3, #1024	; 0x400
 80042ae:	f43f af72 	beq.w	8004196 <HAL_UART_Init+0x24a>
 80042b2:	f67f aef1 	bls.w	8004098 <HAL_UART_Init+0x14c>
 80042b6:	f5b3 6f00 	cmp.w	r3, #2048	; 0x800
 80042ba:	f43f af59 	beq.w	8004170 <HAL_UART_Init+0x224>
 80042be:	f5b3 6f40 	cmp.w	r3, #3072	; 0xc00
 80042c2:	d089      	beq.n	80041d8 <HAL_UART_Init+0x28c>
 80042c4:	e68a      	b.n	8003fdc <HAL_UART_Init+0x90>
 80042c6:	4b0a      	ldr	r3, [pc, #40]	; (80042f0 <HAL_UART_Init+0x3a4>)
 80042c8:	f8d3 3090 	ldr.w	r3, [r3, #144]	; 0x90
 80042cc:	f403 5340 	and.w	r3, r3, #12288	; 0x3000
 80042d0:	f5b3 5f80 	cmp.w	r3, #4096	; 0x1000
 80042d4:	f43f af5f 	beq.w	8004196 <HAL_UART_Init+0x24a>
 80042d8:	f67f af31 	bls.w	800413e <HAL_UART_Init+0x1f2>
 80042dc:	f5b3 5f00 	cmp.w	r3, #8192	; 0x2000
 80042e0:	f43f af46 	beq.w	8004170 <HAL_UART_Init+0x224>
 80042e4:	f5b3 5f40 	cmp.w	r3, #12288	; 0x3000
 80042e8:	f43f af76 	beq.w	80041d8 <HAL_UART_Init+0x28c>
 80042ec:	e676      	b.n	8003fdc <HAL_UART_Init+0x90>
 80042ee:	bf00      	nop
 80042f0:	40023800 	.word	0x40023800

080042f4 <SDMMC_GetCmdResp1.part.2>:
 80042f4:	b410      	push	{r4}
 80042f6:	f100 0214 	add.w	r2, r0, #20
 80042fa:	b083      	sub	sp, #12
 80042fc:	f240 54ff 	movw	r4, #1535	; 0x5ff
 8004300:	2100      	movs	r1, #0
 8004302:	4b37      	ldr	r3, [pc, #220]	; (80043e0 <SDMMC_GetCmdResp1.part.2+0xec>)
 8004304:	6384      	str	r4, [r0, #56]	; 0x38
 8004306:	9101      	str	r1, [sp, #4]
 8004308:	9201      	str	r2, [sp, #4]
 800430a:	9a01      	ldr	r2, [sp, #4]
 800430c:	6812      	ldr	r2, [r2, #0]
 800430e:	4013      	ands	r3, r2
 8004310:	b34b      	cbz	r3, 8004366 <SDMMC_GetCmdResp1.part.2+0x72>
 8004312:	428a      	cmp	r2, r1
 8004314:	db2c      	blt.n	8004370 <SDMMC_GetCmdResp1.part.2+0x7c>
 8004316:	0053      	lsls	r3, r2, #1
 8004318:	d433      	bmi.n	8004382 <SDMMC_GetCmdResp1.part.2+0x8e>
 800431a:	0094      	lsls	r4, r2, #2
 800431c:	d436      	bmi.n	800438c <SDMMC_GetCmdResp1.part.2+0x98>
 800431e:	00d1      	lsls	r1, r2, #3
 8004320:	d42c      	bmi.n	800437c <SDMMC_GetCmdResp1.part.2+0x88>
 8004322:	0113      	lsls	r3, r2, #4
 8004324:	d437      	bmi.n	8004396 <SDMMC_GetCmdResp1.part.2+0xa2>
 8004326:	0154      	lsls	r4, r2, #5
 8004328:	d438      	bmi.n	800439c <SDMMC_GetCmdResp1.part.2+0xa8>
 800432a:	01d1      	lsls	r1, r2, #7
 800432c:	d430      	bmi.n	8004390 <SDMMC_GetCmdResp1.part.2+0x9c>
 800432e:	0213      	lsls	r3, r2, #8
 8004330:	d437      	bmi.n	80043a2 <SDMMC_GetCmdResp1.part.2+0xae>
 8004332:	0254      	lsls	r4, r2, #9
 8004334:	d438      	bmi.n	80043a8 <SDMMC_GetCmdResp1.part.2+0xb4>
 8004336:	0291      	lsls	r1, r2, #10
 8004338:	d439      	bmi.n	80043ae <SDMMC_GetCmdResp1.part.2+0xba>
 800433a:	02d3      	lsls	r3, r2, #11
 800433c:	d43a      	bmi.n	80043b4 <SDMMC_GetCmdResp1.part.2+0xc0>
 800433e:	0354      	lsls	r4, r2, #13
 8004340:	d43b      	bmi.n	80043ba <SDMMC_GetCmdResp1.part.2+0xc6>
 8004342:	0391      	lsls	r1, r2, #14
 8004344:	d43c      	bmi.n	80043c0 <SDMMC_GetCmdResp1.part.2+0xcc>
 8004346:	03d3      	lsls	r3, r2, #15
 8004348:	d43d      	bmi.n	80043c6 <SDMMC_GetCmdResp1.part.2+0xd2>
 800434a:	0414      	lsls	r4, r2, #16
 800434c:	d43e      	bmi.n	80043cc <SDMMC_GetCmdResp1.part.2+0xd8>
 800434e:	0451      	lsls	r1, r2, #17
 8004350:	d43f      	bmi.n	80043d2 <SDMMC_GetCmdResp1.part.2+0xde>
 8004352:	0493      	lsls	r3, r2, #18
 8004354:	d440      	bmi.n	80043d8 <SDMMC_GetCmdResp1.part.2+0xe4>
 8004356:	f012 0f08 	tst.w	r2, #8
 800435a:	bf14      	ite	ne
 800435c:	f44f 0000 	movne.w	r0, #8388608	; 0x800000
 8004360:	f44f 3080 	moveq.w	r0, #65536	; 0x10000
 8004364:	e000      	b.n	8004368 <SDMMC_GetCmdResp1.part.2+0x74>
 8004366:	4618      	mov	r0, r3
 8004368:	b003      	add	sp, #12
 800436a:	f85d 4b04 	ldr.w	r4, [sp], #4
 800436e:	4770      	bx	lr
 8004370:	f04f 7000 	mov.w	r0, #33554432	; 0x2000000
 8004374:	b003      	add	sp, #12
 8004376:	f85d 4b04 	ldr.w	r4, [sp], #4
 800437a:	4770      	bx	lr
 800437c:	f44f 7080 	mov.w	r0, #256	; 0x100
 8004380:	e7f2      	b.n	8004368 <SDMMC_GetCmdResp1.part.2+0x74>
 8004382:	2040      	movs	r0, #64	; 0x40
 8004384:	b003      	add	sp, #12
 8004386:	f85d 4b04 	ldr.w	r4, [sp], #4
 800438a:	4770      	bx	lr
 800438c:	2080      	movs	r0, #128	; 0x80
 800438e:	e7eb      	b.n	8004368 <SDMMC_GetCmdResp1.part.2+0x74>
 8004390:	f44f 6000 	mov.w	r0, #2048	; 0x800
 8004394:	e7e8      	b.n	8004368 <SDMMC_GetCmdResp1.part.2+0x74>
 8004396:	f44f 7000 	mov.w	r0, #512	; 0x200
 800439a:	e7e5      	b.n	8004368 <SDMMC_GetCmdResp1.part.2+0x74>
 800439c:	f44f 6080 	mov.w	r0, #1024	; 0x400
 80043a0:	e7e2      	b.n	8004368 <SDMMC_GetCmdResp1.part.2+0x74>
 80043a2:	f44f 5080 	mov.w	r0, #4096	; 0x1000
 80043a6:	e7df      	b.n	8004368 <SDMMC_GetCmdResp1.part.2+0x74>
 80043a8:	f44f 5000 	mov.w	r0, #8192	; 0x2000
 80043ac:	e7dc      	b.n	8004368 <SDMMC_GetCmdResp1.part.2+0x74>
 80043ae:	f44f 4080 	mov.w	r0, #16384	; 0x4000
 80043b2:	e7d9      	b.n	8004368 <SDMMC_GetCmdResp1.part.2+0x74>
 80043b4:	f44f 4000 	mov.w	r0, #32768	; 0x8000
 80043b8:	e7d6      	b.n	8004368 <SDMMC_GetCmdResp1.part.2+0x74>
 80043ba:	f44f 3000 	mov.w	r0, #131072	; 0x20000
 80043be:	e7d3      	b.n	8004368 <SDMMC_GetCmdResp1.part.2+0x74>
 80043c0:	f44f 2080 	mov.w	r0, #262144	; 0x40000
 80043c4:	e7d0      	b.n	8004368 <SDMMC_GetCmdResp1.part.2+0x74>
 80043c6:	f44f 2000 	mov.w	r0, #524288	; 0x80000
 80043ca:	e7cd      	b.n	8004368 <SDMMC_GetCmdResp1.part.2+0x74>
 80043cc:	f44f 1080 	mov.w	r0, #1048576	; 0x100000
 80043d0:	e7ca      	b.n	8004368 <SDMMC_GetCmdResp1.part.2+0x74>
 80043d2:	f44f 1000 	mov.w	r0, #2097152	; 0x200000
 80043d6:	e7c7      	b.n	8004368 <SDMMC_GetCmdResp1.part.2+0x74>
 80043d8:	f44f 0080 	mov.w	r0, #4194304	; 0x400000
 80043dc:	e7c4      	b.n	8004368 <SDMMC_GetCmdResp1.part.2+0x74>
 80043de:	bf00      	nop
 80043e0:	fdffe008 	.word	0xfdffe008

080043e4 <SDMMC_Init>:
 80043e4:	b084      	sub	sp, #16
 80043e6:	b470      	push	{r4, r5, r6}
 80043e8:	ae04      	add	r6, sp, #16
 80043ea:	9c07      	ldr	r4, [sp, #28]
 80043ec:	4605      	mov	r5, r0
 80043ee:	2000      	movs	r0, #0
 80043f0:	e886 000e 	stmia.w	r6, {r1, r2, r3}
 80043f4:	460b      	mov	r3, r1
 80043f6:	e9dd 2105 	ldrd	r2, r1, [sp, #20]
 80043fa:	4313      	orrs	r3, r2
 80043fc:	9a08      	ldr	r2, [sp, #32]
 80043fe:	430b      	orrs	r3, r1
 8004400:	9909      	ldr	r1, [sp, #36]	; 0x24
 8004402:	4323      	orrs	r3, r4
 8004404:	686c      	ldr	r4, [r5, #4]
 8004406:	4313      	orrs	r3, r2
 8004408:	4a03      	ldr	r2, [pc, #12]	; (8004418 <SDMMC_Init+0x34>)
 800440a:	430b      	orrs	r3, r1
 800440c:	4022      	ands	r2, r4
 800440e:	4313      	orrs	r3, r2
 8004410:	606b      	str	r3, [r5, #4]
 8004412:	bc70      	pop	{r4, r5, r6}
 8004414:	b004      	add	sp, #16
 8004416:	4770      	bx	lr
 8004418:	ffff8100 	.word	0xffff8100

0800441c <SDMMC_ReadFIFO>:
 800441c:	f8d0 0080 	ldr.w	r0, [r0, #128]	; 0x80
 8004420:	4770      	bx	lr
 8004422:	bf00      	nop

08004424 <SDMMC_WriteFIFO>:
 8004424:	4603      	mov	r3, r0
 8004426:	680a      	ldr	r2, [r1, #0]
 8004428:	2000      	movs	r0, #0
 800442a:	f8c3 2080 	str.w	r2, [r3, #128]	; 0x80
 800442e:	4770      	bx	lr

08004430 <SDMMC_PowerState_ON>:
 8004430:	4603      	mov	r3, r0
 8004432:	2203      	movs	r2, #3
 8004434:	2000      	movs	r0, #0
 8004436:	601a      	str	r2, [r3, #0]
 8004438:	4770      	bx	lr
 800443a:	bf00      	nop

0800443c <SDMMC_GetPowerState>:
 800443c:	6800      	ldr	r0, [r0, #0]
 800443e:	f000 0003 	and.w	r0, r0, #3
 8004442:	4770      	bx	lr

08004444 <SDMMC_GetResponse>:
 8004444:	3014      	adds	r0, #20
 8004446:	b082      	sub	sp, #8
 8004448:	2300      	movs	r3, #0
 800444a:	4401      	add	r1, r0
 800444c:	9301      	str	r3, [sp, #4]
 800444e:	9101      	str	r1, [sp, #4]
 8004450:	9b01      	ldr	r3, [sp, #4]
 8004452:	6818      	ldr	r0, [r3, #0]
 8004454:	b002      	add	sp, #8
 8004456:	4770      	bx	lr

08004458 <SDMMC_ConfigData>:
 8004458:	b430      	push	{r4, r5}
 800445a:	4602      	mov	r2, r0
 800445c:	680c      	ldr	r4, [r1, #0]
 800445e:	2000      	movs	r0, #0
 8004460:	e9d1 3502 	ldrd	r3, r5, [r1, #8]
 8004464:	432b      	orrs	r3, r5
 8004466:	684d      	ldr	r5, [r1, #4]
 8004468:	6254      	str	r4, [r2, #36]	; 0x24
 800446a:	690c      	ldr	r4, [r1, #16]
 800446c:	6295      	str	r5, [r2, #40]	; 0x28
 800446e:	4323      	orrs	r3, r4
 8004470:	694d      	ldr	r5, [r1, #20]
 8004472:	6ad4      	ldr	r4, [r2, #44]	; 0x2c
 8004474:	432b      	orrs	r3, r5
 8004476:	f024 01f7 	bic.w	r1, r4, #247	; 0xf7
 800447a:	430b      	orrs	r3, r1
 800447c:	bc30      	pop	{r4, r5}
 800447e:	62d3      	str	r3, [r2, #44]	; 0x2c
 8004480:	4770      	bx	lr
 8004482:	bf00      	nop

08004484 <SDMMC_CmdBlockLength>:
 8004484:	4b1b      	ldr	r3, [pc, #108]	; (80044f4 <SDMMC_CmdBlockLength+0x70>)
 8004486:	4a1c      	ldr	r2, [pc, #112]	; (80044f8 <SDMMC_CmdBlockLength+0x74>)
 8004488:	b430      	push	{r4, r5}
 800448a:	681c      	ldr	r4, [r3, #0]
 800448c:	f241 3388 	movw	r3, #5000	; 0x1388
 8004490:	4d1a      	ldr	r5, [pc, #104]	; (80044fc <SDMMC_CmdBlockLength+0x78>)
 8004492:	6081      	str	r1, [r0, #8]
 8004494:	fba5 4104 	umull	r4, r1, r5, r4
 8004498:	68c4      	ldr	r4, [r0, #12]
 800449a:	4022      	ands	r2, r4
 800449c:	0a49      	lsrs	r1, r1, #9
 800449e:	f442 628a 	orr.w	r2, r2, #1104	; 0x450
 80044a2:	fb03 f301 	mul.w	r3, r3, r1
 80044a6:	60c2      	str	r2, [r0, #12]
 80044a8:	e003      	b.n	80044b2 <SDMMC_CmdBlockLength+0x2e>
 80044aa:	6b42      	ldr	r2, [r0, #52]	; 0x34
 80044ac:	f012 0f45 	tst.w	r2, #69	; 0x45
 80044b0:	d106      	bne.n	80044c0 <SDMMC_CmdBlockLength+0x3c>
 80044b2:	f113 33ff 	adds.w	r3, r3, #4294967295
 80044b6:	d2f8      	bcs.n	80044aa <SDMMC_CmdBlockLength+0x26>
 80044b8:	f04f 4000 	mov.w	r0, #2147483648	; 0x80000000
 80044bc:	bc30      	pop	{r4, r5}
 80044be:	4770      	bx	lr
 80044c0:	6b43      	ldr	r3, [r0, #52]	; 0x34
 80044c2:	075a      	lsls	r2, r3, #29
 80044c4:	d40e      	bmi.n	80044e4 <SDMMC_CmdBlockLength+0x60>
 80044c6:	6b43      	ldr	r3, [r0, #52]	; 0x34
 80044c8:	07db      	lsls	r3, r3, #31
 80044ca:	d406      	bmi.n	80044da <SDMMC_CmdBlockLength+0x56>
 80044cc:	6903      	ldr	r3, [r0, #16]
 80044ce:	b2db      	uxtb	r3, r3
 80044d0:	2b10      	cmp	r3, #16
 80044d2:	d00c      	beq.n	80044ee <SDMMC_CmdBlockLength+0x6a>
 80044d4:	2001      	movs	r0, #1
 80044d6:	bc30      	pop	{r4, r5}
 80044d8:	4770      	bx	lr
 80044da:	2301      	movs	r3, #1
 80044dc:	bc30      	pop	{r4, r5}
 80044de:	6383      	str	r3, [r0, #56]	; 0x38
 80044e0:	4618      	mov	r0, r3
 80044e2:	4770      	bx	lr
 80044e4:	2304      	movs	r3, #4
 80044e6:	bc30      	pop	{r4, r5}
 80044e8:	6383      	str	r3, [r0, #56]	; 0x38
 80044ea:	4618      	mov	r0, r3
 80044ec:	4770      	bx	lr
 80044ee:	bc30      	pop	{r4, r5}
 80044f0:	f7ff bf00 	b.w	80042f4 <SDMMC_GetCmdResp1.part.2>
 80044f4:	20000110 	.word	0x20000110
 80044f8:	fffff000 	.word	0xfffff000
 80044fc:	10624dd3 	.word	0x10624dd3

08004500 <SDMMC_CmdReadSingleBlock>:
 8004500:	4a1c      	ldr	r2, [pc, #112]	; (8004574 <SDMMC_CmdReadSingleBlock+0x74>)
 8004502:	4b1d      	ldr	r3, [pc, #116]	; (8004578 <SDMMC_CmdReadSingleBlock+0x78>)
 8004504:	6812      	ldr	r2, [r2, #0]
 8004506:	b430      	push	{r4, r5}
 8004508:	6081      	str	r1, [r0, #8]
 800450a:	f240 4451 	movw	r4, #1105	; 0x451
 800450e:	68c5      	ldr	r5, [r0, #12]
 8004510:	fba3 3202 	umull	r3, r2, r3, r2
 8004514:	4919      	ldr	r1, [pc, #100]	; (800457c <SDMMC_CmdReadSingleBlock+0x7c>)
 8004516:	f241 3388 	movw	r3, #5000	; 0x1388
 800451a:	0a52      	lsrs	r2, r2, #9
 800451c:	4029      	ands	r1, r5
 800451e:	fb03 f302 	mul.w	r3, r3, r2
 8004522:	430c      	orrs	r4, r1
 8004524:	60c4      	str	r4, [r0, #12]
 8004526:	e003      	b.n	8004530 <SDMMC_CmdReadSingleBlock+0x30>
 8004528:	6b42      	ldr	r2, [r0, #52]	; 0x34
 800452a:	f012 0f45 	tst.w	r2, #69	; 0x45
 800452e:	d106      	bne.n	800453e <SDMMC_CmdReadSingleBlock+0x3e>
 8004530:	f113 33ff 	adds.w	r3, r3, #4294967295
 8004534:	d2f8      	bcs.n	8004528 <SDMMC_CmdReadSingleBlock+0x28>
 8004536:	f04f 4000 	mov.w	r0, #2147483648	; 0x80000000
 800453a:	bc30      	pop	{r4, r5}
 800453c:	4770      	bx	lr
 800453e:	6b43      	ldr	r3, [r0, #52]	; 0x34
 8004540:	075a      	lsls	r2, r3, #29
 8004542:	d40e      	bmi.n	8004562 <SDMMC_CmdReadSingleBlock+0x62>
 8004544:	6b43      	ldr	r3, [r0, #52]	; 0x34
 8004546:	07db      	lsls	r3, r3, #31
 8004548:	d406      	bmi.n	8004558 <SDMMC_CmdReadSingleBlock+0x58>
 800454a:	6903      	ldr	r3, [r0, #16]
 800454c:	b2db      	uxtb	r3, r3
 800454e:	2b11      	cmp	r3, #17
 8004550:	d00c      	beq.n	800456c <SDMMC_CmdReadSingleBlock+0x6c>
 8004552:	2001      	movs	r0, #1
 8004554:	bc30      	pop	{r4, r5}
 8004556:	4770      	bx	lr
 8004558:	2301      	movs	r3, #1
 800455a:	bc30      	pop	{r4, r5}
 800455c:	6383      	str	r3, [r0, #56]	; 0x38
 800455e:	4618      	mov	r0, r3
 8004560:	4770      	bx	lr
 8004562:	2304      	movs	r3, #4
 8004564:	bc30      	pop	{r4, r5}
 8004566:	6383      	str	r3, [r0, #56]	; 0x38
 8004568:	4618      	mov	r0, r3
 800456a:	4770      	bx	lr
 800456c:	bc30      	pop	{r4, r5}
 800456e:	f7ff bec1 	b.w	80042f4 <SDMMC_GetCmdResp1.part.2>
 8004572:	bf00      	nop
 8004574:	20000110 	.word	0x20000110
 8004578:	10624dd3 	.word	0x10624dd3
 800457c:	fffff000 	.word	0xfffff000

08004580 <SDMMC_CmdReadMultiBlock>:
 8004580:	4a1c      	ldr	r2, [pc, #112]	; (80045f4 <SDMMC_CmdReadMultiBlock+0x74>)
 8004582:	4b1d      	ldr	r3, [pc, #116]	; (80045f8 <SDMMC_CmdReadMultiBlock+0x78>)
 8004584:	6812      	ldr	r2, [r2, #0]
 8004586:	b430      	push	{r4, r5}
 8004588:	6081      	str	r1, [r0, #8]
 800458a:	f240 4452 	movw	r4, #1106	; 0x452
 800458e:	68c5      	ldr	r5, [r0, #12]
 8004590:	fba3 3202 	umull	r3, r2, r3, r2
 8004594:	4919      	ldr	r1, [pc, #100]	; (80045fc <SDMMC_CmdReadMultiBlock+0x7c>)
 8004596:	f241 3388 	movw	r3, #5000	; 0x1388
 800459a:	0a52      	lsrs	r2, r2, #9
 800459c:	4029      	ands	r1, r5
 800459e:	fb03 f302 	mul.w	r3, r3, r2
 80045a2:	430c      	orrs	r4, r1
 80045a4:	60c4      	str	r4, [r0, #12]
 80045a6:	e003      	b.n	80045b0 <SDMMC_CmdReadMultiBlock+0x30>
 80045a8:	6b42      	ldr	r2, [r0, #52]	; 0x34
 80045aa:	f012 0f45 	tst.w	r2, #69	; 0x45
 80045ae:	d106      	bne.n	80045be <SDMMC_CmdReadMultiBlock+0x3e>
 80045b0:	f113 33ff 	adds.w	r3, r3, #4294967295
 80045b4:	d2f8      	bcs.n	80045a8 <SDMMC_CmdReadMultiBlock+0x28>
 80045b6:	f04f 4000 	mov.w	r0, #2147483648	; 0x80000000
 80045ba:	bc30      	pop	{r4, r5}
 80045bc:	4770      	bx	lr
 80045be:	6b43      	ldr	r3, [r0, #52]	; 0x34
 80045c0:	075a      	lsls	r2, r3, #29
 80045c2:	d40e      	bmi.n	80045e2 <SDMMC_CmdReadMultiBlock+0x62>
 80045c4:	6b43      	ldr	r3, [r0, #52]	; 0x34
 80045c6:	07db      	lsls	r3, r3, #31
 80045c8:	d406      	bmi.n	80045d8 <SDMMC_CmdReadMultiBlock+0x58>
 80045ca:	6903      	ldr	r3, [r0, #16]
 80045cc:	b2db      	uxtb	r3, r3
 80045ce:	2b12      	cmp	r3, #18
 80045d0:	d00c      	beq.n	80045ec <SDMMC_CmdReadMultiBlock+0x6c>
 80045d2:	2001      	movs	r0, #1
 80045d4:	bc30      	pop	{r4, r5}
 80045d6:	4770      	bx	lr
 80045d8:	2301      	movs	r3, #1
 80045da:	bc30      	pop	{r4, r5}
 80045dc:	6383      	str	r3, [r0, #56]	; 0x38
 80045de:	4618      	mov	r0, r3
 80045e0:	4770      	bx	lr
 80045e2:	2304      	movs	r3, #4
 80045e4:	bc30      	pop	{r4, r5}
 80045e6:	6383      	str	r3, [r0, #56]	; 0x38
 80045e8:	4618      	mov	r0, r3
 80045ea:	4770      	bx	lr
 80045ec:	bc30      	pop	{r4, r5}
 80045ee:	f7ff be81 	b.w	80042f4 <SDMMC_GetCmdResp1.part.2>
 80045f2:	bf00      	nop
 80045f4:	20000110 	.word	0x20000110
 80045f8:	10624dd3 	.word	0x10624dd3
 80045fc:	fffff000 	.word	0xfffff000

08004600 <SDMMC_CmdWriteSingleBlock>:
 8004600:	4b1b      	ldr	r3, [pc, #108]	; (8004670 <SDMMC_CmdWriteSingleBlock+0x70>)
 8004602:	4a1c      	ldr	r2, [pc, #112]	; (8004674 <SDMMC_CmdWriteSingleBlock+0x74>)
 8004604:	b430      	push	{r4, r5}
 8004606:	681c      	ldr	r4, [r3, #0]
 8004608:	f241 3388 	movw	r3, #5000	; 0x1388
 800460c:	4d1a      	ldr	r5, [pc, #104]	; (8004678 <SDMMC_CmdWriteSingleBlock+0x78>)
 800460e:	6081      	str	r1, [r0, #8]
 8004610:	fba5 4104 	umull	r4, r1, r5, r4
 8004614:	68c4      	ldr	r4, [r0, #12]
 8004616:	4022      	ands	r2, r4
 8004618:	0a49      	lsrs	r1, r1, #9
 800461a:	f442 628b 	orr.w	r2, r2, #1112	; 0x458
 800461e:	fb03 f301 	mul.w	r3, r3, r1
 8004622:	60c2      	str	r2, [r0, #12]
 8004624:	e003      	b.n	800462e <SDMMC_CmdWriteSingleBlock+0x2e>
 8004626:	6b42      	ldr	r2, [r0, #52]	; 0x34
 8004628:	f012 0f45 	tst.w	r2, #69	; 0x45
 800462c:	d106      	bne.n	800463c <SDMMC_CmdWriteSingleBlock+0x3c>
 800462e:	f113 33ff 	adds.w	r3, r3, #4294967295
 8004632:	d2f8      	bcs.n	8004626 <SDMMC_CmdWriteSingleBlock+0x26>
 8004634:	f04f 4000 	mov.w	r0, #2147483648	; 0x80000000
 8004638:	bc30      	pop	{r4, r5}
 800463a:	4770      	bx	lr
 800463c:	6b43      	ldr	r3, [r0, #52]	; 0x34
 800463e:	075a      	lsls	r2, r3, #29
 8004640:	d40e      	bmi.n	8004660 <SDMMC_CmdWriteSingleBlock+0x60>
 8004642:	6b43      	ldr	r3, [r0, #52]	; 0x34
 8004644:	07db      	lsls	r3, r3, #31
 8004646:	d406      	bmi.n	8004656 <SDMMC_CmdWriteSingleBlock+0x56>
 8004648:	6903      	ldr	r3, [r0, #16]
 800464a:	b2db      	uxtb	r3, r3
 800464c:	2b18      	cmp	r3, #24
 800464e:	d00c      	beq.n	800466a <SDMMC_CmdWriteSingleBlock+0x6a>
 8004650:	2001      	movs	r0, #1
 8004652:	bc30      	pop	{r4, r5}
 8004654:	4770      	bx	lr
 8004656:	2301      	movs	r3, #1
 8004658:	bc30      	pop	{r4, r5}
 800465a:	6383      	str	r3, [r0, #56]	; 0x38
 800465c:	4618      	mov	r0, r3
 800465e:	4770      	bx	lr
 8004660:	2304      	movs	r3, #4
 8004662:	bc30      	pop	{r4, r5}
 8004664:	6383      	str	r3, [r0, #56]	; 0x38
 8004666:	4618      	mov	r0, r3
 8004668:	4770      	bx	lr
 800466a:	bc30      	pop	{r4, r5}
 800466c:	f7ff be42 	b.w	80042f4 <SDMMC_GetCmdResp1.part.2>
 8004670:	20000110 	.word	0x20000110
 8004674:	fffff000 	.word	0xfffff000
 8004678:	10624dd3 	.word	0x10624dd3

0800467c <SDMMC_CmdWriteMultiBlock>:
 800467c:	4a1c      	ldr	r2, [pc, #112]	; (80046f0 <SDMMC_CmdWriteMultiBlock+0x74>)
 800467e:	4b1d      	ldr	r3, [pc, #116]	; (80046f4 <SDMMC_CmdWriteMultiBlock+0x78>)
 8004680:	6812      	ldr	r2, [r2, #0]
 8004682:	b430      	push	{r4, r5}
 8004684:	6081      	str	r1, [r0, #8]
 8004686:	f240 4459 	movw	r4, #1113	; 0x459
 800468a:	68c5      	ldr	r5, [r0, #12]
 800468c:	fba3 3202 	umull	r3, r2, r3, r2
 8004690:	4919      	ldr	r1, [pc, #100]	; (80046f8 <SDMMC_CmdWriteMultiBlock+0x7c>)
 8004692:	f241 3388 	movw	r3, #5000	; 0x1388
 8004696:	0a52      	lsrs	r2, r2, #9
 8004698:	4029      	ands	r1, r5
 800469a:	fb03 f302 	mul.w	r3, r3, r2
 800469e:	430c      	orrs	r4, r1
 80046a0:	60c4      	str	r4, [r0, #12]
 80046a2:	e003      	b.n	80046ac <SDMMC_CmdWriteMultiBlock+0x30>
 80046a4:	6b42      	ldr	r2, [r0, #52]	; 0x34
 80046a6:	f012 0f45 	tst.w	r2, #69	; 0x45
 80046aa:	d106      	bne.n	80046ba <SDMMC_CmdWriteMultiBlock+0x3e>
 80046ac:	f113 33ff 	adds.w	r3, r3, #4294967295
 80046b0:	d2f8      	bcs.n	80046a4 <SDMMC_CmdWriteMultiBlock+0x28>
 80046b2:	f04f 4000 	mov.w	r0, #2147483648	; 0x80000000
 80046b6:	bc30      	pop	{r4, r5}
 80046b8:	4770      	bx	lr
 80046ba:	6b43      	ldr	r3, [r0, #52]	; 0x34
 80046bc:	075a      	lsls	r2, r3, #29
 80046be:	d40e      	bmi.n	80046de <SDMMC_CmdWriteMultiBlock+0x62>
 80046c0:	6b43      	ldr	r3, [r0, #52]	; 0x34
 80046c2:	07db      	lsls	r3, r3, #31
 80046c4:	d406      	bmi.n	80046d4 <SDMMC_CmdWriteMultiBlock+0x58>
 80046c6:	6903      	ldr	r3, [r0, #16]
 80046c8:	b2db      	uxtb	r3, r3
 80046ca:	2b19      	cmp	r3, #25
 80046cc:	d00c      	beq.n	80046e8 <SDMMC_CmdWriteMultiBlock+0x6c>
 80046ce:	2001      	movs	r0, #1
 80046d0:	bc30      	pop	{r4, r5}
 80046d2:	4770      	bx	lr
 80046d4:	2301      	movs	r3, #1
 80046d6:	bc30      	pop	{r4, r5}
 80046d8:	6383      	str	r3, [r0, #56]	; 0x38
 80046da:	4618      	mov	r0, r3
 80046dc:	4770      	bx	lr
 80046de:	2304      	movs	r3, #4
 80046e0:	bc30      	pop	{r4, r5}
 80046e2:	6383      	str	r3, [r0, #56]	; 0x38
 80046e4:	4618      	mov	r0, r3
 80046e6:	4770      	bx	lr
 80046e8:	bc30      	pop	{r4, r5}
 80046ea:	f7ff be03 	b.w	80042f4 <SDMMC_GetCmdResp1.part.2>
 80046ee:	bf00      	nop
 80046f0:	20000110 	.word	0x20000110
 80046f4:	10624dd3 	.word	0x10624dd3
 80046f8:	fffff000 	.word	0xfffff000

080046fc <SDMMC_CmdStopTransfer>:
 80046fc:	4b1b      	ldr	r3, [pc, #108]	; (800476c <SDMMC_CmdStopTransfer+0x70>)
 80046fe:	f240 414c 	movw	r1, #1100	; 0x44c
 8004702:	4a1b      	ldr	r2, [pc, #108]	; (8004770 <SDMMC_CmdStopTransfer+0x74>)
 8004704:	681b      	ldr	r3, [r3, #0]
 8004706:	b430      	push	{r4, r5}
 8004708:	2400      	movs	r4, #0
 800470a:	fba2 2303 	umull	r2, r3, r2, r3
 800470e:	6084      	str	r4, [r0, #8]
 8004710:	f5a4 5480 	sub.w	r4, r4, #4096	; 0x1000
 8004714:	68c5      	ldr	r5, [r0, #12]
 8004716:	0a5a      	lsrs	r2, r3, #9
 8004718:	4b16      	ldr	r3, [pc, #88]	; (8004774 <SDMMC_CmdStopTransfer+0x78>)
 800471a:	402c      	ands	r4, r5
 800471c:	fb03 f302 	mul.w	r3, r3, r2
 8004720:	4321      	orrs	r1, r4
 8004722:	60c1      	str	r1, [r0, #12]
 8004724:	b18b      	cbz	r3, 800474a <SDMMC_CmdStopTransfer+0x4e>
 8004726:	6b42      	ldr	r2, [r0, #52]	; 0x34
 8004728:	3b01      	subs	r3, #1
 800472a:	f012 0f45 	tst.w	r2, #69	; 0x45
 800472e:	d0f9      	beq.n	8004724 <SDMMC_CmdStopTransfer+0x28>
 8004730:	6b43      	ldr	r3, [r0, #52]	; 0x34
 8004732:	075a      	lsls	r2, r3, #29
 8004734:	d412      	bmi.n	800475c <SDMMC_CmdStopTransfer+0x60>
 8004736:	6b43      	ldr	r3, [r0, #52]	; 0x34
 8004738:	07db      	lsls	r3, r3, #31
 800473a:	d40a      	bmi.n	8004752 <SDMMC_CmdStopTransfer+0x56>
 800473c:	6903      	ldr	r3, [r0, #16]
 800473e:	b2db      	uxtb	r3, r3
 8004740:	2b0c      	cmp	r3, #12
 8004742:	d010      	beq.n	8004766 <SDMMC_CmdStopTransfer+0x6a>
 8004744:	2001      	movs	r0, #1
 8004746:	bc30      	pop	{r4, r5}
 8004748:	4770      	bx	lr
 800474a:	f04f 4000 	mov.w	r0, #2147483648	; 0x80000000
 800474e:	bc30      	pop	{r4, r5}
 8004750:	4770      	bx	lr
 8004752:	2301      	movs	r3, #1
 8004754:	bc30      	pop	{r4, r5}
 8004756:	6383      	str	r3, [r0, #56]	; 0x38
 8004758:	4618      	mov	r0, r3
 800475a:	4770      	bx	lr
 800475c:	2304      	movs	r3, #4
 800475e:	bc30      	pop	{r4, r5}
 8004760:	6383      	str	r3, [r0, #56]	; 0x38
 8004762:	4618      	mov	r0, r3
 8004764:	4770      	bx	lr
 8004766:	bc30      	pop	{r4, r5}
 8004768:	f7ff bdc4 	b.w	80042f4 <SDMMC_GetCmdResp1.part.2>
 800476c:	20000110 	.word	0x20000110
 8004770:	10624dd3 	.word	0x10624dd3
 8004774:	05f5e100 	.word	0x05f5e100

08004778 <SDMMC_CmdSelDesel>:
 8004778:	4b1c      	ldr	r3, [pc, #112]	; (80047ec <SDMMC_CmdSelDesel+0x74>)
 800477a:	f240 4147 	movw	r1, #1095	; 0x447
 800477e:	b430      	push	{r4, r5}
 8004780:	681b      	ldr	r3, [r3, #0]
 8004782:	4d1b      	ldr	r5, [pc, #108]	; (80047f0 <SDMMC_CmdSelDesel+0x78>)
 8004784:	6082      	str	r2, [r0, #8]
 8004786:	4c1b      	ldr	r4, [pc, #108]	; (80047f4 <SDMMC_CmdSelDesel+0x7c>)
 8004788:	fba5 3203 	umull	r3, r2, r5, r3
 800478c:	68c5      	ldr	r5, [r0, #12]
 800478e:	f241 3388 	movw	r3, #5000	; 0x1388
 8004792:	0a52      	lsrs	r2, r2, #9
 8004794:	402c      	ands	r4, r5
 8004796:	fb03 f302 	mul.w	r3, r3, r2
 800479a:	4321      	orrs	r1, r4
 800479c:	60c1      	str	r1, [r0, #12]
 800479e:	e003      	b.n	80047a8 <SDMMC_CmdSelDesel+0x30>
 80047a0:	6b42      	ldr	r2, [r0, #52]	; 0x34
 80047a2:	f012 0f45 	tst.w	r2, #69	; 0x45
 80047a6:	d106      	bne.n	80047b6 <SDMMC_CmdSelDesel+0x3e>
 80047a8:	f113 33ff 	adds.w	r3, r3, #4294967295
 80047ac:	d2f8      	bcs.n	80047a0 <SDMMC_CmdSelDesel+0x28>
 80047ae:	f04f 4000 	mov.w	r0, #2147483648	; 0x80000000
 80047b2:	bc30      	pop	{r4, r5}
 80047b4:	4770      	bx	lr
 80047b6:	6b43      	ldr	r3, [r0, #52]	; 0x34
 80047b8:	075a      	lsls	r2, r3, #29
 80047ba:	d40e      	bmi.n	80047da <SDMMC_CmdSelDesel+0x62>
 80047bc:	6b43      	ldr	r3, [r0, #52]	; 0x34
 80047be:	07db      	lsls	r3, r3, #31
 80047c0:	d406      	bmi.n	80047d0 <SDMMC_CmdSelDesel+0x58>
 80047c2:	6903      	ldr	r3, [r0, #16]
 80047c4:	b2db      	uxtb	r3, r3
 80047c6:	2b07      	cmp	r3, #7
 80047c8:	d00c      	beq.n	80047e4 <SDMMC_CmdSelDesel+0x6c>
 80047ca:	2001      	movs	r0, #1
 80047cc:	bc30      	pop	{r4, r5}
 80047ce:	4770      	bx	lr
 80047d0:	2301      	movs	r3, #1
 80047d2:	bc30      	pop	{r4, r5}
 80047d4:	6383      	str	r3, [r0, #56]	; 0x38
 80047d6:	4618      	mov	r0, r3
 80047d8:	4770      	bx	lr
 80047da:	2304      	movs	r3, #4
 80047dc:	bc30      	pop	{r4, r5}
 80047de:	6383      	str	r3, [r0, #56]	; 0x38
 80047e0:	4618      	mov	r0, r3
 80047e2:	4770      	bx	lr
 80047e4:	bc30      	pop	{r4, r5}
 80047e6:	f7ff bd85 	b.w	80042f4 <SDMMC_GetCmdResp1.part.2>
 80047ea:	bf00      	nop
 80047ec:	20000110 	.word	0x20000110
 80047f0:	10624dd3 	.word	0x10624dd3
 80047f4:	fffff000 	.word	0xfffff000

080047f8 <SDMMC_CmdGoIdleState>:
 80047f8:	4b13      	ldr	r3, [pc, #76]	; (8004848 <SDMMC_CmdGoIdleState+0x50>)
 80047fa:	4601      	mov	r1, r0
 80047fc:	2200      	movs	r2, #0
 80047fe:	6818      	ldr	r0, [r3, #0]
 8004800:	f241 3388 	movw	r3, #5000	; 0x1388
 8004804:	b410      	push	{r4}
 8004806:	4c11      	ldr	r4, [pc, #68]	; (800484c <SDMMC_CmdGoIdleState+0x54>)
 8004808:	608a      	str	r2, [r1, #8]
 800480a:	f5a2 5280 	sub.w	r2, r2, #4096	; 0x1000
 800480e:	fba4 4000 	umull	r4, r0, r4, r0
 8004812:	68cc      	ldr	r4, [r1, #12]
 8004814:	4022      	ands	r2, r4
 8004816:	0a40      	lsrs	r0, r0, #9
 8004818:	f442 6280 	orr.w	r2, r2, #1024	; 0x400
 800481c:	fb03 f300 	mul.w	r3, r3, r0
 8004820:	60ca      	str	r2, [r1, #12]
 8004822:	e002      	b.n	800482a <SDMMC_CmdGoIdleState+0x32>
 8004824:	6b4a      	ldr	r2, [r1, #52]	; 0x34
 8004826:	0612      	lsls	r2, r2, #24
 8004828:	d407      	bmi.n	800483a <SDMMC_CmdGoIdleState+0x42>
 800482a:	f113 33ff 	adds.w	r3, r3, #4294967295
 800482e:	d2f9      	bcs.n	8004824 <SDMMC_CmdGoIdleState+0x2c>
 8004830:	f04f 4000 	mov.w	r0, #2147483648	; 0x80000000
 8004834:	f85d 4b04 	ldr.w	r4, [sp], #4
 8004838:	4770      	bx	lr
 800483a:	f240 53ff 	movw	r3, #1535	; 0x5ff
 800483e:	2000      	movs	r0, #0
 8004840:	f85d 4b04 	ldr.w	r4, [sp], #4
 8004844:	638b      	str	r3, [r1, #56]	; 0x38
 8004846:	4770      	bx	lr
 8004848:	20000110 	.word	0x20000110
 800484c:	10624dd3 	.word	0x10624dd3

08004850 <SDMMC_CmdOperCond>:
 8004850:	4b1c      	ldr	r3, [pc, #112]	; (80048c4 <SDMMC_CmdOperCond+0x74>)
 8004852:	4601      	mov	r1, r0
 8004854:	f44f 72d5 	mov.w	r2, #426	; 0x1aa
 8004858:	6818      	ldr	r0, [r3, #0]
 800485a:	f241 3388 	movw	r3, #5000	; 0x1388
 800485e:	b410      	push	{r4}
 8004860:	4c19      	ldr	r4, [pc, #100]	; (80048c8 <SDMMC_CmdOperCond+0x78>)
 8004862:	608a      	str	r2, [r1, #8]
 8004864:	fba4 4000 	umull	r4, r0, r4, r0
 8004868:	4a18      	ldr	r2, [pc, #96]	; (80048cc <SDMMC_CmdOperCond+0x7c>)
 800486a:	68cc      	ldr	r4, [r1, #12]
 800486c:	0a40      	lsrs	r0, r0, #9
 800486e:	4022      	ands	r2, r4
 8004870:	fb03 f300 	mul.w	r3, r3, r0
 8004874:	f442 6289 	orr.w	r2, r2, #1096	; 0x448
 8004878:	60ca      	str	r2, [r1, #12]
 800487a:	e003      	b.n	8004884 <SDMMC_CmdOperCond+0x34>
 800487c:	6b4a      	ldr	r2, [r1, #52]	; 0x34
 800487e:	f012 0f45 	tst.w	r2, #69	; 0x45
 8004882:	d107      	bne.n	8004894 <SDMMC_CmdOperCond+0x44>
 8004884:	f113 33ff 	adds.w	r3, r3, #4294967295
 8004888:	d2f8      	bcs.n	800487c <SDMMC_CmdOperCond+0x2c>
 800488a:	f04f 4000 	mov.w	r0, #2147483648	; 0x80000000
 800488e:	f85d 4b04 	ldr.w	r4, [sp], #4
 8004892:	4770      	bx	lr
 8004894:	6b48      	ldr	r0, [r1, #52]	; 0x34
 8004896:	f010 0004 	ands.w	r0, r0, #4
 800489a:	d10c      	bne.n	80048b6 <SDMMC_CmdOperCond+0x66>
 800489c:	6b4b      	ldr	r3, [r1, #52]	; 0x34
 800489e:	f013 0340 	ands.w	r3, r3, #64	; 0x40
 80048a2:	d004      	beq.n	80048ae <SDMMC_CmdOperCond+0x5e>
 80048a4:	2340      	movs	r3, #64	; 0x40
 80048a6:	f85d 4b04 	ldr.w	r4, [sp], #4
 80048aa:	638b      	str	r3, [r1, #56]	; 0x38
 80048ac:	4770      	bx	lr
 80048ae:	4618      	mov	r0, r3
 80048b0:	f85d 4b04 	ldr.w	r4, [sp], #4
 80048b4:	4770      	bx	lr
 80048b6:	2340      	movs	r3, #64	; 0x40
 80048b8:	2004      	movs	r0, #4
 80048ba:	f85d 4b04 	ldr.w	r4, [sp], #4
 80048be:	638b      	str	r3, [r1, #56]	; 0x38
 80048c0:	4770      	bx	lr
 80048c2:	bf00      	nop
 80048c4:	20000110 	.word	0x20000110
 80048c8:	10624dd3 	.word	0x10624dd3
 80048cc:	fffff000 	.word	0xfffff000

080048d0 <SDMMC_CmdAppCommand>:
 80048d0:	4a1c      	ldr	r2, [pc, #112]	; (8004944 <SDMMC_CmdAppCommand+0x74>)
 80048d2:	4b1d      	ldr	r3, [pc, #116]	; (8004948 <SDMMC_CmdAppCommand+0x78>)
 80048d4:	6812      	ldr	r2, [r2, #0]
 80048d6:	b430      	push	{r4, r5}
 80048d8:	6081      	str	r1, [r0, #8]
 80048da:	f240 4477 	movw	r4, #1143	; 0x477
 80048de:	68c5      	ldr	r5, [r0, #12]
 80048e0:	fba3 3202 	umull	r3, r2, r3, r2
 80048e4:	4919      	ldr	r1, [pc, #100]	; (800494c <SDMMC_CmdAppCommand+0x7c>)
 80048e6:	f241 3388 	movw	r3, #5000	; 0x1388
 80048ea:	0a52      	lsrs	r2, r2, #9
 80048ec:	4029      	ands	r1, r5
 80048ee:	fb03 f302 	mul.w	r3, r3, r2
 80048f2:	430c      	orrs	r4, r1
 80048f4:	60c4      	str	r4, [r0, #12]
 80048f6:	e003      	b.n	8004900 <SDMMC_CmdAppCommand+0x30>
 80048f8:	6b42      	ldr	r2, [r0, #52]	; 0x34
 80048fa:	f012 0f45 	tst.w	r2, #69	; 0x45
 80048fe:	d106      	bne.n	800490e <SDMMC_CmdAppCommand+0x3e>
 8004900:	f113 33ff 	adds.w	r3, r3, #4294967295
 8004904:	d2f8      	bcs.n	80048f8 <SDMMC_CmdAppCommand+0x28>
 8004906:	f04f 4000 	mov.w	r0, #2147483648	; 0x80000000
 800490a:	bc30      	pop	{r4, r5}
 800490c:	4770      	bx	lr
 800490e:	6b43      	ldr	r3, [r0, #52]	; 0x34
 8004910:	075a      	lsls	r2, r3, #29
 8004912:	d40e      	bmi.n	8004932 <SDMMC_CmdAppCommand+0x62>
 8004914:	6b43      	ldr	r3, [r0, #52]	; 0x34
 8004916:	07db      	lsls	r3, r3, #31
 8004918:	d406      	bmi.n	8004928 <SDMMC_CmdAppCommand+0x58>
 800491a:	6903      	ldr	r3, [r0, #16]
 800491c:	b2db      	uxtb	r3, r3
 800491e:	2b37      	cmp	r3, #55	; 0x37
 8004920:	d00c      	beq.n	800493c <SDMMC_CmdAppCommand+0x6c>
 8004922:	2001      	movs	r0, #1
 8004924:	bc30      	pop	{r4, r5}
 8004926:	4770      	bx	lr
 8004928:	2301      	movs	r3, #1
 800492a:	bc30      	pop	{r4, r5}
 800492c:	6383      	str	r3, [r0, #56]	; 0x38
 800492e:	4618      	mov	r0, r3
 8004930:	4770      	bx	lr
 8004932:	2304      	movs	r3, #4
 8004934:	bc30      	pop	{r4, r5}
 8004936:	6383      	str	r3, [r0, #56]	; 0x38
 8004938:	4618      	mov	r0, r3
 800493a:	4770      	bx	lr
 800493c:	bc30      	pop	{r4, r5}
 800493e:	f7ff bcd9 	b.w	80042f4 <SDMMC_GetCmdResp1.part.2>
 8004942:	bf00      	nop
 8004944:	20000110 	.word	0x20000110
 8004948:	10624dd3 	.word	0x10624dd3
 800494c:	fffff000 	.word	0xfffff000

08004950 <SDMMC_CmdAppOperCommand>:
 8004950:	b430      	push	{r4, r5}
 8004952:	4d17      	ldr	r5, [pc, #92]	; (80049b0 <SDMMC_CmdAppOperCommand+0x60>)
 8004954:	4604      	mov	r4, r0
 8004956:	4a17      	ldr	r2, [pc, #92]	; (80049b4 <SDMMC_CmdAppOperCommand+0x64>)
 8004958:	f240 4069 	movw	r0, #1129	; 0x469
 800495c:	430d      	orrs	r5, r1
 800495e:	4b16      	ldr	r3, [pc, #88]	; (80049b8 <SDMMC_CmdAppOperCommand+0x68>)
 8004960:	6812      	ldr	r2, [r2, #0]
 8004962:	60a5      	str	r5, [r4, #8]
 8004964:	4915      	ldr	r1, [pc, #84]	; (80049bc <SDMMC_CmdAppOperCommand+0x6c>)
 8004966:	fba3 3202 	umull	r3, r2, r3, r2
 800496a:	68e5      	ldr	r5, [r4, #12]
 800496c:	f241 3388 	movw	r3, #5000	; 0x1388
 8004970:	0a52      	lsrs	r2, r2, #9
 8004972:	4029      	ands	r1, r5
 8004974:	fb03 f302 	mul.w	r3, r3, r2
 8004978:	4308      	orrs	r0, r1
 800497a:	60e0      	str	r0, [r4, #12]
 800497c:	e003      	b.n	8004986 <SDMMC_CmdAppOperCommand+0x36>
 800497e:	6b62      	ldr	r2, [r4, #52]	; 0x34
 8004980:	f012 0f45 	tst.w	r2, #69	; 0x45
 8004984:	d106      	bne.n	8004994 <SDMMC_CmdAppOperCommand+0x44>
 8004986:	f113 33ff 	adds.w	r3, r3, #4294967295
 800498a:	d2f8      	bcs.n	800497e <SDMMC_CmdAppOperCommand+0x2e>
 800498c:	f04f 4000 	mov.w	r0, #2147483648	; 0x80000000
 8004990:	bc30      	pop	{r4, r5}
 8004992:	4770      	bx	lr
 8004994:	6b60      	ldr	r0, [r4, #52]	; 0x34
 8004996:	f010 0004 	ands.w	r0, r0, #4
 800499a:	d104      	bne.n	80049a6 <SDMMC_CmdAppOperCommand+0x56>
 800499c:	f240 53ff 	movw	r3, #1535	; 0x5ff
 80049a0:	63a3      	str	r3, [r4, #56]	; 0x38
 80049a2:	bc30      	pop	{r4, r5}
 80049a4:	4770      	bx	lr
 80049a6:	2004      	movs	r0, #4
 80049a8:	63a0      	str	r0, [r4, #56]	; 0x38
 80049aa:	bc30      	pop	{r4, r5}
 80049ac:	4770      	bx	lr
 80049ae:	bf00      	nop
 80049b0:	80100000 	.word	0x80100000
 80049b4:	20000110 	.word	0x20000110
 80049b8:	10624dd3 	.word	0x10624dd3
 80049bc:	fffff000 	.word	0xfffff000

080049c0 <SDMMC_CmdSendCID>:
 80049c0:	b430      	push	{r4, r5}
 80049c2:	4601      	mov	r1, r0
 80049c4:	2400      	movs	r4, #0
 80049c6:	4a19      	ldr	r2, [pc, #100]	; (8004a2c <SDMMC_CmdSendCID+0x6c>)
 80049c8:	f240 40c2 	movw	r0, #1218	; 0x4c2
 80049cc:	608c      	str	r4, [r1, #8]
 80049ce:	f5a4 5480 	sub.w	r4, r4, #4096	; 0x1000
 80049d2:	4b17      	ldr	r3, [pc, #92]	; (8004a30 <SDMMC_CmdSendCID+0x70>)
 80049d4:	68cd      	ldr	r5, [r1, #12]
 80049d6:	6812      	ldr	r2, [r2, #0]
 80049d8:	402c      	ands	r4, r5
 80049da:	fba3 3202 	umull	r3, r2, r3, r2
 80049de:	f241 3388 	movw	r3, #5000	; 0x1388
 80049e2:	4320      	orrs	r0, r4
 80049e4:	0a52      	lsrs	r2, r2, #9
 80049e6:	60c8      	str	r0, [r1, #12]
 80049e8:	fb03 f302 	mul.w	r3, r3, r2
 80049ec:	e003      	b.n	80049f6 <SDMMC_CmdSendCID+0x36>
 80049ee:	6b4a      	ldr	r2, [r1, #52]	; 0x34
 80049f0:	f012 0f45 	tst.w	r2, #69	; 0x45
 80049f4:	d106      	bne.n	8004a04 <SDMMC_CmdSendCID+0x44>
 80049f6:	f113 33ff 	adds.w	r3, r3, #4294967295
 80049fa:	d2f8      	bcs.n	80049ee <SDMMC_CmdSendCID+0x2e>
 80049fc:	f04f 4000 	mov.w	r0, #2147483648	; 0x80000000
 8004a00:	bc30      	pop	{r4, r5}
 8004a02:	4770      	bx	lr
 8004a04:	6b4b      	ldr	r3, [r1, #52]	; 0x34
 8004a06:	075b      	lsls	r3, r3, #29
 8004a08:	d40c      	bmi.n	8004a24 <SDMMC_CmdSendCID+0x64>
 8004a0a:	6b48      	ldr	r0, [r1, #52]	; 0x34
 8004a0c:	f010 0001 	ands.w	r0, r0, #1
 8004a10:	d104      	bne.n	8004a1c <SDMMC_CmdSendCID+0x5c>
 8004a12:	f240 53ff 	movw	r3, #1535	; 0x5ff
 8004a16:	638b      	str	r3, [r1, #56]	; 0x38
 8004a18:	bc30      	pop	{r4, r5}
 8004a1a:	4770      	bx	lr
 8004a1c:	2001      	movs	r0, #1
 8004a1e:	6388      	str	r0, [r1, #56]	; 0x38
 8004a20:	bc30      	pop	{r4, r5}
 8004a22:	4770      	bx	lr
 8004a24:	2004      	movs	r0, #4
 8004a26:	6388      	str	r0, [r1, #56]	; 0x38
 8004a28:	bc30      	pop	{r4, r5}
 8004a2a:	4770      	bx	lr
 8004a2c:	20000110 	.word	0x20000110
 8004a30:	10624dd3 	.word	0x10624dd3

08004a34 <SDMMC_CmdSendCSD>:
 8004a34:	b430      	push	{r4, r5}
 8004a36:	4a19      	ldr	r2, [pc, #100]	; (8004a9c <SDMMC_CmdSendCSD+0x68>)
 8004a38:	4604      	mov	r4, r0
 8004a3a:	4b19      	ldr	r3, [pc, #100]	; (8004aa0 <SDMMC_CmdSendCSD+0x6c>)
 8004a3c:	f240 40c9 	movw	r0, #1225	; 0x4c9
 8004a40:	60a1      	str	r1, [r4, #8]
 8004a42:	6812      	ldr	r2, [r2, #0]
 8004a44:	68e5      	ldr	r5, [r4, #12]
 8004a46:	4917      	ldr	r1, [pc, #92]	; (8004aa4 <SDMMC_CmdSendCSD+0x70>)
 8004a48:	fba3 3202 	umull	r3, r2, r3, r2
 8004a4c:	f241 3388 	movw	r3, #5000	; 0x1388
 8004a50:	4029      	ands	r1, r5
 8004a52:	0a52      	lsrs	r2, r2, #9
 8004a54:	4308      	orrs	r0, r1
 8004a56:	fb03 f302 	mul.w	r3, r3, r2
 8004a5a:	60e0      	str	r0, [r4, #12]
 8004a5c:	e003      	b.n	8004a66 <SDMMC_CmdSendCSD+0x32>
 8004a5e:	6b62      	ldr	r2, [r4, #52]	; 0x34
 8004a60:	f012 0f45 	tst.w	r2, #69	; 0x45
 8004a64:	d106      	bne.n	8004a74 <SDMMC_CmdSendCSD+0x40>
 8004a66:	f113 33ff 	adds.w	r3, r3, #4294967295
 8004a6a:	d2f8      	bcs.n	8004a5e <SDMMC_CmdSendCSD+0x2a>
 8004a6c:	f04f 4000 	mov.w	r0, #2147483648	; 0x80000000
 8004a70:	bc30      	pop	{r4, r5}
 8004a72:	4770      	bx	lr
 8004a74:	6b63      	ldr	r3, [r4, #52]	; 0x34
 8004a76:	075b      	lsls	r3, r3, #29
 8004a78:	d40c      	bmi.n	8004a94 <SDMMC_CmdSendCSD+0x60>
 8004a7a:	6b60      	ldr	r0, [r4, #52]	; 0x34
 8004a7c:	f010 0001 	ands.w	r0, r0, #1
 8004a80:	d104      	bne.n	8004a8c <SDMMC_CmdSendCSD+0x58>
 8004a82:	f240 53ff 	movw	r3, #1535	; 0x5ff
 8004a86:	63a3      	str	r3, [r4, #56]	; 0x38
 8004a88:	bc30      	pop	{r4, r5}
 8004a8a:	4770      	bx	lr
 8004a8c:	2001      	movs	r0, #1
 8004a8e:	63a0      	str	r0, [r4, #56]	; 0x38
 8004a90:	bc30      	pop	{r4, r5}
 8004a92:	4770      	bx	lr
 8004a94:	2004      	movs	r0, #4
 8004a96:	63a0      	str	r0, [r4, #56]	; 0x38
 8004a98:	bc30      	pop	{r4, r5}
 8004a9a:	4770      	bx	lr
 8004a9c:	20000110 	.word	0x20000110
 8004aa0:	10624dd3 	.word	0x10624dd3
 8004aa4:	fffff000 	.word	0xfffff000

08004aa8 <SDMMC_CmdSetRelAdd>:
 8004aa8:	b470      	push	{r4, r5, r6}
 8004aaa:	4b2c      	ldr	r3, [pc, #176]	; (8004b5c <SDMMC_CmdSetRelAdd+0xb4>)
 8004aac:	2400      	movs	r4, #0
 8004aae:	4a2c      	ldr	r2, [pc, #176]	; (8004b60 <SDMMC_CmdSetRelAdd+0xb8>)
 8004ab0:	b083      	sub	sp, #12
 8004ab2:	6084      	str	r4, [r0, #8]
 8004ab4:	f240 4443 	movw	r4, #1091	; 0x443
 8004ab8:	68c6      	ldr	r6, [r0, #12]
 8004aba:	681b      	ldr	r3, [r3, #0]
 8004abc:	4d29      	ldr	r5, [pc, #164]	; (8004b64 <SDMMC_CmdSetRelAdd+0xbc>)
 8004abe:	fba2 2303 	umull	r2, r3, r2, r3
 8004ac2:	4035      	ands	r5, r6
 8004ac4:	0a5a      	lsrs	r2, r3, #9
 8004ac6:	f241 3388 	movw	r3, #5000	; 0x1388
 8004aca:	432c      	orrs	r4, r5
 8004acc:	fb03 f302 	mul.w	r3, r3, r2
 8004ad0:	60c4      	str	r4, [r0, #12]
 8004ad2:	e003      	b.n	8004adc <SDMMC_CmdSetRelAdd+0x34>
 8004ad4:	6b42      	ldr	r2, [r0, #52]	; 0x34
 8004ad6:	f012 0f45 	tst.w	r2, #69	; 0x45
 8004ada:	d107      	bne.n	8004aec <SDMMC_CmdSetRelAdd+0x44>
 8004adc:	f113 33ff 	adds.w	r3, r3, #4294967295
 8004ae0:	d2f8      	bcs.n	8004ad4 <SDMMC_CmdSetRelAdd+0x2c>
 8004ae2:	f04f 4000 	mov.w	r0, #2147483648	; 0x80000000
 8004ae6:	b003      	add	sp, #12
 8004ae8:	bc70      	pop	{r4, r5, r6}
 8004aea:	4770      	bx	lr
 8004aec:	6b43      	ldr	r3, [r0, #52]	; 0x34
 8004aee:	075c      	lsls	r4, r3, #29
 8004af0:	d411      	bmi.n	8004b16 <SDMMC_CmdSetRelAdd+0x6e>
 8004af2:	6b43      	ldr	r3, [r0, #52]	; 0x34
 8004af4:	f013 0301 	ands.w	r3, r3, #1
 8004af8:	d107      	bne.n	8004b0a <SDMMC_CmdSetRelAdd+0x62>
 8004afa:	6902      	ldr	r2, [r0, #16]
 8004afc:	b2d2      	uxtb	r2, r2
 8004afe:	2a03      	cmp	r2, #3
 8004b00:	d00f      	beq.n	8004b22 <SDMMC_CmdSetRelAdd+0x7a>
 8004b02:	2001      	movs	r0, #1
 8004b04:	b003      	add	sp, #12
 8004b06:	bc70      	pop	{r4, r5, r6}
 8004b08:	4770      	bx	lr
 8004b0a:	2301      	movs	r3, #1
 8004b0c:	6383      	str	r3, [r0, #56]	; 0x38
 8004b0e:	4618      	mov	r0, r3
 8004b10:	b003      	add	sp, #12
 8004b12:	bc70      	pop	{r4, r5, r6}
 8004b14:	4770      	bx	lr
 8004b16:	2304      	movs	r3, #4
 8004b18:	6383      	str	r3, [r0, #56]	; 0x38
 8004b1a:	4618      	mov	r0, r3
 8004b1c:	b003      	add	sp, #12
 8004b1e:	bc70      	pop	{r4, r5, r6}
 8004b20:	4770      	bx	lr
 8004b22:	f100 0214 	add.w	r2, r0, #20
 8004b26:	f240 54ff 	movw	r4, #1535	; 0x5ff
 8004b2a:	6384      	str	r4, [r0, #56]	; 0x38
 8004b2c:	9301      	str	r3, [sp, #4]
 8004b2e:	9201      	str	r2, [sp, #4]
 8004b30:	9b01      	ldr	r3, [sp, #4]
 8004b32:	681b      	ldr	r3, [r3, #0]
 8004b34:	f413 4060 	ands.w	r0, r3, #57344	; 0xe000
 8004b38:	d009      	beq.n	8004b4e <SDMMC_CmdSetRelAdd+0xa6>
 8004b3a:	045a      	lsls	r2, r3, #17
 8004b3c:	d40a      	bmi.n	8004b54 <SDMMC_CmdSetRelAdd+0xac>
 8004b3e:	f413 4f00 	tst.w	r3, #32768	; 0x8000
 8004b42:	bf14      	ite	ne
 8004b44:	f44f 5080 	movne.w	r0, #4096	; 0x1000
 8004b48:	f44f 3080 	moveq.w	r0, #65536	; 0x10000
 8004b4c:	e7cb      	b.n	8004ae6 <SDMMC_CmdSetRelAdd+0x3e>
 8004b4e:	0c1b      	lsrs	r3, r3, #16
 8004b50:	800b      	strh	r3, [r1, #0]
 8004b52:	e7c8      	b.n	8004ae6 <SDMMC_CmdSetRelAdd+0x3e>
 8004b54:	f44f 5000 	mov.w	r0, #8192	; 0x2000
 8004b58:	e7c5      	b.n	8004ae6 <SDMMC_CmdSetRelAdd+0x3e>
 8004b5a:	bf00      	nop
 8004b5c:	20000110 	.word	0x20000110
 8004b60:	10624dd3 	.word	0x10624dd3
 8004b64:	fffff000 	.word	0xfffff000

08004b68 <SDMMC_CmdSendStatus>:
 8004b68:	4a1c      	ldr	r2, [pc, #112]	; (8004bdc <SDMMC_CmdSendStatus+0x74>)
 8004b6a:	4b1d      	ldr	r3, [pc, #116]	; (8004be0 <SDMMC_CmdSendStatus+0x78>)
 8004b6c:	6812      	ldr	r2, [r2, #0]
 8004b6e:	b430      	push	{r4, r5}
 8004b70:	6081      	str	r1, [r0, #8]
 8004b72:	f240 444d 	movw	r4, #1101	; 0x44d
 8004b76:	68c5      	ldr	r5, [r0, #12]
 8004b78:	fba3 3202 	umull	r3, r2, r3, r2
 8004b7c:	4919      	ldr	r1, [pc, #100]	; (8004be4 <SDMMC_CmdSendStatus+0x7c>)
 8004b7e:	f241 3388 	movw	r3, #5000	; 0x1388
 8004b82:	0a52      	lsrs	r2, r2, #9
 8004b84:	4029      	ands	r1, r5
 8004b86:	fb03 f302 	mul.w	r3, r3, r2
 8004b8a:	430c      	orrs	r4, r1
 8004b8c:	60c4      	str	r4, [r0, #12]
 8004b8e:	e003      	b.n	8004b98 <SDMMC_CmdSendStatus+0x30>
 8004b90:	6b42      	ldr	r2, [r0, #52]	; 0x34
 8004b92:	f012 0f45 	tst.w	r2, #69	; 0x45
 8004b96:	d106      	bne.n	8004ba6 <SDMMC_CmdSendStatus+0x3e>
 8004b98:	f113 33ff 	adds.w	r3, r3, #4294967295
 8004b9c:	d2f8      	bcs.n	8004b90 <SDMMC_CmdSendStatus+0x28>
 8004b9e:	f04f 4000 	mov.w	r0, #2147483648	; 0x80000000
 8004ba2:	bc30      	pop	{r4, r5}
 8004ba4:	4770      	bx	lr
 8004ba6:	6b43      	ldr	r3, [r0, #52]	; 0x34
 8004ba8:	075a      	lsls	r2, r3, #29
 8004baa:	d40e      	bmi.n	8004bca <SDMMC_CmdSendStatus+0x62>
 8004bac:	6b43      	ldr	r3, [r0, #52]	; 0x34
 8004bae:	07db      	lsls	r3, r3, #31
 8004bb0:	d406      	bmi.n	8004bc0 <SDMMC_CmdSendStatus+0x58>
 8004bb2:	6903      	ldr	r3, [r0, #16]
 8004bb4:	b2db      	uxtb	r3, r3
 8004bb6:	2b0d      	cmp	r3, #13
 8004bb8:	d00c      	beq.n	8004bd4 <SDMMC_CmdSendStatus+0x6c>
 8004bba:	2001      	movs	r0, #1
 8004bbc:	bc30      	pop	{r4, r5}
 8004bbe:	4770      	bx	lr
 8004bc0:	2301      	movs	r3, #1
 8004bc2:	bc30      	pop	{r4, r5}
 8004bc4:	6383      	str	r3, [r0, #56]	; 0x38
 8004bc6:	4618      	mov	r0, r3
 8004bc8:	4770      	bx	lr
 8004bca:	2304      	movs	r3, #4
 8004bcc:	bc30      	pop	{r4, r5}
 8004bce:	6383      	str	r3, [r0, #56]	; 0x38
 8004bd0:	4618      	mov	r0, r3
 8004bd2:	4770      	bx	lr
 8004bd4:	bc30      	pop	{r4, r5}
 8004bd6:	f7ff bb8d 	b.w	80042f4 <SDMMC_GetCmdResp1.part.2>
 8004bda:	bf00      	nop
 8004bdc:	20000110 	.word	0x20000110
 8004be0:	10624dd3 	.word	0x10624dd3
 8004be4:	fffff000 	.word	0xfffff000

08004be8 <FATFS_LinkDriver>:
 8004be8:	4b11      	ldr	r3, [pc, #68]	; (8004c30 <FATFS_LinkDriver+0x48>)
 8004bea:	7a5a      	ldrb	r2, [r3, #9]
 8004bec:	b10a      	cbz	r2, 8004bf2 <FATFS_LinkDriver+0xa>
 8004bee:	2001      	movs	r0, #1
 8004bf0:	4770      	bx	lr
 8004bf2:	b5f0      	push	{r4, r5, r6, r7, lr}
 8004bf4:	f002 04ff 	and.w	r4, r2, #255	; 0xff
 8004bf8:	f893 e009 	ldrb.w	lr, [r3, #9]
 8004bfc:	7a5e      	ldrb	r6, [r3, #9]
 8004bfe:	f04f 0c3a 	mov.w	ip, #58	; 0x3a
 8004c02:	7a5d      	ldrb	r5, [r3, #9]
 8004c04:	272f      	movs	r7, #47	; 0x2f
 8004c06:	7a5a      	ldrb	r2, [r3, #9]
 8004c08:	eb03 0686 	add.w	r6, r3, r6, lsl #2
 8004c0c:	441d      	add	r5, r3
 8004c0e:	f803 400e 	strb.w	r4, [r3, lr]
 8004c12:	b2d2      	uxtb	r2, r2
 8004c14:	6070      	str	r0, [r6, #4]
 8004c16:	722c      	strb	r4, [r5, #8]
 8004c18:	1c50      	adds	r0, r2, #1
 8004c1a:	3230      	adds	r2, #48	; 0x30
 8004c1c:	b2c0      	uxtb	r0, r0
 8004c1e:	7258      	strb	r0, [r3, #9]
 8004c20:	4620      	mov	r0, r4
 8004c22:	700a      	strb	r2, [r1, #0]
 8004c24:	70cc      	strb	r4, [r1, #3]
 8004c26:	f881 c001 	strb.w	ip, [r1, #1]
 8004c2a:	708f      	strb	r7, [r1, #2]
 8004c2c:	bdf0      	pop	{r4, r5, r6, r7, pc}
 8004c2e:	bf00      	nop
 8004c30:	20000194 	.word	0x20000194
 8004c34:	00000000 	.word	0x00000000

08004c38 <_ZN6Sensor8ICM20689C1Ev>:
 8004c38:	b538      	push	{r3, r4, r5, lr}
 8004c3a:	4604      	mov	r4, r0
 8004c3c:	2500      	movs	r5, #0
 8004c3e:	480a      	ldr	r0, [pc, #40]	; (8004c68 <_ZN6Sensor8ICM20689C1Ev+0x30>)
 8004c40:	490a      	ldr	r1, [pc, #40]	; (8004c6c <_ZN6Sensor8ICM20689C1Ev+0x34>)
 8004c42:	6020      	str	r0, [r4, #0]
 8004c44:	f104 0040 	add.w	r0, r4, #64	; 0x40
 8004c48:	7125      	strb	r5, [r4, #4]
 8004c4a:	a305      	add	r3, pc, #20	; (adr r3, 8004c60 <_ZN6Sensor8ICM20689C1Ev+0x28>)
 8004c4c:	e9d3 2300 	ldrd	r2, r3, [r3]
 8004c50:	e9c4 2306 	strd	r2, r3, [r4, #24]
 8004c54:	f000 f8e0 	bl	8004e18 <_ZN9Interface5I_SPIC1ER19__SPI_HandleTypeDef>
 8004c58:	4620      	mov	r0, r4
 8004c5a:	bd38      	pop	{r3, r4, r5, pc}
 8004c5c:	f3af 8000 	nop.w
 8004c60:	cccccccd 	.word	0xcccccccd
 8004c64:	3ff8cccc 	.word	0x3ff8cccc
 8004c68:	08006d48 	.word	0x08006d48
 8004c6c:	20000adc 	.word	0x20000adc

08004c70 <_ZN6Sensor8ICM206899InitalizeEv>:
 8004c70:	2240      	movs	r2, #64	; 0x40
 8004c72:	216b      	movs	r1, #107	; 0x6b
 8004c74:	b538      	push	{r3, r4, r5, lr}
 8004c76:	1884      	adds	r4, r0, r2
 8004c78:	4605      	mov	r5, r0
 8004c7a:	4620      	mov	r0, r4
 8004c7c:	f000 f8d2 	bl	8004e24 <_ZN9Interface5I_SPI13WriteRegisterEhh>
 8004c80:	2064      	movs	r0, #100	; 0x64
 8004c82:	f7fc f8fd 	bl	8000e80 <HAL_Delay>
 8004c86:	2210      	movs	r2, #16
 8004c88:	216a      	movs	r1, #106	; 0x6a
 8004c8a:	4620      	mov	r0, r4
 8004c8c:	f000 f8ca 	bl	8004e24 <_ZN9Interface5I_SPI13WriteRegisterEhh>
 8004c90:	200a      	movs	r0, #10
 8004c92:	f7fc f8f5 	bl	8000e80 <HAL_Delay>
 8004c96:	2200      	movs	r2, #0
 8004c98:	216b      	movs	r1, #107	; 0x6b
 8004c9a:	4620      	mov	r0, r4
 8004c9c:	f000 f8c2 	bl	8004e24 <_ZN9Interface5I_SPI13WriteRegisterEhh>
 8004ca0:	200a      	movs	r0, #10
 8004ca2:	f7fc f8ed 	bl	8000e80 <HAL_Delay>
 8004ca6:	4620      	mov	r0, r4
 8004ca8:	2175      	movs	r1, #117	; 0x75
 8004caa:	f000 f8d7 	bl	8004e5c <_ZN9Interface5I_SPI12ReadRegisterEh>
 8004cae:	2898      	cmp	r0, #152	; 0x98
 8004cb0:	d101      	bne.n	8004cb6 <_ZN6Sensor8ICM206899InitalizeEv+0x46>
 8004cb2:	2301      	movs	r3, #1
 8004cb4:	712b      	strb	r3, [r5, #4]
 8004cb6:	200a      	movs	r0, #10
 8004cb8:	f7fc f8e2 	bl	8000e80 <HAL_Delay>
 8004cbc:	2202      	movs	r2, #2
 8004cbe:	211a      	movs	r1, #26
 8004cc0:	4620      	mov	r0, r4
 8004cc2:	f000 f8af 	bl	8004e24 <_ZN9Interface5I_SPI13WriteRegisterEhh>
 8004cc6:	200a      	movs	r0, #10
 8004cc8:	f7fc f8da 	bl	8000e80 <HAL_Delay>
 8004ccc:	2200      	movs	r2, #0
 8004cce:	211b      	movs	r1, #27
 8004cd0:	4620      	mov	r0, r4
 8004cd2:	f000 f8a7 	bl	8004e24 <_ZN9Interface5I_SPI13WriteRegisterEhh>
 8004cd6:	200a      	movs	r0, #10
 8004cd8:	f7fc f8d2 	bl	8000e80 <HAL_Delay>
 8004cdc:	2200      	movs	r2, #0
 8004cde:	211c      	movs	r1, #28
 8004ce0:	4620      	mov	r0, r4
 8004ce2:	f000 f89f 	bl	8004e24 <_ZN9Interface5I_SPI13WriteRegisterEhh>
 8004ce6:	200a      	movs	r0, #10
 8004ce8:	f7fc f8ca 	bl	8000e80 <HAL_Delay>
 8004cec:	2202      	movs	r2, #2
 8004cee:	211d      	movs	r1, #29
 8004cf0:	4620      	mov	r0, r4
 8004cf2:	f000 f897 	bl	8004e24 <_ZN9Interface5I_SPI13WriteRegisterEhh>
 8004cf6:	200a      	movs	r0, #10
 8004cf8:	f7fc f8c2 	bl	8000e80 <HAL_Delay>
 8004cfc:	4620      	mov	r0, r4
 8004cfe:	2200      	movs	r2, #0
 8004d00:	2119      	movs	r1, #25
 8004d02:	e8bd 4038 	ldmia.w	sp!, {r3, r4, r5, lr}
 8004d06:	f000 b88d 	b.w	8004e24 <_ZN9Interface5I_SPI13WriteRegisterEhh>
 8004d0a:	bf00      	nop
 8004d0c:	0000      	movs	r0, r0
	...

08004d10 <_ZN6Sensor8ICM206898ReadGyroEv>:
 8004d10:	e92d 41f0 	stmdb	sp!, {r4, r5, r6, r7, r8, lr}
 8004d14:	b084      	sub	sp, #16
 8004d16:	4a2c      	ldr	r2, [pc, #176]	; (8004dc8 <_ZN6Sensor8ICM206898ReadGyroEv+0xb8>)
 8004d18:	f644 0347 	movw	r3, #18503	; 0x4847
 8004d1c:	4606      	mov	r6, r0
 8004d1e:	ac02      	add	r4, sp, #8
 8004d20:	f100 0840 	add.w	r8, r0, #64	; 0x40
 8004d24:	466d      	mov	r5, sp
 8004d26:	f10d 070e 	add.w	r7, sp, #14
 8004d2a:	9202      	str	r2, [sp, #8]
 8004d2c:	f8ad 300c 	strh.w	r3, [sp, #12]
 8004d30:	f814 1b01 	ldrb.w	r1, [r4], #1
 8004d34:	4640      	mov	r0, r8
 8004d36:	f000 f891 	bl	8004e5c <_ZN9Interface5I_SPI12ReadRegisterEh>
 8004d3a:	f805 0b01 	strb.w	r0, [r5], #1
 8004d3e:	42bc      	cmp	r4, r7
 8004d40:	d1f6      	bne.n	8004d30 <_ZN6Sensor8ICM206898ReadGyroEv+0x20>
 8004d42:	f89d 3000 	ldrb.w	r3, [sp]
 8004d46:	f89d 0001 	ldrb.w	r0, [sp, #1]
 8004d4a:	f89d 1004 	ldrb.w	r1, [sp, #4]
 8004d4e:	ea40 2003 	orr.w	r0, r0, r3, lsl #8
 8004d52:	f89d 4002 	ldrb.w	r4, [sp, #2]
 8004d56:	f89d 2003 	ldrb.w	r2, [sp, #3]
 8004d5a:	f89d 3005 	ldrb.w	r3, [sp, #5]
 8004d5e:	ea42 2204 	orr.w	r2, r2, r4, lsl #8
 8004d62:	8730      	strh	r0, [r6, #56]	; 0x38
 8004d64:	ea43 2301 	orr.w	r3, r3, r1, lsl #8
 8004d68:	8772      	strh	r2, [r6, #58]	; 0x3a
 8004d6a:	87b3      	strh	r3, [r6, #60]	; 0x3c
 8004d6c:	f7fb fbfa 	bl	8000564 <__aeabi_i2d>
 8004d70:	4602      	mov	r2, r0
 8004d72:	460b      	mov	r3, r1
 8004d74:	a112      	add	r1, pc, #72	; (adr r1, 8004dc0 <_ZN6Sensor8ICM206898ReadGyroEv+0xb0>)
 8004d76:	e9d1 0100 	ldrd	r0, r1, [r1]
 8004d7a:	f7fb fd87 	bl	800088c <__aeabi_ddiv>
 8004d7e:	f7fb fe6d 	bl	8000a5c <__aeabi_d2f>
 8004d82:	60b0      	str	r0, [r6, #8]
 8004d84:	8f70      	ldrh	r0, [r6, #58]	; 0x3a
 8004d86:	f7fb fbed 	bl	8000564 <__aeabi_i2d>
 8004d8a:	4602      	mov	r2, r0
 8004d8c:	460b      	mov	r3, r1
 8004d8e:	a10c      	add	r1, pc, #48	; (adr r1, 8004dc0 <_ZN6Sensor8ICM206898ReadGyroEv+0xb0>)
 8004d90:	e9d1 0100 	ldrd	r0, r1, [r1]
 8004d94:	f7fb fd7a 	bl	800088c <__aeabi_ddiv>
 8004d98:	f7fb fe60 	bl	8000a5c <__aeabi_d2f>
 8004d9c:	60f0      	str	r0, [r6, #12]
 8004d9e:	8fb0      	ldrh	r0, [r6, #60]	; 0x3c
 8004da0:	f7fb fbe0 	bl	8000564 <__aeabi_i2d>
 8004da4:	4602      	mov	r2, r0
 8004da6:	460b      	mov	r3, r1
 8004da8:	a105      	add	r1, pc, #20	; (adr r1, 8004dc0 <_ZN6Sensor8ICM206898ReadGyroEv+0xb0>)
 8004daa:	e9d1 0100 	ldrd	r0, r1, [r1]
 8004dae:	f7fb fd6d 	bl	800088c <__aeabi_ddiv>
 8004db2:	f7fb fe53 	bl	8000a5c <__aeabi_d2f>
 8004db6:	6130      	str	r0, [r6, #16]
 8004db8:	b004      	add	sp, #16
 8004dba:	e8bd 81f0 	ldmia.w	sp!, {r4, r5, r6, r7, r8, pc}
 8004dbe:	bf00      	nop
 8004dc0:	00000000 	.word	0x00000000
 8004dc4:	40606000 	.word	0x40606000
 8004dc8:	46454443 	.word	0x46454443

08004dcc <_ZN6Sensor8ICM20689D1Ev>:
 8004dcc:	4b04      	ldr	r3, [pc, #16]	; (8004de0 <_ZN6Sensor8ICM20689D1Ev+0x14>)
 8004dce:	b510      	push	{r4, lr}
 8004dd0:	4604      	mov	r4, r0
 8004dd2:	f840 3b40 	str.w	r3, [r0], #64
 8004dd6:	f000 f815 	bl	8004e04 <_ZN9Interface5I_SPID1Ev>
 8004dda:	4620      	mov	r0, r4
 8004ddc:	bd10      	pop	{r4, pc}
 8004dde:	bf00      	nop
 8004de0:	08006d48 	.word	0x08006d48

08004de4 <_ZN6Sensor8ICM20689D0Ev>:
 8004de4:	4b06      	ldr	r3, [pc, #24]	; (8004e00 <_ZN6Sensor8ICM20689D0Ev+0x1c>)
 8004de6:	b510      	push	{r4, lr}
 8004de8:	4604      	mov	r4, r0
 8004dea:	f840 3b40 	str.w	r3, [r0], #64
 8004dee:	f000 f809 	bl	8004e04 <_ZN9Interface5I_SPID1Ev>
 8004df2:	2148      	movs	r1, #72	; 0x48
 8004df4:	4620      	mov	r0, r4
 8004df6:	f001 fb44 	bl	8006482 <_ZdlPvj>
 8004dfa:	4620      	mov	r0, r4
 8004dfc:	bd10      	pop	{r4, pc}
 8004dfe:	bf00      	nop
 8004e00:	08006d48 	.word	0x08006d48

08004e04 <_ZN9Interface5I_SPID1Ev>:
 8004e04:	4770      	bx	lr
 8004e06:	bf00      	nop

08004e08 <_ZN9Interface5I_SPID0Ev>:
 8004e08:	b510      	push	{r4, lr}
 8004e0a:	4604      	mov	r4, r0
 8004e0c:	2108      	movs	r1, #8
 8004e0e:	f001 fb38 	bl	8006482 <_ZdlPvj>
 8004e12:	4620      	mov	r0, r4
 8004e14:	bd10      	pop	{r4, pc}
 8004e16:	bf00      	nop

08004e18 <_ZN9Interface5I_SPIC1ER19__SPI_HandleTypeDef>:
 8004e18:	4a01      	ldr	r2, [pc, #4]	; (8004e20 <_ZN9Interface5I_SPIC1ER19__SPI_HandleTypeDef+0x8>)
 8004e1a:	e9c0 2100 	strd	r2, r1, [r0]
 8004e1e:	4770      	bx	lr
 8004e20:	08006d58 	.word	0x08006d58

08004e24 <_ZN9Interface5I_SPI13WriteRegisterEhh>:
 8004e24:	b530      	push	{r4, r5, lr}
 8004e26:	4b0c      	ldr	r3, [pc, #48]	; (8004e58 <_ZN9Interface5I_SPI13WriteRegisterEhh+0x34>)
 8004e28:	b083      	sub	sp, #12
 8004e2a:	f44f 1580 	mov.w	r5, #1048576	; 0x100000
 8004e2e:	4604      	mov	r4, r0
 8004e30:	f88d 1004 	strb.w	r1, [sp, #4]
 8004e34:	a901      	add	r1, sp, #4
 8004e36:	f88d 2005 	strb.w	r2, [sp, #5]
 8004e3a:	2202      	movs	r2, #2
 8004e3c:	6840      	ldr	r0, [r0, #4]
 8004e3e:	619d      	str	r5, [r3, #24]
 8004e40:	f7fe f8cc 	bl	8002fdc <HAL_SPI_Transmit_DMA>
 8004e44:	6860      	ldr	r0, [r4, #4]
 8004e46:	f7fe fbe3 	bl	8003610 <HAL_SPI_GetState>
 8004e4a:	2801      	cmp	r0, #1
 8004e4c:	d1fa      	bne.n	8004e44 <_ZN9Interface5I_SPI13WriteRegisterEhh+0x20>
 8004e4e:	4b02      	ldr	r3, [pc, #8]	; (8004e58 <_ZN9Interface5I_SPI13WriteRegisterEhh+0x34>)
 8004e50:	2210      	movs	r2, #16
 8004e52:	619a      	str	r2, [r3, #24]
 8004e54:	b003      	add	sp, #12
 8004e56:	bd30      	pop	{r4, r5, pc}
 8004e58:	40020000 	.word	0x40020000

08004e5c <_ZN9Interface5I_SPI12ReadRegisterEh>:
 8004e5c:	b530      	push	{r4, r5, lr}
 8004e5e:	b083      	sub	sp, #12
 8004e60:	f061 057f 	orn	r5, r1, #127	; 0x7f
 8004e64:	4b0e      	ldr	r3, [pc, #56]	; (8004ea0 <_ZN9Interface5I_SPI12ReadRegisterEh+0x44>)
 8004e66:	f44f 1280 	mov.w	r2, #1048576	; 0x100000
 8004e6a:	a902      	add	r1, sp, #8
 8004e6c:	4604      	mov	r4, r0
 8004e6e:	6840      	ldr	r0, [r0, #4]
 8004e70:	f801 5d02 	strb.w	r5, [r1, #-2]!
 8004e74:	619a      	str	r2, [r3, #24]
 8004e76:	2201      	movs	r2, #1
 8004e78:	f7fe f8b0 	bl	8002fdc <HAL_SPI_Transmit_DMA>
 8004e7c:	6860      	ldr	r0, [r4, #4]
 8004e7e:	2201      	movs	r2, #1
 8004e80:	f10d 0107 	add.w	r1, sp, #7
 8004e84:	f7fe fa08 	bl	8003298 <HAL_SPI_Receive_DMA>
 8004e88:	6860      	ldr	r0, [r4, #4]
 8004e8a:	f7fe fbc1 	bl	8003610 <HAL_SPI_GetState>
 8004e8e:	2801      	cmp	r0, #1
 8004e90:	d1fa      	bne.n	8004e88 <_ZN9Interface5I_SPI12ReadRegisterEh+0x2c>
 8004e92:	4b03      	ldr	r3, [pc, #12]	; (8004ea0 <_ZN9Interface5I_SPI12ReadRegisterEh+0x44>)
 8004e94:	2210      	movs	r2, #16
 8004e96:	619a      	str	r2, [r3, #24]
 8004e98:	f89d 0007 	ldrb.w	r0, [sp, #7]
 8004e9c:	b003      	add	sp, #12
 8004e9e:	bd30      	pop	{r4, r5, pc}
 8004ea0:	40020000 	.word	0x40020000

08004ea4 <MX_ADC1_Init>:
 8004ea4:	4b18      	ldr	r3, [pc, #96]	; (8004f08 <MX_ADC1_Init+0x64>)
 8004ea6:	f44f 3080 	mov.w	r0, #65536	; 0x10000
 8004eaa:	4918      	ldr	r1, [pc, #96]	; (8004f0c <MX_ADC1_Init+0x68>)
 8004eac:	2200      	movs	r2, #0
 8004eae:	b510      	push	{r4, lr}
 8004eb0:	4c17      	ldr	r4, [pc, #92]	; (8004f10 <MX_ADC1_Init+0x6c>)
 8004eb2:	b084      	sub	sp, #16
 8004eb4:	6019      	str	r1, [r3, #0]
 8004eb6:	2101      	movs	r1, #1
 8004eb8:	6058      	str	r0, [r3, #4]
 8004eba:	4618      	mov	r0, r3
 8004ebc:	629c      	str	r4, [r3, #40]	; 0x28
 8004ebe:	609a      	str	r2, [r3, #8]
 8004ec0:	9200      	str	r2, [sp, #0]
 8004ec2:	611a      	str	r2, [r3, #16]
 8004ec4:	619a      	str	r2, [r3, #24]
 8004ec6:	f883 2020 	strb.w	r2, [r3, #32]
 8004eca:	62da      	str	r2, [r3, #44]	; 0x2c
 8004ecc:	60da      	str	r2, [r3, #12]
 8004ece:	f883 2030 	strb.w	r2, [r3, #48]	; 0x30
 8004ed2:	9203      	str	r2, [sp, #12]
 8004ed4:	61d9      	str	r1, [r3, #28]
 8004ed6:	6159      	str	r1, [r3, #20]
 8004ed8:	e9cd 2201 	strd	r2, r2, [sp, #4]
 8004edc:	f7fb ffe2 	bl	8000ea4 <HAL_ADC_Init>
 8004ee0:	b970      	cbnz	r0, 8004f00 <MX_ADC1_Init+0x5c>
 8004ee2:	2406      	movs	r4, #6
 8004ee4:	2201      	movs	r2, #1
 8004ee6:	2300      	movs	r3, #0
 8004ee8:	4669      	mov	r1, sp
 8004eea:	4807      	ldr	r0, [pc, #28]	; (8004f08 <MX_ADC1_Init+0x64>)
 8004eec:	9302      	str	r3, [sp, #8]
 8004eee:	e9cd 4200 	strd	r4, r2, [sp]
 8004ef2:	f7fc f88d 	bl	8001010 <HAL_ADC_ConfigChannel>
 8004ef6:	b108      	cbz	r0, 8004efc <MX_ADC1_Init+0x58>
 8004ef8:	f000 fc90 	bl	800581c <Error_Handler>
 8004efc:	b004      	add	sp, #16
 8004efe:	bd10      	pop	{r4, pc}
 8004f00:	f000 fc8c 	bl	800581c <Error_Handler>
 8004f04:	e7ed      	b.n	8004ee2 <MX_ADC1_Init+0x3e>
 8004f06:	bf00      	nop
 8004f08:	200001f8 	.word	0x200001f8
 8004f0c:	40012000 	.word	0x40012000
 8004f10:	0f000001 	.word	0x0f000001

08004f14 <HAL_ADC_MspInit>:
 8004f14:	4b24      	ldr	r3, [pc, #144]	; (8004fa8 <HAL_ADC_MspInit+0x94>)
 8004f16:	6802      	ldr	r2, [r0, #0]
 8004f18:	b5f0      	push	{r4, r5, r6, r7, lr}
 8004f1a:	429a      	cmp	r2, r3
 8004f1c:	b089      	sub	sp, #36	; 0x24
 8004f1e:	f04f 0400 	mov.w	r4, #0
 8004f22:	e9cd 4403 	strd	r4, r4, [sp, #12]
 8004f26:	e9cd 4405 	strd	r4, r4, [sp, #20]
 8004f2a:	9407      	str	r4, [sp, #28]
 8004f2c:	d001      	beq.n	8004f32 <HAL_ADC_MspInit+0x1e>
 8004f2e:	b009      	add	sp, #36	; 0x24
 8004f30:	bdf0      	pop	{r4, r5, r6, r7, pc}
 8004f32:	f503 338c 	add.w	r3, r3, #71680	; 0x11800
 8004f36:	2503      	movs	r5, #3
 8004f38:	4606      	mov	r6, r0
 8004f3a:	2040      	movs	r0, #64	; 0x40
 8004f3c:	6c5a      	ldr	r2, [r3, #68]	; 0x44
 8004f3e:	a903      	add	r1, sp, #12
 8004f40:	4f1a      	ldr	r7, [pc, #104]	; (8004fac <HAL_ADC_MspInit+0x98>)
 8004f42:	f442 7280 	orr.w	r2, r2, #256	; 0x100
 8004f46:	645a      	str	r2, [r3, #68]	; 0x44
 8004f48:	6c5a      	ldr	r2, [r3, #68]	; 0x44
 8004f4a:	f402 7280 	and.w	r2, r2, #256	; 0x100
 8004f4e:	9201      	str	r2, [sp, #4]
 8004f50:	9a01      	ldr	r2, [sp, #4]
 8004f52:	6b1a      	ldr	r2, [r3, #48]	; 0x30
 8004f54:	f042 0201 	orr.w	r2, r2, #1
 8004f58:	631a      	str	r2, [r3, #48]	; 0x30
 8004f5a:	6b1b      	ldr	r3, [r3, #48]	; 0x30
 8004f5c:	9003      	str	r0, [sp, #12]
 8004f5e:	f003 0301 	and.w	r3, r3, #1
 8004f62:	4813      	ldr	r0, [pc, #76]	; (8004fb0 <HAL_ADC_MspInit+0x9c>)
 8004f64:	9504      	str	r5, [sp, #16]
 8004f66:	9302      	str	r3, [sp, #8]
 8004f68:	4d12      	ldr	r5, [pc, #72]	; (8004fb4 <HAL_ADC_MspInit+0xa0>)
 8004f6a:	9b02      	ldr	r3, [sp, #8]
 8004f6c:	f7fc fc1e 	bl	80017ac <HAL_GPIO_Init>
 8004f70:	f44f 6180 	mov.w	r1, #1024	; 0x400
 8004f74:	f44f 6200 	mov.w	r2, #2048	; 0x800
 8004f78:	f44f 5300 	mov.w	r3, #8192	; 0x2000
 8004f7c:	4628      	mov	r0, r5
 8004f7e:	60ec      	str	r4, [r5, #12]
 8004f80:	626c      	str	r4, [r5, #36]	; 0x24
 8004f82:	602f      	str	r7, [r5, #0]
 8004f84:	61ab      	str	r3, [r5, #24]
 8004f86:	e9c5 4401 	strd	r4, r4, [r5, #4]
 8004f8a:	e9c5 4407 	strd	r4, r4, [r5, #28]
 8004f8e:	e9c5 1204 	strd	r1, r2, [r5, #16]
 8004f92:	f7fc fa53 	bl	800143c <HAL_DMA_Init>
 8004f96:	b918      	cbnz	r0, 8004fa0 <HAL_ADC_MspInit+0x8c>
 8004f98:	63b5      	str	r5, [r6, #56]	; 0x38
 8004f9a:	63ae      	str	r6, [r5, #56]	; 0x38
 8004f9c:	b009      	add	sp, #36	; 0x24
 8004f9e:	bdf0      	pop	{r4, r5, r6, r7, pc}
 8004fa0:	f000 fc3c 	bl	800581c <Error_Handler>
 8004fa4:	e7f8      	b.n	8004f98 <HAL_ADC_MspInit+0x84>
 8004fa6:	bf00      	nop
 8004fa8:	40012000 	.word	0x40012000
 8004fac:	40026410 	.word	0x40026410
 8004fb0:	40020000 	.word	0x40020000
 8004fb4:	20000240 	.word	0x20000240

08004fb8 <BSP_SD_Init>:
 8004fb8:	b082      	sub	sp, #8
 8004fba:	2301      	movs	r3, #1
 8004fbc:	f88d 3007 	strb.w	r3, [sp, #7]
 8004fc0:	f89d 3007 	ldrb.w	r3, [sp, #7]
 8004fc4:	2b01      	cmp	r3, #1
 8004fc6:	d002      	beq.n	8004fce <BSP_SD_Init+0x16>
 8004fc8:	2002      	movs	r0, #2
 8004fca:	b002      	add	sp, #8
 8004fcc:	4770      	bx	lr
 8004fce:	4802      	ldr	r0, [pc, #8]	; (8004fd8 <BSP_SD_Init+0x20>)
 8004fd0:	b002      	add	sp, #8
 8004fd2:	f7fd bf09 	b.w	8002de8 <HAL_SD_Init>
 8004fd6:	bf00      	nop
 8004fd8:	200008d4 	.word	0x200008d4

08004fdc <BSP_SD_ReadBlocks>:
 8004fdc:	b500      	push	{lr}
 8004fde:	b083      	sub	sp, #12
 8004fe0:	9300      	str	r3, [sp, #0]
 8004fe2:	4613      	mov	r3, r2
 8004fe4:	460a      	mov	r2, r1
 8004fe6:	4601      	mov	r1, r0
 8004fe8:	4804      	ldr	r0, [pc, #16]	; (8004ffc <BSP_SD_ReadBlocks+0x20>)
 8004fea:	f7fd fb0d 	bl	8002608 <HAL_SD_ReadBlocks>
 8004fee:	3000      	adds	r0, #0
 8004ff0:	bf18      	it	ne
 8004ff2:	2001      	movne	r0, #1
 8004ff4:	b003      	add	sp, #12
 8004ff6:	f85d fb04 	ldr.w	pc, [sp], #4
 8004ffa:	bf00      	nop
 8004ffc:	200008d4 	.word	0x200008d4

08005000 <BSP_SD_WriteBlocks>:
 8005000:	b500      	push	{lr}
 8005002:	b083      	sub	sp, #12
 8005004:	9300      	str	r3, [sp, #0]
 8005006:	4613      	mov	r3, r2
 8005008:	460a      	mov	r2, r1
 800500a:	4601      	mov	r1, r0
 800500c:	4804      	ldr	r0, [pc, #16]	; (8005020 <BSP_SD_WriteBlocks+0x20>)
 800500e:	f7fd fc17 	bl	8002840 <HAL_SD_WriteBlocks>
 8005012:	3000      	adds	r0, #0
 8005014:	bf18      	it	ne
 8005016:	2001      	movne	r0, #1
 8005018:	b003      	add	sp, #12
 800501a:	f85d fb04 	ldr.w	pc, [sp], #4
 800501e:	bf00      	nop
 8005020:	200008d4 	.word	0x200008d4

08005024 <BSP_SD_GetCardState>:
 8005024:	b508      	push	{r3, lr}
 8005026:	4803      	ldr	r0, [pc, #12]	; (8005034 <BSP_SD_GetCardState+0x10>)
 8005028:	f7fd ff10 	bl	8002e4c <HAL_SD_GetCardState>
 800502c:	3804      	subs	r0, #4
 800502e:	bf18      	it	ne
 8005030:	2001      	movne	r0, #1
 8005032:	bd08      	pop	{r3, pc}
 8005034:	200008d4 	.word	0x200008d4

08005038 <BSP_SD_GetCardInfo>:
 8005038:	4601      	mov	r1, r0
 800503a:	4801      	ldr	r0, [pc, #4]	; (8005040 <BSP_SD_GetCardInfo+0x8>)
 800503c:	f7fd bef0 	b.w	8002e20 <HAL_SD_GetCardInfo>
 8005040:	200008d4 	.word	0x200008d4

08005044 <MX_DAC_Init>:
 8005044:	4a0e      	ldr	r2, [pc, #56]	; (8005080 <MX_DAC_Init+0x3c>)
 8005046:	2300      	movs	r3, #0
 8005048:	490e      	ldr	r1, [pc, #56]	; (8005084 <MX_DAC_Init+0x40>)
 800504a:	4610      	mov	r0, r2
 800504c:	b510      	push	{r4, lr}
 800504e:	b082      	sub	sp, #8
 8005050:	6011      	str	r1, [r2, #0]
 8005052:	e9cd 3300 	strd	r3, r3, [sp]
 8005056:	f7fc f8ff 	bl	8001258 <HAL_DAC_Init>
 800505a:	b968      	cbnz	r0, 8005078 <MX_DAC_Init+0x34>
 800505c:	2404      	movs	r4, #4
 800505e:	2300      	movs	r3, #0
 8005060:	4669      	mov	r1, sp
 8005062:	2210      	movs	r2, #16
 8005064:	4806      	ldr	r0, [pc, #24]	; (8005080 <MX_DAC_Init+0x3c>)
 8005066:	e9cd 4300 	strd	r4, r3, [sp]
 800506a:	f7fc f9a3 	bl	80013b4 <HAL_DAC_ConfigChannel>
 800506e:	b108      	cbz	r0, 8005074 <MX_DAC_Init+0x30>
 8005070:	f000 fbd4 	bl	800581c <Error_Handler>
 8005074:	b002      	add	sp, #8
 8005076:	bd10      	pop	{r4, pc}
 8005078:	f000 fbd0 	bl	800581c <Error_Handler>
 800507c:	e7ee      	b.n	800505c <MX_DAC_Init+0x18>
 800507e:	bf00      	nop
 8005080:	200002a0 	.word	0x200002a0
 8005084:	40007400 	.word	0x40007400

08005088 <HAL_DAC_MspInit>:
 8005088:	4b24      	ldr	r3, [pc, #144]	; (800511c <HAL_DAC_MspInit+0x94>)
 800508a:	6802      	ldr	r2, [r0, #0]
 800508c:	b5f0      	push	{r4, r5, r6, r7, lr}
 800508e:	429a      	cmp	r2, r3
 8005090:	b089      	sub	sp, #36	; 0x24
 8005092:	f04f 0400 	mov.w	r4, #0
 8005096:	e9cd 4403 	strd	r4, r4, [sp, #12]
 800509a:	e9cd 4405 	strd	r4, r4, [sp, #20]
 800509e:	9407      	str	r4, [sp, #28]
 80050a0:	d001      	beq.n	80050a6 <HAL_DAC_MspInit+0x1e>
 80050a2:	b009      	add	sp, #36	; 0x24
 80050a4:	bdf0      	pop	{r4, r5, r6, r7, pc}
 80050a6:	f503 33e2 	add.w	r3, r3, #115712	; 0x1c400
 80050aa:	4606      	mov	r6, r0
 80050ac:	2020      	movs	r0, #32
 80050ae:	2503      	movs	r5, #3
 80050b0:	6c1a      	ldr	r2, [r3, #64]	; 0x40
 80050b2:	a903      	add	r1, sp, #12
 80050b4:	f04f 6760 	mov.w	r7, #234881024	; 0xe000000
 80050b8:	f042 5200 	orr.w	r2, r2, #536870912	; 0x20000000
 80050bc:	641a      	str	r2, [r3, #64]	; 0x40
 80050be:	6c1a      	ldr	r2, [r3, #64]	; 0x40
 80050c0:	f002 5200 	and.w	r2, r2, #536870912	; 0x20000000
 80050c4:	9201      	str	r2, [sp, #4]
 80050c6:	9a01      	ldr	r2, [sp, #4]
 80050c8:	6b1a      	ldr	r2, [r3, #48]	; 0x30
 80050ca:	f042 0201 	orr.w	r2, r2, #1
 80050ce:	631a      	str	r2, [r3, #48]	; 0x30
 80050d0:	6b1b      	ldr	r3, [r3, #48]	; 0x30
 80050d2:	9003      	str	r0, [sp, #12]
 80050d4:	f003 0301 	and.w	r3, r3, #1
 80050d8:	4811      	ldr	r0, [pc, #68]	; (8005120 <HAL_DAC_MspInit+0x98>)
 80050da:	9504      	str	r5, [sp, #16]
 80050dc:	9302      	str	r3, [sp, #8]
 80050de:	4d11      	ldr	r5, [pc, #68]	; (8005124 <HAL_DAC_MspInit+0x9c>)
 80050e0:	9b02      	ldr	r3, [sp, #8]
 80050e2:	f7fc fb63 	bl	80017ac <HAL_GPIO_Init>
 80050e6:	4810      	ldr	r0, [pc, #64]	; (8005128 <HAL_DAC_MspInit+0xa0>)
 80050e8:	2140      	movs	r1, #64	; 0x40
 80050ea:	f44f 6280 	mov.w	r2, #1024	; 0x400
 80050ee:	f44f 7380 	mov.w	r3, #256	; 0x100
 80050f2:	6028      	str	r0, [r5, #0]
 80050f4:	4628      	mov	r0, r5
 80050f6:	60ec      	str	r4, [r5, #12]
 80050f8:	612a      	str	r2, [r5, #16]
 80050fa:	61eb      	str	r3, [r5, #28]
 80050fc:	e9c5 4405 	strd	r4, r4, [r5, #20]
 8005100:	e9c5 4408 	strd	r4, r4, [r5, #32]
 8005104:	e9c5 7101 	strd	r7, r1, [r5, #4]
 8005108:	f7fc f998 	bl	800143c <HAL_DMA_Init>
 800510c:	b918      	cbnz	r0, 8005116 <HAL_DAC_MspInit+0x8e>
 800510e:	60f5      	str	r5, [r6, #12]
 8005110:	63ae      	str	r6, [r5, #56]	; 0x38
 8005112:	b009      	add	sp, #36	; 0x24
 8005114:	bdf0      	pop	{r4, r5, r6, r7, pc}
 8005116:	f000 fb81 	bl	800581c <Error_Handler>
 800511a:	e7f8      	b.n	800510e <HAL_DAC_MspInit+0x86>
 800511c:	40007400 	.word	0x40007400
 8005120:	40020000 	.word	0x40020000
 8005124:	200002b4 	.word	0x200002b4
 8005128:	400260a0 	.word	0x400260a0

0800512c <MX_DMA_Init>:
 800512c:	4b3f      	ldr	r3, [pc, #252]	; (800522c <MX_DMA_Init+0x100>)
 800512e:	2200      	movs	r2, #0
 8005130:	200b      	movs	r0, #11
 8005132:	4611      	mov	r1, r2
 8005134:	b510      	push	{r4, lr}
 8005136:	6b1c      	ldr	r4, [r3, #48]	; 0x30
 8005138:	b082      	sub	sp, #8
 800513a:	f444 1400 	orr.w	r4, r4, #2097152	; 0x200000
 800513e:	631c      	str	r4, [r3, #48]	; 0x30
 8005140:	6b1c      	ldr	r4, [r3, #48]	; 0x30
 8005142:	f404 1400 	and.w	r4, r4, #2097152	; 0x200000
 8005146:	9400      	str	r4, [sp, #0]
 8005148:	9c00      	ldr	r4, [sp, #0]
 800514a:	6b1c      	ldr	r4, [r3, #48]	; 0x30
 800514c:	f444 0480 	orr.w	r4, r4, #4194304	; 0x400000
 8005150:	631c      	str	r4, [r3, #48]	; 0x30
 8005152:	6b1b      	ldr	r3, [r3, #48]	; 0x30
 8005154:	f403 0380 	and.w	r3, r3, #4194304	; 0x400000
 8005158:	9301      	str	r3, [sp, #4]
 800515a:	9b01      	ldr	r3, [sp, #4]
 800515c:	f7fc f820 	bl	80011a0 <HAL_NVIC_SetPriority>
 8005160:	200b      	movs	r0, #11
 8005162:	f7fc f853 	bl	800120c <HAL_NVIC_EnableIRQ>
 8005166:	2200      	movs	r2, #0
 8005168:	200c      	movs	r0, #12
 800516a:	4611      	mov	r1, r2
 800516c:	f7fc f818 	bl	80011a0 <HAL_NVIC_SetPriority>
 8005170:	200c      	movs	r0, #12
 8005172:	f7fc f84b 	bl	800120c <HAL_NVIC_EnableIRQ>
 8005176:	2200      	movs	r2, #0
 8005178:	200d      	movs	r0, #13
 800517a:	4611      	mov	r1, r2
 800517c:	f7fc f810 	bl	80011a0 <HAL_NVIC_SetPriority>
 8005180:	200d      	movs	r0, #13
 8005182:	f7fc f843 	bl	800120c <HAL_NVIC_EnableIRQ>
 8005186:	2200      	movs	r2, #0
 8005188:	200e      	movs	r0, #14
 800518a:	4611      	mov	r1, r2
 800518c:	f7fc f808 	bl	80011a0 <HAL_NVIC_SetPriority>
 8005190:	200e      	movs	r0, #14
 8005192:	f7fc f83b 	bl	800120c <HAL_NVIC_EnableIRQ>
 8005196:	2200      	movs	r2, #0
 8005198:	200f      	movs	r0, #15
 800519a:	4611      	mov	r1, r2
 800519c:	f7fc f800 	bl	80011a0 <HAL_NVIC_SetPriority>
 80051a0:	200f      	movs	r0, #15
 80051a2:	f7fc f833 	bl	800120c <HAL_NVIC_EnableIRQ>
 80051a6:	2200      	movs	r2, #0
 80051a8:	2010      	movs	r0, #16
 80051aa:	4611      	mov	r1, r2
 80051ac:	f7fb fff8 	bl	80011a0 <HAL_NVIC_SetPriority>
 80051b0:	2010      	movs	r0, #16
 80051b2:	f7fc f82b 	bl	800120c <HAL_NVIC_EnableIRQ>
 80051b6:	2200      	movs	r2, #0
 80051b8:	2011      	movs	r0, #17
 80051ba:	4611      	mov	r1, r2
 80051bc:	f7fb fff0 	bl	80011a0 <HAL_NVIC_SetPriority>
 80051c0:	2011      	movs	r0, #17
 80051c2:	f7fc f823 	bl	800120c <HAL_NVIC_EnableIRQ>
 80051c6:	2200      	movs	r2, #0
 80051c8:	202f      	movs	r0, #47	; 0x2f
 80051ca:	4611      	mov	r1, r2
 80051cc:	f7fb ffe8 	bl	80011a0 <HAL_NVIC_SetPriority>
 80051d0:	202f      	movs	r0, #47	; 0x2f
 80051d2:	f7fc f81b 	bl	800120c <HAL_NVIC_EnableIRQ>
 80051d6:	2200      	movs	r2, #0
 80051d8:	2038      	movs	r0, #56	; 0x38
 80051da:	4611      	mov	r1, r2
 80051dc:	f7fb ffe0 	bl	80011a0 <HAL_NVIC_SetPriority>
 80051e0:	2038      	movs	r0, #56	; 0x38
 80051e2:	f7fc f813 	bl	800120c <HAL_NVIC_EnableIRQ>
 80051e6:	2200      	movs	r2, #0
 80051e8:	203a      	movs	r0, #58	; 0x3a
 80051ea:	4611      	mov	r1, r2
 80051ec:	f7fb ffd8 	bl	80011a0 <HAL_NVIC_SetPriority>
 80051f0:	203a      	movs	r0, #58	; 0x3a
 80051f2:	f7fc f80b 	bl	800120c <HAL_NVIC_EnableIRQ>
 80051f6:	2200      	movs	r2, #0
 80051f8:	203b      	movs	r0, #59	; 0x3b
 80051fa:	4611      	mov	r1, r2
 80051fc:	f7fb ffd0 	bl	80011a0 <HAL_NVIC_SetPriority>
 8005200:	203b      	movs	r0, #59	; 0x3b
 8005202:	f7fc f803 	bl	800120c <HAL_NVIC_EnableIRQ>
 8005206:	2200      	movs	r2, #0
 8005208:	2045      	movs	r0, #69	; 0x45
 800520a:	4611      	mov	r1, r2
 800520c:	f7fb ffc8 	bl	80011a0 <HAL_NVIC_SetPriority>
 8005210:	2045      	movs	r0, #69	; 0x45
 8005212:	f7fb fffb 	bl	800120c <HAL_NVIC_EnableIRQ>
 8005216:	2200      	movs	r2, #0
 8005218:	2046      	movs	r0, #70	; 0x46
 800521a:	4611      	mov	r1, r2
 800521c:	f7fb ffc0 	bl	80011a0 <HAL_NVIC_SetPriority>
 8005220:	2046      	movs	r0, #70	; 0x46
 8005222:	b002      	add	sp, #8
 8005224:	e8bd 4010 	ldmia.w	sp!, {r4, lr}
 8005228:	f7fb bff0 	b.w	800120c <HAL_NVIC_EnableIRQ>
 800522c:	40023800 	.word	0x40023800

08005230 <MX_FATFS_Init>:
 8005230:	b508      	push	{r3, lr}
 8005232:	4903      	ldr	r1, [pc, #12]	; (8005240 <MX_FATFS_Init+0x10>)
 8005234:	4803      	ldr	r0, [pc, #12]	; (8005244 <MX_FATFS_Init+0x14>)
 8005236:	f7ff fcd7 	bl	8004be8 <FATFS_LinkDriver>
 800523a:	4b03      	ldr	r3, [pc, #12]	; (8005248 <MX_FATFS_Init+0x18>)
 800523c:	7018      	strb	r0, [r3, #0]
 800523e:	bd08      	pop	{r3, pc}
 8005240:	20000318 	.word	0x20000318
 8005244:	08006d94 	.word	0x08006d94
 8005248:	20000314 	.word	0x20000314

0800524c <MX_GPIO_Init>:
 800524c:	e92d 47f0 	stmdb	sp!, {r4, r5, r6, r7, r8, r9, sl, lr}
 8005250:	4b50      	ldr	r3, [pc, #320]	; (8005394 <MX_GPIO_Init+0x148>)
 8005252:	b08a      	sub	sp, #40	; 0x28
 8005254:	2400      	movs	r4, #0
 8005256:	2201      	movs	r2, #1
 8005258:	4f4f      	ldr	r7, [pc, #316]	; (8005398 <MX_GPIO_Init+0x14c>)
 800525a:	2110      	movs	r1, #16
 800525c:	9406      	str	r4, [sp, #24]
 800525e:	4615      	mov	r5, r2
 8005260:	9405      	str	r4, [sp, #20]
 8005262:	f44f 5980 	mov.w	r9, #4096	; 0x1000
 8005266:	9407      	str	r4, [sp, #28]
 8005268:	f04f 0a03 	mov.w	sl, #3
 800526c:	9408      	str	r4, [sp, #32]
 800526e:	9409      	str	r4, [sp, #36]	; 0x24
 8005270:	6b18      	ldr	r0, [r3, #48]	; 0x30
 8005272:	f8df 8130 	ldr.w	r8, [pc, #304]	; 80053a4 <MX_GPIO_Init+0x158>
 8005276:	f040 0080 	orr.w	r0, r0, #128	; 0x80
 800527a:	6318      	str	r0, [r3, #48]	; 0x30
 800527c:	4638      	mov	r0, r7
 800527e:	6b1e      	ldr	r6, [r3, #48]	; 0x30
 8005280:	f006 0680 	and.w	r6, r6, #128	; 0x80
 8005284:	9600      	str	r6, [sp, #0]
 8005286:	9e00      	ldr	r6, [sp, #0]
 8005288:	6b1e      	ldr	r6, [r3, #48]	; 0x30
 800528a:	f046 0604 	orr.w	r6, r6, #4
 800528e:	631e      	str	r6, [r3, #48]	; 0x30
 8005290:	6b1e      	ldr	r6, [r3, #48]	; 0x30
 8005292:	f006 0604 	and.w	r6, r6, #4
 8005296:	9601      	str	r6, [sp, #4]
 8005298:	9e01      	ldr	r6, [sp, #4]
 800529a:	6b1e      	ldr	r6, [r3, #48]	; 0x30
 800529c:	4316      	orrs	r6, r2
 800529e:	631e      	str	r6, [r3, #48]	; 0x30
 80052a0:	6b1e      	ldr	r6, [r3, #48]	; 0x30
 80052a2:	4016      	ands	r6, r2
 80052a4:	9602      	str	r6, [sp, #8]
 80052a6:	9e02      	ldr	r6, [sp, #8]
 80052a8:	6b1e      	ldr	r6, [r3, #48]	; 0x30
 80052aa:	f046 0602 	orr.w	r6, r6, #2
 80052ae:	631e      	str	r6, [r3, #48]	; 0x30
 80052b0:	6b1e      	ldr	r6, [r3, #48]	; 0x30
 80052b2:	f006 0602 	and.w	r6, r6, #2
 80052b6:	9603      	str	r6, [sp, #12]
 80052b8:	9e03      	ldr	r6, [sp, #12]
 80052ba:	6b1e      	ldr	r6, [r3, #48]	; 0x30
 80052bc:	f046 0608 	orr.w	r6, r6, #8
 80052c0:	631e      	str	r6, [r3, #48]	; 0x30
 80052c2:	6b1b      	ldr	r3, [r3, #48]	; 0x30
 80052c4:	4e35      	ldr	r6, [pc, #212]	; (800539c <MX_GPIO_Init+0x150>)
 80052c6:	f003 0308 	and.w	r3, r3, #8
 80052ca:	9304      	str	r3, [sp, #16]
 80052cc:	9b04      	ldr	r3, [sp, #16]
 80052ce:	f7fc fb7f 	bl	80019d0 <HAL_GPIO_WritePin>
 80052d2:	4622      	mov	r2, r4
 80052d4:	4638      	mov	r0, r7
 80052d6:	f44f 6108 	mov.w	r1, #2176	; 0x880
 80052da:	f7fc fb79 	bl	80019d0 <HAL_GPIO_WritePin>
 80052de:	4622      	mov	r2, r4
 80052e0:	4640      	mov	r0, r8
 80052e2:	2150      	movs	r1, #80	; 0x50
 80052e4:	f7fc fb74 	bl	80019d0 <HAL_GPIO_WritePin>
 80052e8:	4622      	mov	r2, r4
 80052ea:	4630      	mov	r0, r6
 80052ec:	2102      	movs	r1, #2
 80052ee:	f7fc fb6f 	bl	80019d0 <HAL_GPIO_WritePin>
 80052f2:	462a      	mov	r2, r5
 80052f4:	4630      	mov	r0, r6
 80052f6:	4649      	mov	r1, r9
 80052f8:	f7fc fb6a 	bl	80019d0 <HAL_GPIO_WritePin>
 80052fc:	2310      	movs	r3, #16
 80052fe:	a905      	add	r1, sp, #20
 8005300:	4638      	mov	r0, r7
 8005302:	e9cd 3505 	strd	r3, r5, [sp, #20]
 8005306:	e9cd 5a07 	strd	r5, sl, [sp, #28]
 800530a:	f7fc fa4f 	bl	80017ac <HAL_GPIO_Init>
 800530e:	f44f 6308 	mov.w	r3, #2176	; 0x880
 8005312:	a905      	add	r1, sp, #20
 8005314:	4638      	mov	r0, r7
 8005316:	9305      	str	r3, [sp, #20]
 8005318:	9408      	str	r4, [sp, #32]
 800531a:	e9cd 5406 	strd	r5, r4, [sp, #24]
 800531e:	f7fc fa45 	bl	80017ac <HAL_GPIO_Init>
 8005322:	2350      	movs	r3, #80	; 0x50
 8005324:	a905      	add	r1, sp, #20
 8005326:	4640      	mov	r0, r8
 8005328:	9305      	str	r3, [sp, #20]
 800532a:	9408      	str	r4, [sp, #32]
 800532c:	e9cd 5406 	strd	r5, r4, [sp, #24]
 8005330:	f7fc fa3c 	bl	80017ac <HAL_GPIO_Init>
 8005334:	2302      	movs	r3, #2
 8005336:	a905      	add	r1, sp, #20
 8005338:	4630      	mov	r0, r6
 800533a:	9305      	str	r3, [sp, #20]
 800533c:	9408      	str	r4, [sp, #32]
 800533e:	e9cd 5406 	strd	r5, r4, [sp, #24]
 8005342:	f7fc fa33 	bl	80017ac <HAL_GPIO_Init>
 8005346:	a905      	add	r1, sp, #20
 8005348:	4630      	mov	r0, r6
 800534a:	f8cd a020 	str.w	sl, [sp, #32]
 800534e:	f8cd 9014 	str.w	r9, [sp, #20]
 8005352:	e9cd 5506 	strd	r5, r5, [sp, #24]
 8005356:	f7fc fa29 	bl	80017ac <HAL_GPIO_Init>
 800535a:	4d11      	ldr	r5, [pc, #68]	; (80053a0 <MX_GPIO_Init+0x154>)
 800535c:	2380      	movs	r3, #128	; 0x80
 800535e:	4640      	mov	r0, r8
 8005360:	a905      	add	r1, sp, #20
 8005362:	9407      	str	r4, [sp, #28]
 8005364:	e9cd 3505 	strd	r3, r5, [sp, #20]
 8005368:	f7fc fa20 	bl	80017ac <HAL_GPIO_Init>
 800536c:	4638      	mov	r0, r7
 800536e:	a905      	add	r1, sp, #20
 8005370:	9407      	str	r4, [sp, #28]
 8005372:	e9cd 9405 	strd	r9, r4, [sp, #20]
 8005376:	f7fc fa19 	bl	80017ac <HAL_GPIO_Init>
 800537a:	f44f 7340 	mov.w	r3, #768	; 0x300
 800537e:	a905      	add	r1, sp, #20
 8005380:	4630      	mov	r0, r6
 8005382:	9305      	str	r3, [sp, #20]
 8005384:	e9cd 5406 	strd	r5, r4, [sp, #24]
 8005388:	f7fc fa10 	bl	80017ac <HAL_GPIO_Init>
 800538c:	b00a      	add	sp, #40	; 0x28
 800538e:	e8bd 87f0 	ldmia.w	sp!, {r4, r5, r6, r7, r8, r9, sl, pc}
 8005392:	bf00      	nop
 8005394:	40023800 	.word	0x40023800
 8005398:	40020000 	.word	0x40020000
 800539c:	40020400 	.word	0x40020400
 80053a0:	10110000 	.word	0x10110000
 80053a4:	40020800 	.word	0x40020800

080053a8 <MX_I2C1_Init>:
 80053a8:	b538      	push	{r3, r4, r5, lr}
 80053aa:	4b13      	ldr	r3, [pc, #76]	; (80053f8 <MX_I2C1_Init+0x50>)
 80053ac:	2200      	movs	r2, #0
 80053ae:	2101      	movs	r1, #1
 80053b0:	4d12      	ldr	r5, [pc, #72]	; (80053fc <MX_I2C1_Init+0x54>)
 80053b2:	4c13      	ldr	r4, [pc, #76]	; (8005400 <MX_I2C1_Init+0x58>)
 80053b4:	4618      	mov	r0, r3
 80053b6:	621a      	str	r2, [r3, #32]
 80053b8:	e9c3 5400 	strd	r5, r4, [r3]
 80053bc:	e9c3 2102 	strd	r2, r1, [r3, #8]
 80053c0:	e9c3 2204 	strd	r2, r2, [r3, #16]
 80053c4:	e9c3 2206 	strd	r2, r2, [r3, #24]
 80053c8:	f7fc fb0e 	bl	80019e8 <HAL_I2C_Init>
 80053cc:	b988      	cbnz	r0, 80053f2 <MX_I2C1_Init+0x4a>
 80053ce:	2100      	movs	r1, #0
 80053d0:	4809      	ldr	r0, [pc, #36]	; (80053f8 <MX_I2C1_Init+0x50>)
 80053d2:	f7fc fb5d 	bl	8001a90 <HAL_I2CEx_ConfigAnalogFilter>
 80053d6:	b948      	cbnz	r0, 80053ec <MX_I2C1_Init+0x44>
 80053d8:	2100      	movs	r1, #0
 80053da:	4807      	ldr	r0, [pc, #28]	; (80053f8 <MX_I2C1_Init+0x50>)
 80053dc:	f7fc fb82 	bl	8001ae4 <HAL_I2CEx_ConfigDigitalFilter>
 80053e0:	b900      	cbnz	r0, 80053e4 <MX_I2C1_Init+0x3c>
 80053e2:	bd38      	pop	{r3, r4, r5, pc}
 80053e4:	e8bd 4038 	ldmia.w	sp!, {r3, r4, r5, lr}
 80053e8:	f000 ba18 	b.w	800581c <Error_Handler>
 80053ec:	f000 fa16 	bl	800581c <Error_Handler>
 80053f0:	e7f2      	b.n	80053d8 <MX_I2C1_Init+0x30>
 80053f2:	f000 fa13 	bl	800581c <Error_Handler>
 80053f6:	e7ea      	b.n	80053ce <MX_I2C1_Init+0x26>
 80053f8:	20000828 	.word	0x20000828
 80053fc:	40005400 	.word	0x40005400
 8005400:	20404768 	.word	0x20404768

08005404 <MX_I2C3_Init>:
 8005404:	b538      	push	{r3, r4, r5, lr}
 8005406:	4b13      	ldr	r3, [pc, #76]	; (8005454 <MX_I2C3_Init+0x50>)
 8005408:	2200      	movs	r2, #0
 800540a:	2101      	movs	r1, #1
 800540c:	4d12      	ldr	r5, [pc, #72]	; (8005458 <MX_I2C3_Init+0x54>)
 800540e:	4c13      	ldr	r4, [pc, #76]	; (800545c <MX_I2C3_Init+0x58>)
 8005410:	4618      	mov	r0, r3
 8005412:	621a      	str	r2, [r3, #32]
 8005414:	e9c3 5400 	strd	r5, r4, [r3]
 8005418:	e9c3 2102 	strd	r2, r1, [r3, #8]
 800541c:	e9c3 2204 	strd	r2, r2, [r3, #16]
 8005420:	e9c3 2206 	strd	r2, r2, [r3, #24]
 8005424:	f7fc fae0 	bl	80019e8 <HAL_I2C_Init>
 8005428:	b988      	cbnz	r0, 800544e <MX_I2C3_Init+0x4a>
 800542a:	2100      	movs	r1, #0
 800542c:	4809      	ldr	r0, [pc, #36]	; (8005454 <MX_I2C3_Init+0x50>)
 800542e:	f7fc fb2f 	bl	8001a90 <HAL_I2CEx_ConfigAnalogFilter>
 8005432:	b948      	cbnz	r0, 8005448 <MX_I2C3_Init+0x44>
 8005434:	2100      	movs	r1, #0
 8005436:	4807      	ldr	r0, [pc, #28]	; (8005454 <MX_I2C3_Init+0x50>)
 8005438:	f7fc fb54 	bl	8001ae4 <HAL_I2CEx_ConfigDigitalFilter>
 800543c:	b900      	cbnz	r0, 8005440 <MX_I2C3_Init+0x3c>
 800543e:	bd38      	pop	{r3, r4, r5, pc}
 8005440:	e8bd 4038 	ldmia.w	sp!, {r3, r4, r5, lr}
 8005444:	f000 b9ea 	b.w	800581c <Error_Handler>
 8005448:	f000 f9e8 	bl	800581c <Error_Handler>
 800544c:	e7f2      	b.n	8005434 <MX_I2C3_Init+0x30>
 800544e:	f000 f9e5 	bl	800581c <Error_Handler>
 8005452:	e7ea      	b.n	800542a <MX_I2C3_Init+0x26>
 8005454:	2000077c 	.word	0x2000077c
 8005458:	40005c00 	.word	0x40005c00
 800545c:	20404768 	.word	0x20404768

08005460 <HAL_I2C_MspInit>:
 8005460:	4a4f      	ldr	r2, [pc, #316]	; (80055a0 <HAL_I2C_MspInit+0x140>)
 8005462:	6803      	ldr	r3, [r0, #0]
 8005464:	e92d 47f0 	stmdb	sp!, {r4, r5, r6, r7, r8, r9, sl, lr}
 8005468:	4293      	cmp	r3, r2
 800546a:	b08a      	sub	sp, #40	; 0x28
 800546c:	f04f 0400 	mov.w	r4, #0
 8005470:	4605      	mov	r5, r0
 8005472:	e9cd 4405 	strd	r4, r4, [sp, #20]
 8005476:	e9cd 4407 	strd	r4, r4, [sp, #28]
 800547a:	9409      	str	r4, [sp, #36]	; 0x24
 800547c:	d005      	beq.n	800548a <HAL_I2C_MspInit+0x2a>
 800547e:	4a49      	ldr	r2, [pc, #292]	; (80055a4 <HAL_I2C_MspInit+0x144>)
 8005480:	4293      	cmp	r3, r2
 8005482:	d03d      	beq.n	8005500 <HAL_I2C_MspInit+0xa0>
 8005484:	b00a      	add	sp, #40	; 0x28
 8005486:	e8bd 87f0 	ldmia.w	sp!, {r4, r5, r6, r7, r8, r9, sl, pc}
 800548a:	4f47      	ldr	r7, [pc, #284]	; (80055a8 <HAL_I2C_MspInit+0x148>)
 800548c:	20c0      	movs	r0, #192	; 0xc0
 800548e:	2212      	movs	r2, #18
 8005490:	a905      	add	r1, sp, #20
 8005492:	6b3b      	ldr	r3, [r7, #48]	; 0x30
 8005494:	f043 0302 	orr.w	r3, r3, #2
 8005498:	633b      	str	r3, [r7, #48]	; 0x30
 800549a:	6b3b      	ldr	r3, [r7, #48]	; 0x30
 800549c:	9005      	str	r0, [sp, #20]
 800549e:	2001      	movs	r0, #1
 80054a0:	f003 0302 	and.w	r3, r3, #2
 80054a4:	9206      	str	r2, [sp, #24]
 80054a6:	2203      	movs	r2, #3
 80054a8:	9300      	str	r3, [sp, #0]
 80054aa:	2304      	movs	r3, #4
 80054ac:	9e00      	ldr	r6, [sp, #0]
 80054ae:	9309      	str	r3, [sp, #36]	; 0x24
 80054b0:	4e3e      	ldr	r6, [pc, #248]	; (80055ac <HAL_I2C_MspInit+0x14c>)
 80054b2:	e9cd 0207 	strd	r0, r2, [sp, #28]
 80054b6:	483e      	ldr	r0, [pc, #248]	; (80055b0 <HAL_I2C_MspInit+0x150>)
 80054b8:	f7fc f978 	bl	80017ac <HAL_GPIO_Init>
 80054bc:	6c3b      	ldr	r3, [r7, #64]	; 0x40
 80054be:	60b4      	str	r4, [r6, #8]
 80054c0:	f44f 6280 	mov.w	r2, #1024	; 0x400
 80054c4:	f443 1300 	orr.w	r3, r3, #2097152	; 0x200000
 80054c8:	f04f 7100 	mov.w	r1, #33554432	; 0x2000000
 80054cc:	4630      	mov	r0, r6
 80054ce:	643b      	str	r3, [r7, #64]	; 0x40
 80054d0:	6c3b      	ldr	r3, [r7, #64]	; 0x40
 80054d2:	60f4      	str	r4, [r6, #12]
 80054d4:	f403 1300 	and.w	r3, r3, #2097152	; 0x200000
 80054d8:	6274      	str	r4, [r6, #36]	; 0x24
 80054da:	9301      	str	r3, [sp, #4]
 80054dc:	9b01      	ldr	r3, [sp, #4]
 80054de:	4b35      	ldr	r3, [pc, #212]	; (80055b4 <HAL_I2C_MspInit+0x154>)
 80054e0:	6132      	str	r2, [r6, #16]
 80054e2:	e9c6 4405 	strd	r4, r4, [r6, #20]
 80054e6:	e9c6 4407 	strd	r4, r4, [r6, #28]
 80054ea:	e9c6 3100 	strd	r3, r1, [r6]
 80054ee:	f7fb ffa5 	bl	800143c <HAL_DMA_Init>
 80054f2:	2800      	cmp	r0, #0
 80054f4:	d151      	bne.n	800559a <HAL_I2C_MspInit+0x13a>
 80054f6:	63ee      	str	r6, [r5, #60]	; 0x3c
 80054f8:	63b5      	str	r5, [r6, #56]	; 0x38
 80054fa:	b00a      	add	sp, #40	; 0x28
 80054fc:	e8bd 87f0 	ldmia.w	sp!, {r4, r5, r6, r7, r8, r9, sl, pc}
 8005500:	4f29      	ldr	r7, [pc, #164]	; (80055a8 <HAL_I2C_MspInit+0x148>)
 8005502:	2604      	movs	r6, #4
 8005504:	f04f 0901 	mov.w	r9, #1
 8005508:	f44f 7200 	mov.w	r2, #512	; 0x200
 800550c:	6b3b      	ldr	r3, [r7, #48]	; 0x30
 800550e:	f04f 0a12 	mov.w	sl, #18
 8005512:	f04f 0803 	mov.w	r8, #3
 8005516:	a905      	add	r1, sp, #20
 8005518:	4333      	orrs	r3, r6
 800551a:	4827      	ldr	r0, [pc, #156]	; (80055b8 <HAL_I2C_MspInit+0x158>)
 800551c:	633b      	str	r3, [r7, #48]	; 0x30
 800551e:	6b3b      	ldr	r3, [r7, #48]	; 0x30
 8005520:	4033      	ands	r3, r6
 8005522:	9302      	str	r3, [sp, #8]
 8005524:	9b02      	ldr	r3, [sp, #8]
 8005526:	6b3b      	ldr	r3, [r7, #48]	; 0x30
 8005528:	ea43 0309 	orr.w	r3, r3, r9
 800552c:	633b      	str	r3, [r7, #48]	; 0x30
 800552e:	6b3b      	ldr	r3, [r7, #48]	; 0x30
 8005530:	9205      	str	r2, [sp, #20]
 8005532:	ea03 0309 	and.w	r3, r3, r9
 8005536:	9303      	str	r3, [sp, #12]
 8005538:	9b03      	ldr	r3, [sp, #12]
 800553a:	e9cd 8608 	strd	r8, r6, [sp, #32]
 800553e:	e9cd a906 	strd	sl, r9, [sp, #24]
 8005542:	f7fc f933 	bl	80017ac <HAL_GPIO_Init>
 8005546:	f44f 7380 	mov.w	r3, #256	; 0x100
 800554a:	a905      	add	r1, sp, #20
 800554c:	481b      	ldr	r0, [pc, #108]	; (80055bc <HAL_I2C_MspInit+0x15c>)
 800554e:	9305      	str	r3, [sp, #20]
 8005550:	e9cd 8608 	strd	r8, r6, [sp, #32]
 8005554:	e9cd a906 	strd	sl, r9, [sp, #24]
 8005558:	f7fc f928 	bl	80017ac <HAL_GPIO_Init>
 800555c:	6c3b      	ldr	r3, [r7, #64]	; 0x40
 800555e:	4e18      	ldr	r6, [pc, #96]	; (80055c0 <HAL_I2C_MspInit+0x160>)
 8005560:	f44f 6280 	mov.w	r2, #1024	; 0x400
 8005564:	f443 0300 	orr.w	r3, r3, #8388608	; 0x800000
 8005568:	f04f 7100 	mov.w	r1, #33554432	; 0x2000000
 800556c:	60b4      	str	r4, [r6, #8]
 800556e:	4630      	mov	r0, r6
 8005570:	643b      	str	r3, [r7, #64]	; 0x40
 8005572:	6c3b      	ldr	r3, [r7, #64]	; 0x40
 8005574:	f8df c04c 	ldr.w	ip, [pc, #76]	; 80055c4 <HAL_I2C_MspInit+0x164>
 8005578:	f403 0300 	and.w	r3, r3, #8388608	; 0x800000
 800557c:	60f4      	str	r4, [r6, #12]
 800557e:	6274      	str	r4, [r6, #36]	; 0x24
 8005580:	9304      	str	r3, [sp, #16]
 8005582:	9b04      	ldr	r3, [sp, #16]
 8005584:	6132      	str	r2, [r6, #16]
 8005586:	e9c6 4405 	strd	r4, r4, [r6, #20]
 800558a:	e9c6 4407 	strd	r4, r4, [r6, #28]
 800558e:	e9c6 c100 	strd	ip, r1, [r6]
 8005592:	f7fb ff53 	bl	800143c <HAL_DMA_Init>
 8005596:	2800      	cmp	r0, #0
 8005598:	d0ad      	beq.n	80054f6 <HAL_I2C_MspInit+0x96>
 800559a:	f000 f93f 	bl	800581c <Error_Handler>
 800559e:	e7aa      	b.n	80054f6 <HAL_I2C_MspInit+0x96>
 80055a0:	40005400 	.word	0x40005400
 80055a4:	40005c00 	.word	0x40005c00
 80055a8:	40023800 	.word	0x40023800
 80055ac:	20000874 	.word	0x20000874
 80055b0:	40020400 	.word	0x40020400
 80055b4:	40026010 	.word	0x40026010
 80055b8:	40020800 	.word	0x40020800
 80055bc:	40020000 	.word	0x40020000
 80055c0:	200007c8 	.word	0x200007c8
 80055c4:	40026028 	.word	0x40026028

080055c8 <_Z18SystemClock_Configv>:
 80055c8:	b570      	push	{r4, r5, r6, lr}
 80055ca:	2400      	movs	r4, #0
 80055cc:	b0b4      	sub	sp, #208	; 0xd0
 80055ce:	2280      	movs	r2, #128	; 0x80
 80055d0:	2502      	movs	r5, #2
 80055d2:	4621      	mov	r1, r4
 80055d4:	a814      	add	r0, sp, #80	; 0x50
 80055d6:	940a      	str	r4, [sp, #40]	; 0x28
 80055d8:	2601      	movs	r6, #1
 80055da:	9403      	str	r4, [sp, #12]
 80055dc:	940d      	str	r4, [sp, #52]	; 0x34
 80055de:	e9cd 440b 	strd	r4, r4, [sp, #44]	; 0x2c
 80055e2:	e9cd 4404 	strd	r4, r4, [sp, #16]
 80055e6:	e9cd 4406 	strd	r4, r4, [sp, #24]
 80055ea:	f000 ff81 	bl	80064f0 <memset>
 80055ee:	4b22      	ldr	r3, [pc, #136]	; (8005678 <_Z18SystemClock_Configv+0xb0>)
 80055f0:	f44f 3180 	mov.w	r1, #65536	; 0x10000
 80055f4:	f44f 0080 	mov.w	r0, #4194304	; 0x400000
 80055f8:	6c1a      	ldr	r2, [r3, #64]	; 0x40
 80055fa:	f042 5280 	orr.w	r2, r2, #268435456	; 0x10000000
 80055fe:	641a      	str	r2, [r3, #64]	; 0x40
 8005600:	6c1a      	ldr	r2, [r3, #64]	; 0x40
 8005602:	f5a3 33e4 	sub.w	r3, r3, #116736	; 0x1c800
 8005606:	f002 5280 	and.w	r2, r2, #268435456	; 0x10000000
 800560a:	9201      	str	r2, [sp, #4]
 800560c:	9a01      	ldr	r2, [sp, #4]
 800560e:	681a      	ldr	r2, [r3, #0]
 8005610:	f442 4240 	orr.w	r2, r2, #49152	; 0xc000
 8005614:	601a      	str	r2, [r3, #0]
 8005616:	f44f 72d8 	mov.w	r2, #432	; 0x1b0
 800561a:	681b      	ldr	r3, [r3, #0]
 800561c:	9109      	str	r1, [sp, #36]	; 0x24
 800561e:	2108      	movs	r1, #8
 8005620:	f403 4340 	and.w	r3, r3, #49152	; 0xc000
 8005624:	900f      	str	r0, [sp, #60]	; 0x3c
 8005626:	a808      	add	r0, sp, #32
 8005628:	9608      	str	r6, [sp, #32]
 800562a:	9302      	str	r3, [sp, #8]
 800562c:	260f      	movs	r6, #15
 800562e:	9b02      	ldr	r3, [sp, #8]
 8005630:	2309      	movs	r3, #9
 8005632:	950e      	str	r5, [sp, #56]	; 0x38
 8005634:	9313      	str	r3, [sp, #76]	; 0x4c
 8005636:	9512      	str	r5, [sp, #72]	; 0x48
 8005638:	e9cd 1210 	strd	r1, r2, [sp, #64]	; 0x40
 800563c:	f7fc fab8 	bl	8001bb0 <HAL_RCC_OscConfig>
 8005640:	f7fc fa7a 	bl	8001b38 <HAL_PWREx_EnableOverDrive>
 8005644:	f44f 52a0 	mov.w	r2, #5120	; 0x1400
 8005648:	f44f 5380 	mov.w	r3, #4096	; 0x1000
 800564c:	2107      	movs	r1, #7
 800564e:	a803      	add	r0, sp, #12
 8005650:	9504      	str	r5, [sp, #16]
 8005652:	9405      	str	r4, [sp, #20]
 8005654:	9603      	str	r6, [sp, #12]
 8005656:	e9cd 2306 	strd	r2, r3, [sp, #24]
 800565a:	f7fc fc75 	bl	8001f48 <HAL_RCC_ClockConfig>
 800565e:	4b07      	ldr	r3, [pc, #28]	; (800567c <_Z18SystemClock_Configv+0xb4>)
 8005660:	a814      	add	r0, sp, #80	; 0x50
 8005662:	942b      	str	r4, [sp, #172]	; 0xac
 8005664:	942d      	str	r4, [sp, #180]	; 0xb4
 8005666:	9314      	str	r3, [sp, #80]	; 0x50
 8005668:	e9cd 4423 	strd	r4, r4, [sp, #140]	; 0x8c
 800566c:	e9cd 4431 	strd	r4, r4, [sp, #196]	; 0xc4
 8005670:	f7fc fd88 	bl	8002184 <HAL_RCCEx_PeriphCLKConfig>
 8005674:	b034      	add	sp, #208	; 0xd0
 8005676:	bd70      	pop	{r4, r5, r6, pc}
 8005678:	40023800 	.word	0x40023800
 800567c:	00a140c0 	.word	0x00a140c0

08005680 <main>:
 8005680:	b500      	push	{lr}
 8005682:	b08b      	sub	sp, #44	; 0x2c
 8005684:	4c58      	ldr	r4, [pc, #352]	; (80057e8 <main+0x168>)
 8005686:	f7fb fbdd 	bl	8000e44 <HAL_Init>
 800568a:	f7ff ff9d 	bl	80055c8 <_Z18SystemClock_Configv>
 800568e:	f7ff fddd 	bl	800524c <MX_GPIO_Init>
 8005692:	f7ff fd4b 	bl	800512c <MX_DMA_Init>
 8005696:	f7ff fe87 	bl	80053a8 <MX_I2C1_Init>
 800569a:	f000 f945 	bl	8005928 <MX_SDMMC1_SD_Init>
 800569e:	f000 fa05 	bl	8005aac <MX_SPI2_Init>
 80056a2:	f000 fdd1 	bl	8006248 <MX_USART1_UART_Init>
 80056a6:	f000 fded 	bl	8006284 <MX_USART2_UART_Init>
 80056aa:	f7ff fdc1 	bl	8005230 <MX_FATFS_Init>
 80056ae:	f7ff fea9 	bl	8005404 <MX_I2C3_Init>
 80056b2:	f000 fc07 	bl	8005ec4 <MX_TIM2_Init>
 80056b6:	f7ff fcc5 	bl	8005044 <MX_DAC_Init>
 80056ba:	f000 fa1f 	bl	8005afc <MX_SPI3_Init>
 80056be:	f7ff fbf1 	bl	8004ea4 <MX_ADC1_Init>
 80056c2:	f000 fcc1 	bl	8006048 <MX_TIM3_Init>
 80056c6:	f000 fd5b 	bl	8006180 <MX_TIM6_Init>
 80056ca:	2100      	movs	r1, #0
 80056cc:	4847      	ldr	r0, [pc, #284]	; (80057ec <main+0x16c>)
 80056ce:	f7fe f8c3 	bl	8003858 <HAL_TIM_PWM_Start>
 80056d2:	2104      	movs	r1, #4
 80056d4:	4845      	ldr	r0, [pc, #276]	; (80057ec <main+0x16c>)
 80056d6:	f7fe f8bf 	bl	8003858 <HAL_TIM_PWM_Start>
 80056da:	2108      	movs	r1, #8
 80056dc:	4843      	ldr	r0, [pc, #268]	; (80057ec <main+0x16c>)
 80056de:	f7fe f8bb 	bl	8003858 <HAL_TIM_PWM_Start>
 80056e2:	210c      	movs	r1, #12
 80056e4:	4841      	ldr	r0, [pc, #260]	; (80057ec <main+0x16c>)
 80056e6:	f7fe f8b7 	bl	8003858 <HAL_TIM_PWM_Start>
 80056ea:	2100      	movs	r1, #0
 80056ec:	4840      	ldr	r0, [pc, #256]	; (80057f0 <main+0x170>)
 80056ee:	f7fe f8b3 	bl	8003858 <HAL_TIM_PWM_Start>
 80056f2:	2104      	movs	r1, #4
 80056f4:	483e      	ldr	r0, [pc, #248]	; (80057f0 <main+0x170>)
 80056f6:	f7fe f8af 	bl	8003858 <HAL_TIM_PWM_Start>
 80056fa:	2108      	movs	r1, #8
 80056fc:	483c      	ldr	r0, [pc, #240]	; (80057f0 <main+0x170>)
 80056fe:	f7fe f8ab 	bl	8003858 <HAL_TIM_PWM_Start>
 8005702:	2201      	movs	r2, #1
 8005704:	f44f 6100 	mov.w	r1, #2048	; 0x800
 8005708:	483a      	ldr	r0, [pc, #232]	; (80057f4 <main+0x174>)
 800570a:	f7fc f961 	bl	80019d0 <HAL_GPIO_WritePin>
 800570e:	f44f 5180 	mov.w	r1, #4096	; 0x1000
 8005712:	4838      	ldr	r0, [pc, #224]	; (80057f4 <main+0x174>)
 8005714:	f7fc f956 	bl	80019c4 <HAL_GPIO_ReadPin>
 8005718:	2301      	movs	r3, #1
 800571a:	bb18      	cbnz	r0, 8005764 <main+0xe4>
 800571c:	f100 4080 	add.w	r0, r0, #1073741824	; 0x40000000
 8005720:	2110      	movs	r1, #16
 8005722:	461a      	mov	r2, r3
 8005724:	7023      	strb	r3, [r4, #0]
 8005726:	f500 3002 	add.w	r0, r0, #133120	; 0x20800
 800572a:	f7fc f951 	bl	80019d0 <HAL_GPIO_WritePin>
 800572e:	4832      	ldr	r0, [pc, #200]	; (80057f8 <main+0x178>)
 8005730:	f7fd fff6 	bl	8003720 <HAL_TIM_Base_Start>
 8005734:	2208      	movs	r2, #8
 8005736:	4c31      	ldr	r4, [pc, #196]	; (80057fc <main+0x17c>)
 8005738:	f44f 7380 	mov.w	r3, #256	; 0x100
 800573c:	9200      	str	r2, [sp, #0]
 800573e:	2110      	movs	r1, #16
 8005740:	4a2f      	ldr	r2, [pc, #188]	; (8005800 <main+0x180>)
 8005742:	4830      	ldr	r0, [pc, #192]	; (8005804 <main+0x184>)
 8005744:	f7fb fd9e 	bl	8001284 <HAL_DAC_Start_DMA>
 8005748:	4620      	mov	r0, r4
 800574a:	f7ff fa91 	bl	8004c70 <_ZN6Sensor8ICM206899InitalizeEv>
 800574e:	7923      	ldrb	r3, [r4, #4]
 8005750:	b97b      	cbnz	r3, 8005772 <main+0xf2>
 8005752:	4c28      	ldr	r4, [pc, #160]	; (80057f4 <main+0x174>)
 8005754:	4620      	mov	r0, r4
 8005756:	2180      	movs	r1, #128	; 0x80
 8005758:	f7fc f93e 	bl	80019d8 <HAL_GPIO_TogglePin>
 800575c:	2064      	movs	r0, #100	; 0x64
 800575e:	f7fb fb8f 	bl	8000e80 <HAL_Delay>
 8005762:	e7f7      	b.n	8005754 <main+0xd4>
 8005764:	2102      	movs	r1, #2
 8005766:	4828      	ldr	r0, [pc, #160]	; (8005808 <main+0x188>)
 8005768:	461a      	mov	r2, r3
 800576a:	7023      	strb	r3, [r4, #0]
 800576c:	f7fc f930 	bl	80019d0 <HAL_GPIO_WritePin>
 8005770:	e7dd      	b.n	800572e <main+0xae>
 8005772:	4626      	mov	r6, r4
 8005774:	4d25      	ldr	r5, [pc, #148]	; (800580c <main+0x18c>)
 8005776:	2201      	movs	r2, #1
 8005778:	2180      	movs	r1, #128	; 0x80
 800577a:	481e      	ldr	r0, [pc, #120]	; (80057f4 <main+0x174>)
 800577c:	f7fc f928 	bl	80019d0 <HAL_GPIO_WritePin>
 8005780:	4630      	mov	r0, r6
 8005782:	f7ff fac5 	bl	8004d10 <_ZN6Sensor8ICM206898ReadGyroEv>
 8005786:	68a0      	ldr	r0, [r4, #8]
 8005788:	f7fa fefe 	bl	8000588 <__aeabi_f2d>
 800578c:	4602      	mov	r2, r0
 800578e:	460b      	mov	r3, r1
 8005790:	a802      	add	r0, sp, #8
 8005792:	491f      	ldr	r1, [pc, #124]	; (8005810 <main+0x190>)
 8005794:	f000 ff6c 	bl	8006670 <siprintf>
 8005798:	2364      	movs	r3, #100	; 0x64
 800579a:	b282      	uxth	r2, r0
 800579c:	a902      	add	r1, sp, #8
 800579e:	4628      	mov	r0, r5
 80057a0:	f7fe faf0 	bl	8003d84 <HAL_UART_Transmit>
 80057a4:	68e0      	ldr	r0, [r4, #12]
 80057a6:	f7fa feef 	bl	8000588 <__aeabi_f2d>
 80057aa:	4602      	mov	r2, r0
 80057ac:	460b      	mov	r3, r1
 80057ae:	a802      	add	r0, sp, #8
 80057b0:	4918      	ldr	r1, [pc, #96]	; (8005814 <main+0x194>)
 80057b2:	f000 ff5d 	bl	8006670 <siprintf>
 80057b6:	2364      	movs	r3, #100	; 0x64
 80057b8:	b282      	uxth	r2, r0
 80057ba:	a902      	add	r1, sp, #8
 80057bc:	4628      	mov	r0, r5
 80057be:	f7fe fae1 	bl	8003d84 <HAL_UART_Transmit>
 80057c2:	6920      	ldr	r0, [r4, #16]
 80057c4:	f7fa fee0 	bl	8000588 <__aeabi_f2d>
 80057c8:	4602      	mov	r2, r0
 80057ca:	460b      	mov	r3, r1
 80057cc:	a802      	add	r0, sp, #8
 80057ce:	4912      	ldr	r1, [pc, #72]	; (8005818 <main+0x198>)
 80057d0:	f000 ff4e 	bl	8006670 <siprintf>
 80057d4:	2364      	movs	r3, #100	; 0x64
 80057d6:	b282      	uxth	r2, r0
 80057d8:	a902      	add	r1, sp, #8
 80057da:	4628      	mov	r0, r5
 80057dc:	f7fe fad2 	bl	8003d84 <HAL_UART_Transmit>
 80057e0:	2064      	movs	r0, #100	; 0x64
 80057e2:	f7fb fb4d 	bl	8000e80 <HAL_Delay>
 80057e6:	e7cb      	b.n	8005780 <main+0x100>
 80057e8:	20000008 	.word	0x20000008
 80057ec:	20000ce0 	.word	0x20000ce0
 80057f0:	20000c60 	.word	0x20000c60
 80057f4:	40020000 	.word	0x40020000
 80057f8:	20000ca0 	.word	0x20000ca0
 80057fc:	200001a0 	.word	0x200001a0
 8005800:	2000000c 	.word	0x2000000c
 8005804:	200002a0 	.word	0x200002a0
 8005808:	40020400 	.word	0x40020400
 800580c:	20000e40 	.word	0x20000e40
 8005810:	08006d60 	.word	0x08006d60
 8005814:	08006d70 	.word	0x08006d70
 8005818:	08006d80 	.word	0x08006d80

0800581c <Error_Handler>:
 800581c:	4770      	bx	lr
 800581e:	bf00      	nop

08005820 <_GLOBAL__sub_I_osdusb>:
 8005820:	4801      	ldr	r0, [pc, #4]	; (8005828 <_GLOBAL__sub_I_osdusb+0x8>)
 8005822:	f7ff ba09 	b.w	8004c38 <_ZN6Sensor8ICM20689C1Ev>
 8005826:	bf00      	nop
 8005828:	200001a0 	.word	0x200001a0

0800582c <_GLOBAL__sub_D_osdusb>:
 800582c:	4801      	ldr	r0, [pc, #4]	; (8005834 <_GLOBAL__sub_D_osdusb+0x8>)
 800582e:	f7ff bacd 	b.w	8004dcc <_ZN6Sensor8ICM20689D1Ev>
 8005832:	bf00      	nop
 8005834:	200001a0 	.word	0x200001a0

08005838 <SD_initialize>:
 8005838:	b538      	push	{r3, r4, r5, lr}
 800583a:	4c0a      	ldr	r4, [pc, #40]	; (8005864 <SD_initialize+0x2c>)
 800583c:	2501      	movs	r5, #1
 800583e:	7025      	strb	r5, [r4, #0]
 8005840:	f7ff fbba 	bl	8004fb8 <BSP_SD_Init>
 8005844:	b108      	cbz	r0, 800584a <SD_initialize+0x12>
 8005846:	7820      	ldrb	r0, [r4, #0]
 8005848:	bd38      	pop	{r3, r4, r5, pc}
 800584a:	7025      	strb	r5, [r4, #0]
 800584c:	f7ff fbea 	bl	8005024 <BSP_SD_GetCardState>
 8005850:	b918      	cbnz	r0, 800585a <SD_initialize+0x22>
 8005852:	7823      	ldrb	r3, [r4, #0]
 8005854:	f003 03fe 	and.w	r3, r3, #254	; 0xfe
 8005858:	7023      	strb	r3, [r4, #0]
 800585a:	7823      	ldrb	r3, [r4, #0]
 800585c:	b2db      	uxtb	r3, r3
 800585e:	7023      	strb	r3, [r4, #0]
 8005860:	7820      	ldrb	r0, [r4, #0]
 8005862:	bd38      	pop	{r3, r4, r5, pc}
 8005864:	2000010c 	.word	0x2000010c

08005868 <SD_status>:
 8005868:	b510      	push	{r4, lr}
 800586a:	2301      	movs	r3, #1
 800586c:	4c05      	ldr	r4, [pc, #20]	; (8005884 <SD_status+0x1c>)
 800586e:	7023      	strb	r3, [r4, #0]
 8005870:	f7ff fbd8 	bl	8005024 <BSP_SD_GetCardState>
 8005874:	b918      	cbnz	r0, 800587e <SD_status+0x16>
 8005876:	7823      	ldrb	r3, [r4, #0]
 8005878:	f003 03fe 	and.w	r3, r3, #254	; 0xfe
 800587c:	7023      	strb	r3, [r4, #0]
 800587e:	7820      	ldrb	r0, [r4, #0]
 8005880:	bd10      	pop	{r4, pc}
 8005882:	bf00      	nop
 8005884:	2000010c 	.word	0x2000010c

08005888 <SD_read>:
 8005888:	b508      	push	{r3, lr}
 800588a:	4608      	mov	r0, r1
 800588c:	4611      	mov	r1, r2
 800588e:	461a      	mov	r2, r3
 8005890:	f04f 33ff 	mov.w	r3, #4294967295
 8005894:	f7ff fba2 	bl	8004fdc <BSP_SD_ReadBlocks>
 8005898:	b920      	cbnz	r0, 80058a4 <SD_read+0x1c>
 800589a:	f7ff fbc3 	bl	8005024 <BSP_SD_GetCardState>
 800589e:	2800      	cmp	r0, #0
 80058a0:	d1fb      	bne.n	800589a <SD_read+0x12>
 80058a2:	bd08      	pop	{r3, pc}
 80058a4:	2001      	movs	r0, #1
 80058a6:	bd08      	pop	{r3, pc}

080058a8 <SD_ioctl>:
 80058a8:	4b16      	ldr	r3, [pc, #88]	; (8005904 <SD_ioctl+0x5c>)
 80058aa:	781b      	ldrb	r3, [r3, #0]
 80058ac:	07db      	lsls	r3, r3, #31
 80058ae:	d408      	bmi.n	80058c2 <SD_ioctl+0x1a>
 80058b0:	b510      	push	{r4, lr}
 80058b2:	4614      	mov	r4, r2
 80058b4:	b088      	sub	sp, #32
 80058b6:	2903      	cmp	r1, #3
 80058b8:	d821      	bhi.n	80058fe <SD_ioctl+0x56>
 80058ba:	e8df f001 	tbb	[pc, r1]
 80058be:	0704      	.short	0x0704
 80058c0:	170f      	.short	0x170f
 80058c2:	2003      	movs	r0, #3
 80058c4:	4770      	bx	lr
 80058c6:	2000      	movs	r0, #0
 80058c8:	b008      	add	sp, #32
 80058ca:	bd10      	pop	{r4, pc}
 80058cc:	4668      	mov	r0, sp
 80058ce:	f7ff fbb3 	bl	8005038 <BSP_SD_GetCardInfo>
 80058d2:	9b06      	ldr	r3, [sp, #24]
 80058d4:	2000      	movs	r0, #0
 80058d6:	6023      	str	r3, [r4, #0]
 80058d8:	b008      	add	sp, #32
 80058da:	bd10      	pop	{r4, pc}
 80058dc:	4668      	mov	r0, sp
 80058de:	f7ff fbab 	bl	8005038 <BSP_SD_GetCardInfo>
 80058e2:	9b07      	ldr	r3, [sp, #28]
 80058e4:	2000      	movs	r0, #0
 80058e6:	8023      	strh	r3, [r4, #0]
 80058e8:	b008      	add	sp, #32
 80058ea:	bd10      	pop	{r4, pc}
 80058ec:	4668      	mov	r0, sp
 80058ee:	f7ff fba3 	bl	8005038 <BSP_SD_GetCardInfo>
 80058f2:	9b07      	ldr	r3, [sp, #28]
 80058f4:	2000      	movs	r0, #0
 80058f6:	0a5b      	lsrs	r3, r3, #9
 80058f8:	6023      	str	r3, [r4, #0]
 80058fa:	b008      	add	sp, #32
 80058fc:	bd10      	pop	{r4, pc}
 80058fe:	2004      	movs	r0, #4
 8005900:	b008      	add	sp, #32
 8005902:	bd10      	pop	{r4, pc}
 8005904:	2000010c 	.word	0x2000010c

08005908 <SD_write>:
 8005908:	b508      	push	{r3, lr}
 800590a:	4608      	mov	r0, r1
 800590c:	4611      	mov	r1, r2
 800590e:	461a      	mov	r2, r3
 8005910:	f04f 33ff 	mov.w	r3, #4294967295
 8005914:	f7ff fb74 	bl	8005000 <BSP_SD_WriteBlocks>
 8005918:	b920      	cbnz	r0, 8005924 <SD_write+0x1c>
 800591a:	f7ff fb83 	bl	8005024 <BSP_SD_GetCardState>
 800591e:	2800      	cmp	r0, #0
 8005920:	d1fb      	bne.n	800591a <SD_write+0x12>
 8005922:	bd08      	pop	{r3, pc}
 8005924:	2001      	movs	r0, #1
 8005926:	bd08      	pop	{r3, pc}

08005928 <MX_SDMMC1_SD_Init>:
 8005928:	4b05      	ldr	r3, [pc, #20]	; (8005940 <MX_SDMMC1_SD_Init+0x18>)
 800592a:	2200      	movs	r2, #0
 800592c:	4905      	ldr	r1, [pc, #20]	; (8005944 <MX_SDMMC1_SD_Init+0x1c>)
 800592e:	619a      	str	r2, [r3, #24]
 8005930:	e9c3 1200 	strd	r1, r2, [r3]
 8005934:	e9c3 2202 	strd	r2, r2, [r3, #8]
 8005938:	e9c3 2204 	strd	r2, r2, [r3, #16]
 800593c:	4770      	bx	lr
 800593e:	bf00      	nop
 8005940:	200008d4 	.word	0x200008d4
 8005944:	40012c00 	.word	0x40012c00

08005948 <HAL_SD_MspInit>:
 8005948:	4b51      	ldr	r3, [pc, #324]	; (8005a90 <HAL_SD_MspInit+0x148>)
 800594a:	6802      	ldr	r2, [r0, #0]
 800594c:	e92d 47f0 	stmdb	sp!, {r4, r5, r6, r7, r8, r9, sl, lr}
 8005950:	429a      	cmp	r2, r3
 8005952:	b088      	sub	sp, #32
 8005954:	f04f 0400 	mov.w	r4, #0
 8005958:	e9cd 4403 	strd	r4, r4, [sp, #12]
 800595c:	e9cd 4405 	strd	r4, r4, [sp, #20]
 8005960:	9407      	str	r4, [sp, #28]
 8005962:	d002      	beq.n	800596a <HAL_SD_MspInit+0x22>
 8005964:	b008      	add	sp, #32
 8005966:	e8bd 87f0 	ldmia.w	sp!, {r4, r5, r6, r7, r8, r9, sl, pc}
 800596a:	f503 3386 	add.w	r3, r3, #68608	; 0x10c00
 800596e:	f04f 090c 	mov.w	r9, #12
 8005972:	4606      	mov	r6, r0
 8005974:	f44f 5088 	mov.w	r0, #4352	; 0x1100
 8005978:	6c5a      	ldr	r2, [r3, #68]	; 0x44
 800597a:	f04f 0a02 	mov.w	sl, #2
 800597e:	2703      	movs	r7, #3
 8005980:	eb0d 0109 	add.w	r1, sp, r9
 8005984:	f442 6200 	orr.w	r2, r2, #2048	; 0x800
 8005988:	f04f 0804 	mov.w	r8, #4
 800598c:	4d41      	ldr	r5, [pc, #260]	; (8005a94 <HAL_SD_MspInit+0x14c>)
 800598e:	645a      	str	r2, [r3, #68]	; 0x44
 8005990:	6c5a      	ldr	r2, [r3, #68]	; 0x44
 8005992:	f402 6200 	and.w	r2, r2, #2048	; 0x800
 8005996:	9200      	str	r2, [sp, #0]
 8005998:	9a00      	ldr	r2, [sp, #0]
 800599a:	6b1a      	ldr	r2, [r3, #48]	; 0x30
 800599c:	f042 0204 	orr.w	r2, r2, #4
 80059a0:	631a      	str	r2, [r3, #48]	; 0x30
 80059a2:	6b1a      	ldr	r2, [r3, #48]	; 0x30
 80059a4:	f002 0204 	and.w	r2, r2, #4
 80059a8:	9201      	str	r2, [sp, #4]
 80059aa:	9a01      	ldr	r2, [sp, #4]
 80059ac:	6b1a      	ldr	r2, [r3, #48]	; 0x30
 80059ae:	f042 0208 	orr.w	r2, r2, #8
 80059b2:	631a      	str	r2, [r3, #48]	; 0x30
 80059b4:	6b1b      	ldr	r3, [r3, #48]	; 0x30
 80059b6:	9003      	str	r0, [sp, #12]
 80059b8:	f003 0308 	and.w	r3, r3, #8
 80059bc:	4836      	ldr	r0, [pc, #216]	; (8005a98 <HAL_SD_MspInit+0x150>)
 80059be:	f8cd a010 	str.w	sl, [sp, #16]
 80059c2:	9302      	str	r3, [sp, #8]
 80059c4:	9b02      	ldr	r3, [sp, #8]
 80059c6:	f8cd 901c 	str.w	r9, [sp, #28]
 80059ca:	9706      	str	r7, [sp, #24]
 80059cc:	f7fb feee 	bl	80017ac <HAL_GPIO_Init>
 80059d0:	eb0d 0109 	add.w	r1, sp, r9
 80059d4:	4831      	ldr	r0, [pc, #196]	; (8005a9c <HAL_SD_MspInit+0x154>)
 80059d6:	f8cd a010 	str.w	sl, [sp, #16]
 80059da:	f04f 0a40 	mov.w	sl, #64	; 0x40
 80059de:	9405      	str	r4, [sp, #20]
 80059e0:	f8cd 800c 	str.w	r8, [sp, #12]
 80059e4:	e9cd 7906 	strd	r7, r9, [sp, #24]
 80059e8:	f7fb fee0 	bl	80017ac <HAL_GPIO_Init>
 80059ec:	4b2c      	ldr	r3, [pc, #176]	; (8005aa0 <HAL_SD_MspInit+0x158>)
 80059ee:	f04f 6000 	mov.w	r0, #134217728	; 0x8000000
 80059f2:	f44f 6980 	mov.w	r9, #1024	; 0x400
 80059f6:	f44f 5e80 	mov.w	lr, #4096	; 0x1000
 80059fa:	f44f 4c80 	mov.w	ip, #16384	; 0x4000
 80059fe:	2120      	movs	r1, #32
 8005a00:	f44f 0200 	mov.w	r2, #8388608	; 0x800000
 8005a04:	602b      	str	r3, [r5, #0]
 8005a06:	f44f 1300 	mov.w	r3, #2097152	; 0x200000
 8005a0a:	6068      	str	r0, [r5, #4]
 8005a0c:	4628      	mov	r0, r5
 8005a0e:	f8c5 8024 	str.w	r8, [r5, #36]	; 0x24
 8005a12:	60ec      	str	r4, [r5, #12]
 8005a14:	622c      	str	r4, [r5, #32]
 8005a16:	62af      	str	r7, [r5, #40]	; 0x28
 8005a18:	f8c5 a008 	str.w	sl, [r5, #8]
 8005a1c:	e9c5 9e04 	strd	r9, lr, [r5, #16]
 8005a20:	e9c5 c106 	strd	ip, r1, [r5, #24]
 8005a24:	e9c5 230b 	strd	r2, r3, [r5, #44]	; 0x2c
 8005a28:	f7fb fd08 	bl	800143c <HAL_DMA_Init>
 8005a2c:	bb48      	cbnz	r0, 8005a82 <HAL_SD_MspInit+0x13a>
 8005a2e:	4c1d      	ldr	r4, [pc, #116]	; (8005aa4 <HAL_SD_MspInit+0x15c>)
 8005a30:	f04f 6000 	mov.w	r0, #134217728	; 0x8000000
 8005a34:	4b1c      	ldr	r3, [pc, #112]	; (8005aa8 <HAL_SD_MspInit+0x160>)
 8005a36:	f44f 5180 	mov.w	r1, #4096	; 0x1000
 8005a3a:	f44f 4280 	mov.w	r2, #16384	; 0x4000
 8005a3e:	6060      	str	r0, [r4, #4]
 8005a40:	6023      	str	r3, [r4, #0]
 8005a42:	2320      	movs	r3, #32
 8005a44:	2004      	movs	r0, #4
 8005a46:	f44f 6780 	mov.w	r7, #1024	; 0x400
 8005a4a:	6435      	str	r5, [r6, #64]	; 0x40
 8005a4c:	63ae      	str	r6, [r5, #56]	; 0x38
 8005a4e:	2503      	movs	r5, #3
 8005a50:	6161      	str	r1, [r4, #20]
 8005a52:	f44f 0100 	mov.w	r1, #8388608	; 0x800000
 8005a56:	61a2      	str	r2, [r4, #24]
 8005a58:	f44f 1200 	mov.w	r2, #2097152	; 0x200000
 8005a5c:	61e3      	str	r3, [r4, #28]
 8005a5e:	2300      	movs	r3, #0
 8005a60:	6260      	str	r0, [r4, #36]	; 0x24
 8005a62:	4620      	mov	r0, r4
 8005a64:	6127      	str	r7, [r4, #16]
 8005a66:	6322      	str	r2, [r4, #48]	; 0x30
 8005a68:	6223      	str	r3, [r4, #32]
 8005a6a:	e9c4 510a 	strd	r5, r1, [r4, #40]	; 0x28
 8005a6e:	e9c4 3302 	strd	r3, r3, [r4, #8]
 8005a72:	f7fb fce3 	bl	800143c <HAL_DMA_Init>
 8005a76:	b938      	cbnz	r0, 8005a88 <HAL_SD_MspInit+0x140>
 8005a78:	63f4      	str	r4, [r6, #60]	; 0x3c
 8005a7a:	63a6      	str	r6, [r4, #56]	; 0x38
 8005a7c:	b008      	add	sp, #32
 8005a7e:	e8bd 87f0 	ldmia.w	sp!, {r4, r5, r6, r7, r8, r9, sl, pc}
 8005a82:	f7ff fecb 	bl	800581c <Error_Handler>
 8005a86:	e7d2      	b.n	8005a2e <HAL_SD_MspInit+0xe6>
 8005a88:	f7ff fec8 	bl	800581c <Error_Handler>
 8005a8c:	e7f4      	b.n	8005a78 <HAL_SD_MspInit+0x130>
 8005a8e:	bf00      	nop
 8005a90:	40012c00 	.word	0x40012c00
 8005a94:	200009b8 	.word	0x200009b8
 8005a98:	40020800 	.word	0x40020800
 8005a9c:	40020c00 	.word	0x40020c00
 8005aa0:	400264a0 	.word	0x400264a0
 8005aa4:	20000958 	.word	0x20000958
 8005aa8:	40026458 	.word	0x40026458

08005aac <MX_SPI2_Init>:
 8005aac:	b538      	push	{r3, r4, r5, lr}
 8005aae:	f44f 7182 	mov.w	r1, #260	; 0x104
 8005ab2:	4b10      	ldr	r3, [pc, #64]	; (8005af4 <MX_SPI2_Init+0x48>)
 8005ab4:	4c10      	ldr	r4, [pc, #64]	; (8005af8 <MX_SPI2_Init+0x4c>)
 8005ab6:	f44f 62e0 	mov.w	r2, #1792	; 0x700
 8005aba:	f44f 7000 	mov.w	r0, #512	; 0x200
 8005abe:	2520      	movs	r5, #32
 8005ac0:	601c      	str	r4, [r3, #0]
 8005ac2:	2407      	movs	r4, #7
 8005ac4:	6059      	str	r1, [r3, #4]
 8005ac6:	2108      	movs	r1, #8
 8005ac8:	60da      	str	r2, [r3, #12]
 8005aca:	2200      	movs	r2, #0
 8005acc:	6198      	str	r0, [r3, #24]
 8005ace:	4618      	mov	r0, r3
 8005ad0:	61dd      	str	r5, [r3, #28]
 8005ad2:	62dc      	str	r4, [r3, #44]	; 0x2c
 8005ad4:	6359      	str	r1, [r3, #52]	; 0x34
 8005ad6:	609a      	str	r2, [r3, #8]
 8005ad8:	629a      	str	r2, [r3, #40]	; 0x28
 8005ada:	631a      	str	r2, [r3, #48]	; 0x30
 8005adc:	e9c3 2204 	strd	r2, r2, [r3, #16]
 8005ae0:	e9c3 2208 	strd	r2, r2, [r3, #32]
 8005ae4:	f7fd fa18 	bl	8002f18 <HAL_SPI_Init>
 8005ae8:	b900      	cbnz	r0, 8005aec <MX_SPI2_Init+0x40>
 8005aea:	bd38      	pop	{r3, r4, r5, pc}
 8005aec:	e8bd 4038 	ldmia.w	sp!, {r3, r4, r5, lr}
 8005af0:	f7ff be94 	b.w	800581c <Error_Handler>
 8005af4:	20000a18 	.word	0x20000a18
 8005af8:	40003800 	.word	0x40003800

08005afc <MX_SPI3_Init>:
 8005afc:	b538      	push	{r3, r4, r5, lr}
 8005afe:	f44f 7182 	mov.w	r1, #260	; 0x104
 8005b02:	4b10      	ldr	r3, [pc, #64]	; (8005b44 <MX_SPI3_Init+0x48>)
 8005b04:	4c10      	ldr	r4, [pc, #64]	; (8005b48 <MX_SPI3_Init+0x4c>)
 8005b06:	f44f 62e0 	mov.w	r2, #1792	; 0x700
 8005b0a:	f44f 7000 	mov.w	r0, #512	; 0x200
 8005b0e:	2520      	movs	r5, #32
 8005b10:	601c      	str	r4, [r3, #0]
 8005b12:	2407      	movs	r4, #7
 8005b14:	6059      	str	r1, [r3, #4]
 8005b16:	2108      	movs	r1, #8
 8005b18:	60da      	str	r2, [r3, #12]
 8005b1a:	2200      	movs	r2, #0
 8005b1c:	6198      	str	r0, [r3, #24]
 8005b1e:	4618      	mov	r0, r3
 8005b20:	61dd      	str	r5, [r3, #28]
 8005b22:	62dc      	str	r4, [r3, #44]	; 0x2c
 8005b24:	6359      	str	r1, [r3, #52]	; 0x34
 8005b26:	609a      	str	r2, [r3, #8]
 8005b28:	629a      	str	r2, [r3, #40]	; 0x28
 8005b2a:	631a      	str	r2, [r3, #48]	; 0x30
 8005b2c:	e9c3 2204 	strd	r2, r2, [r3, #16]
 8005b30:	e9c3 2208 	strd	r2, r2, [r3, #32]
 8005b34:	f7fd f9f0 	bl	8002f18 <HAL_SPI_Init>
 8005b38:	b900      	cbnz	r0, 8005b3c <MX_SPI3_Init+0x40>
 8005b3a:	bd38      	pop	{r3, r4, r5, pc}
 8005b3c:	e8bd 4038 	ldmia.w	sp!, {r3, r4, r5, lr}
 8005b40:	f7ff be6c 	b.w	800581c <Error_Handler>
 8005b44:	20000adc 	.word	0x20000adc
 8005b48:	40003c00 	.word	0x40003c00

08005b4c <HAL_SPI_MspInit>:
 8005b4c:	4a71      	ldr	r2, [pc, #452]	; (8005d14 <HAL_SPI_MspInit+0x1c8>)
 8005b4e:	6803      	ldr	r3, [r0, #0]
 8005b50:	e92d 43f0 	stmdb	sp!, {r4, r5, r6, r7, r8, r9, lr}
 8005b54:	4293      	cmp	r3, r2
 8005b56:	b08d      	sub	sp, #52	; 0x34
 8005b58:	f04f 0400 	mov.w	r4, #0
 8005b5c:	4605      	mov	r5, r0
 8005b5e:	e9cd 4407 	strd	r4, r4, [sp, #28]
 8005b62:	e9cd 4409 	strd	r4, r4, [sp, #36]	; 0x24
 8005b66:	940b      	str	r4, [sp, #44]	; 0x2c
 8005b68:	d005      	beq.n	8005b76 <HAL_SPI_MspInit+0x2a>
 8005b6a:	4a6b      	ldr	r2, [pc, #428]	; (8005d18 <HAL_SPI_MspInit+0x1cc>)
 8005b6c:	4293      	cmp	r3, r2
 8005b6e:	d068      	beq.n	8005c42 <HAL_SPI_MspInit+0xf6>
 8005b70:	b00d      	add	sp, #52	; 0x34
 8005b72:	e8bd 83f0 	ldmia.w	sp!, {r4, r5, r6, r7, r8, r9, pc}
 8005b76:	4b69      	ldr	r3, [pc, #420]	; (8005d1c <HAL_SPI_MspInit+0x1d0>)
 8005b78:	f04f 0902 	mov.w	r9, #2
 8005b7c:	2006      	movs	r0, #6
 8005b7e:	f04f 0803 	mov.w	r8, #3
 8005b82:	6c1a      	ldr	r2, [r3, #64]	; 0x40
 8005b84:	2705      	movs	r7, #5
 8005b86:	a907      	add	r1, sp, #28
 8005b88:	4e65      	ldr	r6, [pc, #404]	; (8005d20 <HAL_SPI_MspInit+0x1d4>)
 8005b8a:	f442 4280 	orr.w	r2, r2, #16384	; 0x4000
 8005b8e:	641a      	str	r2, [r3, #64]	; 0x40
 8005b90:	6c1a      	ldr	r2, [r3, #64]	; 0x40
 8005b92:	f402 4280 	and.w	r2, r2, #16384	; 0x4000
 8005b96:	9201      	str	r2, [sp, #4]
 8005b98:	9a01      	ldr	r2, [sp, #4]
 8005b9a:	6b1a      	ldr	r2, [r3, #48]	; 0x30
 8005b9c:	f042 0204 	orr.w	r2, r2, #4
 8005ba0:	631a      	str	r2, [r3, #48]	; 0x30
 8005ba2:	6b1a      	ldr	r2, [r3, #48]	; 0x30
 8005ba4:	f002 0204 	and.w	r2, r2, #4
 8005ba8:	9202      	str	r2, [sp, #8]
 8005baa:	9a02      	ldr	r2, [sp, #8]
 8005bac:	6b1a      	ldr	r2, [r3, #48]	; 0x30
 8005bae:	ea42 0209 	orr.w	r2, r2, r9
 8005bb2:	631a      	str	r2, [r3, #48]	; 0x30
 8005bb4:	6b1b      	ldr	r3, [r3, #48]	; 0x30
 8005bb6:	9007      	str	r0, [sp, #28]
 8005bb8:	ea03 0309 	and.w	r3, r3, r9
 8005bbc:	4859      	ldr	r0, [pc, #356]	; (8005d24 <HAL_SPI_MspInit+0x1d8>)
 8005bbe:	f8cd 9020 	str.w	r9, [sp, #32]
 8005bc2:	9303      	str	r3, [sp, #12]
 8005bc4:	9b03      	ldr	r3, [sp, #12]
 8005bc6:	e9cd 870a 	strd	r8, r7, [sp, #40]	; 0x28
 8005bca:	f7fb fdef 	bl	80017ac <HAL_GPIO_Init>
 8005bce:	f44f 5300 	mov.w	r3, #8192	; 0x2000
 8005bd2:	4855      	ldr	r0, [pc, #340]	; (8005d28 <HAL_SPI_MspInit+0x1dc>)
 8005bd4:	a907      	add	r1, sp, #28
 8005bd6:	9307      	str	r3, [sp, #28]
 8005bd8:	f8cd 9020 	str.w	r9, [sp, #32]
 8005bdc:	9409      	str	r4, [sp, #36]	; 0x24
 8005bde:	e9cd 870a 	strd	r8, r7, [sp, #40]	; 0x28
 8005be2:	f7fb fde3 	bl	80017ac <HAL_GPIO_Init>
 8005be6:	4a51      	ldr	r2, [pc, #324]	; (8005d2c <HAL_SPI_MspInit+0x1e0>)
 8005be8:	f44f 6380 	mov.w	r3, #1024	; 0x400
 8005bec:	4630      	mov	r0, r6
 8005bee:	60f4      	str	r4, [r6, #12]
 8005bf0:	6274      	str	r4, [r6, #36]	; 0x24
 8005bf2:	6032      	str	r2, [r6, #0]
 8005bf4:	6133      	str	r3, [r6, #16]
 8005bf6:	e9c6 4401 	strd	r4, r4, [r6, #4]
 8005bfa:	e9c6 4405 	strd	r4, r4, [r6, #20]
 8005bfe:	e9c6 4407 	strd	r4, r4, [r6, #28]
 8005c02:	f7fb fc1b 	bl	800143c <HAL_DMA_Init>
 8005c06:	2800      	cmp	r0, #0
 8005c08:	d17e      	bne.n	8005d08 <HAL_SPI_MspInit+0x1bc>
 8005c0a:	4c49      	ldr	r4, [pc, #292]	; (8005d30 <HAL_SPI_MspInit+0x1e4>)
 8005c0c:	2300      	movs	r3, #0
 8005c0e:	2140      	movs	r1, #64	; 0x40
 8005c10:	4f48      	ldr	r7, [pc, #288]	; (8005d34 <HAL_SPI_MspInit+0x1e8>)
 8005c12:	f44f 6280 	mov.w	r2, #1024	; 0x400
 8005c16:	65ae      	str	r6, [r5, #88]	; 0x58
 8005c18:	63b5      	str	r5, [r6, #56]	; 0x38
 8005c1a:	4620      	mov	r0, r4
 8005c1c:	6263      	str	r3, [r4, #36]	; 0x24
 8005c1e:	6027      	str	r7, [r4, #0]
 8005c20:	60a1      	str	r1, [r4, #8]
 8005c22:	6122      	str	r2, [r4, #16]
 8005c24:	6063      	str	r3, [r4, #4]
 8005c26:	60e3      	str	r3, [r4, #12]
 8005c28:	e9c4 3305 	strd	r3, r3, [r4, #20]
 8005c2c:	e9c4 3307 	strd	r3, r3, [r4, #28]
 8005c30:	f7fb fc04 	bl	800143c <HAL_DMA_Init>
 8005c34:	2800      	cmp	r0, #0
 8005c36:	d164      	bne.n	8005d02 <HAL_SPI_MspInit+0x1b6>
 8005c38:	656c      	str	r4, [r5, #84]	; 0x54
 8005c3a:	63a5      	str	r5, [r4, #56]	; 0x38
 8005c3c:	b00d      	add	sp, #52	; 0x34
 8005c3e:	e8bd 83f0 	ldmia.w	sp!, {r4, r5, r6, r7, r8, r9, pc}
 8005c42:	4b36      	ldr	r3, [pc, #216]	; (8005d1c <HAL_SPI_MspInit+0x1d0>)
 8005c44:	2602      	movs	r6, #2
 8005c46:	2104      	movs	r1, #4
 8005c48:	f04f 0c07 	mov.w	ip, #7
 8005c4c:	6c1a      	ldr	r2, [r3, #64]	; 0x40
 8005c4e:	2703      	movs	r7, #3
 8005c50:	4835      	ldr	r0, [pc, #212]	; (8005d28 <HAL_SPI_MspInit+0x1dc>)
 8005c52:	f442 4200 	orr.w	r2, r2, #32768	; 0x8000
 8005c56:	641a      	str	r2, [r3, #64]	; 0x40
 8005c58:	6c1a      	ldr	r2, [r3, #64]	; 0x40
 8005c5a:	f402 4200 	and.w	r2, r2, #32768	; 0x8000
 8005c5e:	9204      	str	r2, [sp, #16]
 8005c60:	9a04      	ldr	r2, [sp, #16]
 8005c62:	6b1a      	ldr	r2, [r3, #48]	; 0x30
 8005c64:	4332      	orrs	r2, r6
 8005c66:	631a      	str	r2, [r3, #48]	; 0x30
 8005c68:	6b1a      	ldr	r2, [r3, #48]	; 0x30
 8005c6a:	4032      	ands	r2, r6
 8005c6c:	9205      	str	r2, [sp, #20]
 8005c6e:	9a05      	ldr	r2, [sp, #20]
 8005c70:	6b1a      	ldr	r2, [r3, #48]	; 0x30
 8005c72:	430a      	orrs	r2, r1
 8005c74:	631a      	str	r2, [r3, #48]	; 0x30
 8005c76:	6b1b      	ldr	r3, [r3, #48]	; 0x30
 8005c78:	9107      	str	r1, [sp, #28]
 8005c7a:	a907      	add	r1, sp, #28
 8005c7c:	f003 0304 	and.w	r3, r3, #4
 8005c80:	9608      	str	r6, [sp, #32]
 8005c82:	f8cd c02c 	str.w	ip, [sp, #44]	; 0x2c
 8005c86:	9306      	str	r3, [sp, #24]
 8005c88:	9b06      	ldr	r3, [sp, #24]
 8005c8a:	970a      	str	r7, [sp, #40]	; 0x28
 8005c8c:	f7fb fd8e 	bl	80017ac <HAL_GPIO_Init>
 8005c90:	f44f 6240 	mov.w	r2, #3072	; 0xc00
 8005c94:	2306      	movs	r3, #6
 8005c96:	a907      	add	r1, sp, #28
 8005c98:	4822      	ldr	r0, [pc, #136]	; (8005d24 <HAL_SPI_MspInit+0x1d8>)
 8005c9a:	9608      	str	r6, [sp, #32]
 8005c9c:	4e26      	ldr	r6, [pc, #152]	; (8005d38 <HAL_SPI_MspInit+0x1ec>)
 8005c9e:	9207      	str	r2, [sp, #28]
 8005ca0:	930b      	str	r3, [sp, #44]	; 0x2c
 8005ca2:	e9cd 4709 	strd	r4, r7, [sp, #36]	; 0x24
 8005ca6:	f7fb fd81 	bl	80017ac <HAL_GPIO_Init>
 8005caa:	4924      	ldr	r1, [pc, #144]	; (8005d3c <HAL_SPI_MspInit+0x1f0>)
 8005cac:	f44f 6280 	mov.w	r2, #1024	; 0x400
 8005cb0:	f44f 3300 	mov.w	r3, #131072	; 0x20000
 8005cb4:	4630      	mov	r0, r6
 8005cb6:	60f4      	str	r4, [r6, #12]
 8005cb8:	61f4      	str	r4, [r6, #28]
 8005cba:	6274      	str	r4, [r6, #36]	; 0x24
 8005cbc:	6031      	str	r1, [r6, #0]
 8005cbe:	6132      	str	r2, [r6, #16]
 8005cc0:	6233      	str	r3, [r6, #32]
 8005cc2:	e9c6 4401 	strd	r4, r4, [r6, #4]
 8005cc6:	e9c6 4405 	strd	r4, r4, [r6, #20]
 8005cca:	f7fb fbb7 	bl	800143c <HAL_DMA_Init>
 8005cce:	b9f0      	cbnz	r0, 8005d0e <HAL_SPI_MspInit+0x1c2>
 8005cd0:	4c1b      	ldr	r4, [pc, #108]	; (8005d40 <HAL_SPI_MspInit+0x1f4>)
 8005cd2:	2300      	movs	r3, #0
 8005cd4:	481b      	ldr	r0, [pc, #108]	; (8005d44 <HAL_SPI_MspInit+0x1f8>)
 8005cd6:	2740      	movs	r7, #64	; 0x40
 8005cd8:	f44f 6180 	mov.w	r1, #1024	; 0x400
 8005cdc:	f44f 3200 	mov.w	r2, #131072	; 0x20000
 8005ce0:	65ae      	str	r6, [r5, #88]	; 0x58
 8005ce2:	63b5      	str	r5, [r6, #56]	; 0x38
 8005ce4:	6020      	str	r0, [r4, #0]
 8005ce6:	4620      	mov	r0, r4
 8005ce8:	6263      	str	r3, [r4, #36]	; 0x24
 8005cea:	60a7      	str	r7, [r4, #8]
 8005cec:	6121      	str	r1, [r4, #16]
 8005cee:	6222      	str	r2, [r4, #32]
 8005cf0:	6063      	str	r3, [r4, #4]
 8005cf2:	60e3      	str	r3, [r4, #12]
 8005cf4:	61e3      	str	r3, [r4, #28]
 8005cf6:	e9c4 3305 	strd	r3, r3, [r4, #20]
 8005cfa:	f7fb fb9f 	bl	800143c <HAL_DMA_Init>
 8005cfe:	2800      	cmp	r0, #0
 8005d00:	d09a      	beq.n	8005c38 <HAL_SPI_MspInit+0xec>
 8005d02:	f7ff fd8b 	bl	800581c <Error_Handler>
 8005d06:	e797      	b.n	8005c38 <HAL_SPI_MspInit+0xec>
 8005d08:	f7ff fd88 	bl	800581c <Error_Handler>
 8005d0c:	e77d      	b.n	8005c0a <HAL_SPI_MspInit+0xbe>
 8005d0e:	f7ff fd85 	bl	800581c <Error_Handler>
 8005d12:	e7dd      	b.n	8005cd0 <HAL_SPI_MspInit+0x184>
 8005d14:	40003800 	.word	0x40003800
 8005d18:	40003c00 	.word	0x40003c00
 8005d1c:	40023800 	.word	0x40023800
 8005d20:	20000a7c 	.word	0x20000a7c
 8005d24:	40020800 	.word	0x40020800
 8005d28:	40020400 	.word	0x40020400
 8005d2c:	40026058 	.word	0x40026058
 8005d30:	20000ba0 	.word	0x20000ba0
 8005d34:	40026070 	.word	0x40026070
 8005d38:	20000c00 	.word	0x20000c00
 8005d3c:	40026040 	.word	0x40026040
 8005d40:	20000b40 	.word	0x20000b40
 8005d44:	400260b8 	.word	0x400260b8

08005d48 <HAL_MspInit>:
 8005d48:	4b0a      	ldr	r3, [pc, #40]	; (8005d74 <HAL_MspInit+0x2c>)
 8005d4a:	b082      	sub	sp, #8
 8005d4c:	6c1a      	ldr	r2, [r3, #64]	; 0x40
 8005d4e:	f042 5280 	orr.w	r2, r2, #268435456	; 0x10000000
 8005d52:	641a      	str	r2, [r3, #64]	; 0x40
 8005d54:	6c1a      	ldr	r2, [r3, #64]	; 0x40
 8005d56:	f002 5280 	and.w	r2, r2, #268435456	; 0x10000000
 8005d5a:	9200      	str	r2, [sp, #0]
 8005d5c:	9a00      	ldr	r2, [sp, #0]
 8005d5e:	6c5a      	ldr	r2, [r3, #68]	; 0x44
 8005d60:	f442 4280 	orr.w	r2, r2, #16384	; 0x4000
 8005d64:	645a      	str	r2, [r3, #68]	; 0x44
 8005d66:	6c5b      	ldr	r3, [r3, #68]	; 0x44
 8005d68:	f403 4380 	and.w	r3, r3, #16384	; 0x4000
 8005d6c:	9301      	str	r3, [sp, #4]
 8005d6e:	9b01      	ldr	r3, [sp, #4]
 8005d70:	b002      	add	sp, #8
 8005d72:	4770      	bx	lr
 8005d74:	40023800 	.word	0x40023800

08005d78 <NMI_Handler>:
 8005d78:	4770      	bx	lr
 8005d7a:	bf00      	nop

08005d7c <HardFault_Handler>:
 8005d7c:	e7fe      	b.n	8005d7c <HardFault_Handler>
 8005d7e:	bf00      	nop

08005d80 <MemManage_Handler>:
 8005d80:	e7fe      	b.n	8005d80 <MemManage_Handler>
 8005d82:	bf00      	nop

08005d84 <BusFault_Handler>:
 8005d84:	e7fe      	b.n	8005d84 <BusFault_Handler>
 8005d86:	bf00      	nop

08005d88 <UsageFault_Handler>:
 8005d88:	e7fe      	b.n	8005d88 <UsageFault_Handler>
 8005d8a:	bf00      	nop

08005d8c <SVC_Handler>:
 8005d8c:	4770      	bx	lr
 8005d8e:	bf00      	nop

08005d90 <DebugMon_Handler>:
 8005d90:	4770      	bx	lr
 8005d92:	bf00      	nop

08005d94 <PendSV_Handler>:
 8005d94:	4770      	bx	lr
 8005d96:	bf00      	nop

08005d98 <SysTick_Handler>:
 8005d98:	f7fb b860 	b.w	8000e5c <HAL_IncTick>

08005d9c <DMA1_Stream0_IRQHandler>:
 8005d9c:	4801      	ldr	r0, [pc, #4]	; (8005da4 <DMA1_Stream0_IRQHandler+0x8>)
 8005d9e:	f7fb bc2f 	b.w	8001600 <HAL_DMA_IRQHandler>
 8005da2:	bf00      	nop
 8005da4:	20000874 	.word	0x20000874

08005da8 <DMA1_Stream1_IRQHandler>:
 8005da8:	4801      	ldr	r0, [pc, #4]	; (8005db0 <DMA1_Stream1_IRQHandler+0x8>)
 8005daa:	f7fb bc29 	b.w	8001600 <HAL_DMA_IRQHandler>
 8005dae:	bf00      	nop
 8005db0:	200007c8 	.word	0x200007c8

08005db4 <DMA1_Stream2_IRQHandler>:
 8005db4:	4801      	ldr	r0, [pc, #4]	; (8005dbc <DMA1_Stream2_IRQHandler+0x8>)
 8005db6:	f7fb bc23 	b.w	8001600 <HAL_DMA_IRQHandler>
 8005dba:	bf00      	nop
 8005dbc:	20000c00 	.word	0x20000c00

08005dc0 <DMA1_Stream3_IRQHandler>:
 8005dc0:	4801      	ldr	r0, [pc, #4]	; (8005dc8 <DMA1_Stream3_IRQHandler+0x8>)
 8005dc2:	f7fb bc1d 	b.w	8001600 <HAL_DMA_IRQHandler>
 8005dc6:	bf00      	nop
 8005dc8:	20000a7c 	.word	0x20000a7c

08005dcc <DMA1_Stream4_IRQHandler>:
 8005dcc:	4801      	ldr	r0, [pc, #4]	; (8005dd4 <DMA1_Stream4_IRQHandler+0x8>)
 8005dce:	f7fb bc17 	b.w	8001600 <HAL_DMA_IRQHandler>
 8005dd2:	bf00      	nop
 8005dd4:	20000ba0 	.word	0x20000ba0

08005dd8 <DMA1_Stream5_IRQHandler>:
 8005dd8:	4801      	ldr	r0, [pc, #4]	; (8005de0 <DMA1_Stream5_IRQHandler+0x8>)
 8005dda:	f7fb bc11 	b.w	8001600 <HAL_DMA_IRQHandler>
 8005dde:	bf00      	nop
 8005de0:	20000d20 	.word	0x20000d20

08005de4 <DMA1_Stream6_IRQHandler>:
 8005de4:	4801      	ldr	r0, [pc, #4]	; (8005dec <DMA1_Stream6_IRQHandler+0x8>)
 8005de6:	f7fb bc0b 	b.w	8001600 <HAL_DMA_IRQHandler>
 8005dea:	bf00      	nop
 8005dec:	200002b4 	.word	0x200002b4

08005df0 <DMA1_Stream7_IRQHandler>:
 8005df0:	4801      	ldr	r0, [pc, #4]	; (8005df8 <DMA1_Stream7_IRQHandler+0x8>)
 8005df2:	f7fb bc05 	b.w	8001600 <HAL_DMA_IRQHandler>
 8005df6:	bf00      	nop
 8005df8:	20000b40 	.word	0x20000b40

08005dfc <DMA2_Stream0_IRQHandler>:
 8005dfc:	4801      	ldr	r0, [pc, #4]	; (8005e04 <DMA2_Stream0_IRQHandler+0x8>)
 8005dfe:	f7fb bbff 	b.w	8001600 <HAL_DMA_IRQHandler>
 8005e02:	bf00      	nop
 8005e04:	20000240 	.word	0x20000240

08005e08 <DMA2_Stream2_IRQHandler>:
 8005e08:	4801      	ldr	r0, [pc, #4]	; (8005e10 <DMA2_Stream2_IRQHandler+0x8>)
 8005e0a:	f7fb bbf9 	b.w	8001600 <HAL_DMA_IRQHandler>
 8005e0e:	bf00      	nop
 8005e10:	20000de0 	.word	0x20000de0

08005e14 <DMA2_Stream3_IRQHandler>:
 8005e14:	4801      	ldr	r0, [pc, #4]	; (8005e1c <DMA2_Stream3_IRQHandler+0x8>)
 8005e16:	f7fb bbf3 	b.w	8001600 <HAL_DMA_IRQHandler>
 8005e1a:	bf00      	nop
 8005e1c:	20000958 	.word	0x20000958

08005e20 <DMA2_Stream6_IRQHandler>:
 8005e20:	4801      	ldr	r0, [pc, #4]	; (8005e28 <DMA2_Stream6_IRQHandler+0x8>)
 8005e22:	f7fb bbed 	b.w	8001600 <HAL_DMA_IRQHandler>
 8005e26:	bf00      	nop
 8005e28:	200009b8 	.word	0x200009b8

08005e2c <DMA2_Stream7_IRQHandler>:
 8005e2c:	4801      	ldr	r0, [pc, #4]	; (8005e34 <DMA2_Stream7_IRQHandler+0x8>)
 8005e2e:	f7fb bbe7 	b.w	8001600 <HAL_DMA_IRQHandler>
 8005e32:	bf00      	nop
 8005e34:	20000d80 	.word	0x20000d80

08005e38 <_sbrk>:
 8005e38:	4a0c      	ldr	r2, [pc, #48]	; (8005e6c <_sbrk+0x34>)
 8005e3a:	b508      	push	{r3, lr}
 8005e3c:	6813      	ldr	r3, [r2, #0]
 8005e3e:	b133      	cbz	r3, 8005e4e <_sbrk+0x16>
 8005e40:	4418      	add	r0, r3
 8005e42:	4669      	mov	r1, sp
 8005e44:	4288      	cmp	r0, r1
 8005e46:	d809      	bhi.n	8005e5c <_sbrk+0x24>
 8005e48:	6010      	str	r0, [r2, #0]
 8005e4a:	4618      	mov	r0, r3
 8005e4c:	bd08      	pop	{r3, pc}
 8005e4e:	4908      	ldr	r1, [pc, #32]	; (8005e70 <_sbrk+0x38>)
 8005e50:	460b      	mov	r3, r1
 8005e52:	6011      	str	r1, [r2, #0]
 8005e54:	4669      	mov	r1, sp
 8005e56:	4418      	add	r0, r3
 8005e58:	4288      	cmp	r0, r1
 8005e5a:	d9f5      	bls.n	8005e48 <_sbrk+0x10>
 8005e5c:	f000 fb16 	bl	800648c <__errno>
 8005e60:	220c      	movs	r2, #12
 8005e62:	f04f 33ff 	mov.w	r3, #4294967295
 8005e66:	6002      	str	r2, [r0, #0]
 8005e68:	4618      	mov	r0, r3
 8005e6a:	bd08      	pop	{r3, pc}
 8005e6c:	200001e8 	.word	0x200001e8
 8005e70:	20000f48 	.word	0x20000f48

08005e74 <SystemInit>:
 8005e74:	4a0f      	ldr	r2, [pc, #60]	; (8005eb4 <SystemInit+0x40>)
 8005e76:	4b10      	ldr	r3, [pc, #64]	; (8005eb8 <SystemInit+0x44>)
 8005e78:	f8d2 0088 	ldr.w	r0, [r2, #136]	; 0x88
 8005e7c:	490f      	ldr	r1, [pc, #60]	; (8005ebc <SystemInit+0x48>)
 8005e7e:	f440 0070 	orr.w	r0, r0, #15728640	; 0xf00000
 8005e82:	b470      	push	{r4, r5, r6}
 8005e84:	f8c2 0088 	str.w	r0, [r2, #136]	; 0x88
 8005e88:	2400      	movs	r4, #0
 8005e8a:	6818      	ldr	r0, [r3, #0]
 8005e8c:	f04f 6500 	mov.w	r5, #134217728	; 0x8000000
 8005e90:	4e0b      	ldr	r6, [pc, #44]	; (8005ec0 <SystemInit+0x4c>)
 8005e92:	f040 0001 	orr.w	r0, r0, #1
 8005e96:	6018      	str	r0, [r3, #0]
 8005e98:	609c      	str	r4, [r3, #8]
 8005e9a:	6818      	ldr	r0, [r3, #0]
 8005e9c:	4001      	ands	r1, r0
 8005e9e:	6019      	str	r1, [r3, #0]
 8005ea0:	605e      	str	r6, [r3, #4]
 8005ea2:	6819      	ldr	r1, [r3, #0]
 8005ea4:	f421 2180 	bic.w	r1, r1, #262144	; 0x40000
 8005ea8:	6019      	str	r1, [r3, #0]
 8005eaa:	60dc      	str	r4, [r3, #12]
 8005eac:	6095      	str	r5, [r2, #8]
 8005eae:	bc70      	pop	{r4, r5, r6}
 8005eb0:	4770      	bx	lr
 8005eb2:	bf00      	nop
 8005eb4:	e000ed00 	.word	0xe000ed00
 8005eb8:	40023800 	.word	0x40023800
 8005ebc:	fef6ffff 	.word	0xfef6ffff
 8005ec0:	24003010 	.word	0x24003010

08005ec4 <MX_TIM2_Init>:
 8005ec4:	b570      	push	{r4, r5, r6, lr}
 8005ec6:	f04f 4080 	mov.w	r0, #1073741824	; 0x40000000
 8005eca:	4c5a      	ldr	r4, [pc, #360]	; (8006034 <MX_TIM2_Init+0x170>)
 8005ecc:	210c      	movs	r1, #12
 8005ece:	2300      	movs	r3, #0
 8005ed0:	b096      	sub	sp, #88	; 0x58
 8005ed2:	f44f 5280 	mov.w	r2, #4096	; 0x1000
 8005ed6:	6123      	str	r3, [r4, #16]
 8005ed8:	9306      	str	r3, [sp, #24]
 8005eda:	9303      	str	r3, [sp, #12]
 8005edc:	930f      	str	r3, [sp, #60]	; 0x3c
 8005ede:	61a3      	str	r3, [r4, #24]
 8005ee0:	9309      	str	r3, [sp, #36]	; 0x24
 8005ee2:	e9c4 0100 	strd	r0, r1, [r4]
 8005ee6:	4620      	mov	r0, r4
 8005ee8:	e9c4 3202 	strd	r3, r2, [r4, #8]
 8005eec:	e9cd 3307 	strd	r3, r3, [sp, #28]
 8005ef0:	e9cd 3304 	strd	r3, r3, [sp, #16]
 8005ef4:	e9cd 3310 	strd	r3, r3, [sp, #64]	; 0x40
 8005ef8:	e9cd 3312 	strd	r3, r3, [sp, #72]	; 0x48
 8005efc:	e9cd 3314 	strd	r3, r3, [sp, #80]	; 0x50
 8005f00:	f7fd fb8a 	bl	8003618 <HAL_TIM_Base_Init>
 8005f04:	2800      	cmp	r0, #0
 8005f06:	d157      	bne.n	8005fb8 <MX_TIM2_Init+0xf4>
 8005f08:	f44f 5380 	mov.w	r3, #4096	; 0x1000
 8005f0c:	a906      	add	r1, sp, #24
 8005f0e:	4849      	ldr	r0, [pc, #292]	; (8006034 <MX_TIM2_Init+0x170>)
 8005f10:	9306      	str	r3, [sp, #24]
 8005f12:	f7fd fe5f 	bl	8003bd4 <HAL_TIM_ConfigClockSource>
 8005f16:	2800      	cmp	r0, #0
 8005f18:	d14b      	bne.n	8005fb2 <MX_TIM2_Init+0xee>
 8005f1a:	4846      	ldr	r0, [pc, #280]	; (8006034 <MX_TIM2_Init+0x170>)
 8005f1c:	f7fd fc18 	bl	8003750 <HAL_TIM_PWM_Init>
 8005f20:	2800      	cmp	r0, #0
 8005f22:	d143      	bne.n	8005fac <MX_TIM2_Init+0xe8>
 8005f24:	2300      	movs	r3, #0
 8005f26:	a903      	add	r1, sp, #12
 8005f28:	4842      	ldr	r0, [pc, #264]	; (8006034 <MX_TIM2_Init+0x170>)
 8005f2a:	9303      	str	r3, [sp, #12]
 8005f2c:	9305      	str	r3, [sp, #20]
 8005f2e:	f7fd fef9 	bl	8003d24 <HAL_TIMEx_MasterConfigSynchronization>
 8005f32:	2800      	cmp	r0, #0
 8005f34:	d137      	bne.n	8005fa6 <MX_TIM2_Init+0xe2>
 8005f36:	2300      	movs	r3, #0
 8005f38:	2560      	movs	r5, #96	; 0x60
 8005f3a:	a90f      	add	r1, sp, #60	; 0x3c
 8005f3c:	483d      	ldr	r0, [pc, #244]	; (8006034 <MX_TIM2_Init+0x170>)
 8005f3e:	461a      	mov	r2, r3
 8005f40:	9310      	str	r3, [sp, #64]	; 0x40
 8005f42:	9311      	str	r3, [sp, #68]	; 0x44
 8005f44:	9313      	str	r3, [sp, #76]	; 0x4c
 8005f46:	950f      	str	r5, [sp, #60]	; 0x3c
 8005f48:	f7fd fcb6 	bl	80038b8 <HAL_TIM_PWM_ConfigChannel>
 8005f4c:	bb40      	cbnz	r0, 8005fa0 <MX_TIM2_Init+0xdc>
 8005f4e:	2204      	movs	r2, #4
 8005f50:	a90f      	add	r1, sp, #60	; 0x3c
 8005f52:	4838      	ldr	r0, [pc, #224]	; (8006034 <MX_TIM2_Init+0x170>)
 8005f54:	f7fd fcb0 	bl	80038b8 <HAL_TIM_PWM_ConfigChannel>
 8005f58:	b9f8      	cbnz	r0, 8005f9a <MX_TIM2_Init+0xd6>
 8005f5a:	2208      	movs	r2, #8
 8005f5c:	a90f      	add	r1, sp, #60	; 0x3c
 8005f5e:	4835      	ldr	r0, [pc, #212]	; (8006034 <MX_TIM2_Init+0x170>)
 8005f60:	f7fd fcaa 	bl	80038b8 <HAL_TIM_PWM_ConfigChannel>
 8005f64:	b9b0      	cbnz	r0, 8005f94 <MX_TIM2_Init+0xd0>
 8005f66:	a90f      	add	r1, sp, #60	; 0x3c
 8005f68:	220c      	movs	r2, #12
 8005f6a:	4832      	ldr	r0, [pc, #200]	; (8006034 <MX_TIM2_Init+0x170>)
 8005f6c:	f7fd fca4 	bl	80038b8 <HAL_TIM_PWM_ConfigChannel>
 8005f70:	b108      	cbz	r0, 8005f76 <MX_TIM2_Init+0xb2>
 8005f72:	f7ff fc53 	bl	800581c <Error_Handler>
 8005f76:	6823      	ldr	r3, [r4, #0]
 8005f78:	2400      	movs	r4, #0
 8005f7a:	f1b3 4f80 	cmp.w	r3, #1073741824	; 0x40000000
 8005f7e:	940e      	str	r4, [sp, #56]	; 0x38
 8005f80:	e9cd 440a 	strd	r4, r4, [sp, #40]	; 0x28
 8005f84:	e9cd 440c 	strd	r4, r4, [sp, #48]	; 0x30
 8005f88:	d02c      	beq.n	8005fe4 <MX_TIM2_Init+0x120>
 8005f8a:	4a2b      	ldr	r2, [pc, #172]	; (8006038 <MX_TIM2_Init+0x174>)
 8005f8c:	4293      	cmp	r3, r2
 8005f8e:	d016      	beq.n	8005fbe <MX_TIM2_Init+0xfa>
 8005f90:	b016      	add	sp, #88	; 0x58
 8005f92:	bd70      	pop	{r4, r5, r6, pc}
 8005f94:	f7ff fc42 	bl	800581c <Error_Handler>
 8005f98:	e7e5      	b.n	8005f66 <MX_TIM2_Init+0xa2>
 8005f9a:	f7ff fc3f 	bl	800581c <Error_Handler>
 8005f9e:	e7dc      	b.n	8005f5a <MX_TIM2_Init+0x96>
 8005fa0:	f7ff fc3c 	bl	800581c <Error_Handler>
 8005fa4:	e7d3      	b.n	8005f4e <MX_TIM2_Init+0x8a>
 8005fa6:	f7ff fc39 	bl	800581c <Error_Handler>
 8005faa:	e7c4      	b.n	8005f36 <MX_TIM2_Init+0x72>
 8005fac:	f7ff fc36 	bl	800581c <Error_Handler>
 8005fb0:	e7b8      	b.n	8005f24 <MX_TIM2_Init+0x60>
 8005fb2:	f7ff fc33 	bl	800581c <Error_Handler>
 8005fb6:	e7b0      	b.n	8005f1a <MX_TIM2_Init+0x56>
 8005fb8:	f7ff fc30 	bl	800581c <Error_Handler>
 8005fbc:	e7a4      	b.n	8005f08 <MX_TIM2_Init+0x44>
 8005fbe:	4b1f      	ldr	r3, [pc, #124]	; (800603c <MX_TIM2_Init+0x178>)
 8005fc0:	2402      	movs	r4, #2
 8005fc2:	2531      	movs	r5, #49	; 0x31
 8005fc4:	a90a      	add	r1, sp, #40	; 0x28
 8005fc6:	6b1a      	ldr	r2, [r3, #48]	; 0x30
 8005fc8:	481d      	ldr	r0, [pc, #116]	; (8006040 <MX_TIM2_Init+0x17c>)
 8005fca:	4322      	orrs	r2, r4
 8005fcc:	631a      	str	r2, [r3, #48]	; 0x30
 8005fce:	6b1b      	ldr	r3, [r3, #48]	; 0x30
 8005fd0:	950a      	str	r5, [sp, #40]	; 0x28
 8005fd2:	4023      	ands	r3, r4
 8005fd4:	940b      	str	r4, [sp, #44]	; 0x2c
 8005fd6:	940e      	str	r4, [sp, #56]	; 0x38
 8005fd8:	9302      	str	r3, [sp, #8]
 8005fda:	9b02      	ldr	r3, [sp, #8]
 8005fdc:	f7fb fbe6 	bl	80017ac <HAL_GPIO_Init>
 8005fe0:	b016      	add	sp, #88	; 0x58
 8005fe2:	bd70      	pop	{r4, r5, r6, pc}
 8005fe4:	f503 330e 	add.w	r3, r3, #145408	; 0x23800
 8005fe8:	2501      	movs	r5, #1
 8005fea:	2602      	movs	r6, #2
 8005fec:	2003      	movs	r0, #3
 8005fee:	6b1a      	ldr	r2, [r3, #48]	; 0x30
 8005ff0:	a90a      	add	r1, sp, #40	; 0x28
 8005ff2:	432a      	orrs	r2, r5
 8005ff4:	631a      	str	r2, [r3, #48]	; 0x30
 8005ff6:	6b1a      	ldr	r2, [r3, #48]	; 0x30
 8005ff8:	402a      	ands	r2, r5
 8005ffa:	9200      	str	r2, [sp, #0]
 8005ffc:	9a00      	ldr	r2, [sp, #0]
 8005ffe:	6b1a      	ldr	r2, [r3, #48]	; 0x30
 8006000:	4332      	orrs	r2, r6
 8006002:	631a      	str	r2, [r3, #48]	; 0x30
 8006004:	6b1b      	ldr	r3, [r3, #48]	; 0x30
 8006006:	900a      	str	r0, [sp, #40]	; 0x28
 8006008:	4033      	ands	r3, r6
 800600a:	480e      	ldr	r0, [pc, #56]	; (8006044 <MX_TIM2_Init+0x180>)
 800600c:	960b      	str	r6, [sp, #44]	; 0x2c
 800600e:	9301      	str	r3, [sp, #4]
 8006010:	9b01      	ldr	r3, [sp, #4]
 8006012:	950e      	str	r5, [sp, #56]	; 0x38
 8006014:	f7fb fbca 	bl	80017ac <HAL_GPIO_Init>
 8006018:	f44f 6340 	mov.w	r3, #3072	; 0xc00
 800601c:	a90a      	add	r1, sp, #40	; 0x28
 800601e:	4808      	ldr	r0, [pc, #32]	; (8006040 <MX_TIM2_Init+0x17c>)
 8006020:	960b      	str	r6, [sp, #44]	; 0x2c
 8006022:	950e      	str	r5, [sp, #56]	; 0x38
 8006024:	930a      	str	r3, [sp, #40]	; 0x28
 8006026:	e9cd 440c 	strd	r4, r4, [sp, #48]	; 0x30
 800602a:	f7fb fbbf 	bl	80017ac <HAL_GPIO_Init>
 800602e:	b016      	add	sp, #88	; 0x58
 8006030:	bd70      	pop	{r4, r5, r6, pc}
 8006032:	bf00      	nop
 8006034:	20000ce0 	.word	0x20000ce0
 8006038:	40000400 	.word	0x40000400
 800603c:	40023800 	.word	0x40023800
 8006040:	40020400 	.word	0x40020400
 8006044:	40020000 	.word	0x40020000

08006048 <MX_TIM3_Init>:
 8006048:	b570      	push	{r4, r5, r6, lr}
 800604a:	4c48      	ldr	r4, [pc, #288]	; (800616c <MX_TIM3_Init+0x124>)
 800604c:	2300      	movs	r3, #0
 800604e:	b092      	sub	sp, #72	; 0x48
 8006050:	4a47      	ldr	r2, [pc, #284]	; (8006170 <MX_TIM3_Init+0x128>)
 8006052:	4620      	mov	r0, r4
 8006054:	6123      	str	r3, [r4, #16]
 8006056:	9303      	str	r3, [sp, #12]
 8006058:	930b      	str	r3, [sp, #44]	; 0x2c
 800605a:	61a3      	str	r3, [r4, #24]
 800605c:	e9c4 2300 	strd	r2, r3, [r4]
 8006060:	e9c4 3302 	strd	r3, r3, [r4, #8]
 8006064:	e9cd 3304 	strd	r3, r3, [sp, #16]
 8006068:	e9cd 330c 	strd	r3, r3, [sp, #48]	; 0x30
 800606c:	e9cd 330e 	strd	r3, r3, [sp, #56]	; 0x38
 8006070:	e9cd 3310 	strd	r3, r3, [sp, #64]	; 0x40
 8006074:	f7fd fb6c 	bl	8003750 <HAL_TIM_PWM_Init>
 8006078:	2800      	cmp	r0, #0
 800607a:	d139      	bne.n	80060f0 <MX_TIM3_Init+0xa8>
 800607c:	2300      	movs	r3, #0
 800607e:	a903      	add	r1, sp, #12
 8006080:	483a      	ldr	r0, [pc, #232]	; (800616c <MX_TIM3_Init+0x124>)
 8006082:	9303      	str	r3, [sp, #12]
 8006084:	9305      	str	r3, [sp, #20]
 8006086:	f7fd fe4d 	bl	8003d24 <HAL_TIMEx_MasterConfigSynchronization>
 800608a:	bb70      	cbnz	r0, 80060ea <MX_TIM3_Init+0xa2>
 800608c:	2300      	movs	r3, #0
 800608e:	2560      	movs	r5, #96	; 0x60
 8006090:	a90b      	add	r1, sp, #44	; 0x2c
 8006092:	4836      	ldr	r0, [pc, #216]	; (800616c <MX_TIM3_Init+0x124>)
 8006094:	461a      	mov	r2, r3
 8006096:	930c      	str	r3, [sp, #48]	; 0x30
 8006098:	930d      	str	r3, [sp, #52]	; 0x34
 800609a:	930f      	str	r3, [sp, #60]	; 0x3c
 800609c:	950b      	str	r5, [sp, #44]	; 0x2c
 800609e:	f7fd fc0b 	bl	80038b8 <HAL_TIM_PWM_ConfigChannel>
 80060a2:	b9f8      	cbnz	r0, 80060e4 <MX_TIM3_Init+0x9c>
 80060a4:	2204      	movs	r2, #4
 80060a6:	a90b      	add	r1, sp, #44	; 0x2c
 80060a8:	4830      	ldr	r0, [pc, #192]	; (800616c <MX_TIM3_Init+0x124>)
 80060aa:	f7fd fc05 	bl	80038b8 <HAL_TIM_PWM_ConfigChannel>
 80060ae:	b9b0      	cbnz	r0, 80060de <MX_TIM3_Init+0x96>
 80060b0:	a90b      	add	r1, sp, #44	; 0x2c
 80060b2:	2208      	movs	r2, #8
 80060b4:	482d      	ldr	r0, [pc, #180]	; (800616c <MX_TIM3_Init+0x124>)
 80060b6:	f7fd fbff 	bl	80038b8 <HAL_TIM_PWM_ConfigChannel>
 80060ba:	b108      	cbz	r0, 80060c0 <MX_TIM3_Init+0x78>
 80060bc:	f7ff fbae 	bl	800581c <Error_Handler>
 80060c0:	6823      	ldr	r3, [r4, #0]
 80060c2:	2400      	movs	r4, #0
 80060c4:	f1b3 4f80 	cmp.w	r3, #1073741824	; 0x40000000
 80060c8:	940a      	str	r4, [sp, #40]	; 0x28
 80060ca:	e9cd 4406 	strd	r4, r4, [sp, #24]
 80060ce:	e9cd 4408 	strd	r4, r4, [sp, #32]
 80060d2:	d023      	beq.n	800611c <MX_TIM3_Init+0xd4>
 80060d4:	4a26      	ldr	r2, [pc, #152]	; (8006170 <MX_TIM3_Init+0x128>)
 80060d6:	4293      	cmp	r3, r2
 80060d8:	d00d      	beq.n	80060f6 <MX_TIM3_Init+0xae>
 80060da:	b012      	add	sp, #72	; 0x48
 80060dc:	bd70      	pop	{r4, r5, r6, pc}
 80060de:	f7ff fb9d 	bl	800581c <Error_Handler>
 80060e2:	e7e5      	b.n	80060b0 <MX_TIM3_Init+0x68>
 80060e4:	f7ff fb9a 	bl	800581c <Error_Handler>
 80060e8:	e7dc      	b.n	80060a4 <MX_TIM3_Init+0x5c>
 80060ea:	f7ff fb97 	bl	800581c <Error_Handler>
 80060ee:	e7cd      	b.n	800608c <MX_TIM3_Init+0x44>
 80060f0:	f7ff fb94 	bl	800581c <Error_Handler>
 80060f4:	e7c2      	b.n	800607c <MX_TIM3_Init+0x34>
 80060f6:	4b1f      	ldr	r3, [pc, #124]	; (8006174 <MX_TIM3_Init+0x12c>)
 80060f8:	2402      	movs	r4, #2
 80060fa:	2531      	movs	r5, #49	; 0x31
 80060fc:	a906      	add	r1, sp, #24
 80060fe:	6b1a      	ldr	r2, [r3, #48]	; 0x30
 8006100:	481d      	ldr	r0, [pc, #116]	; (8006178 <MX_TIM3_Init+0x130>)
 8006102:	4322      	orrs	r2, r4
 8006104:	631a      	str	r2, [r3, #48]	; 0x30
 8006106:	6b1b      	ldr	r3, [r3, #48]	; 0x30
 8006108:	9506      	str	r5, [sp, #24]
 800610a:	4023      	ands	r3, r4
 800610c:	9407      	str	r4, [sp, #28]
 800610e:	940a      	str	r4, [sp, #40]	; 0x28
 8006110:	9302      	str	r3, [sp, #8]
 8006112:	9b02      	ldr	r3, [sp, #8]
 8006114:	f7fb fb4a 	bl	80017ac <HAL_GPIO_Init>
 8006118:	b012      	add	sp, #72	; 0x48
 800611a:	bd70      	pop	{r4, r5, r6, pc}
 800611c:	f503 330e 	add.w	r3, r3, #145408	; 0x23800
 8006120:	2501      	movs	r5, #1
 8006122:	2602      	movs	r6, #2
 8006124:	2003      	movs	r0, #3
 8006126:	6b1a      	ldr	r2, [r3, #48]	; 0x30
 8006128:	a906      	add	r1, sp, #24
 800612a:	432a      	orrs	r2, r5
 800612c:	631a      	str	r2, [r3, #48]	; 0x30
 800612e:	6b1a      	ldr	r2, [r3, #48]	; 0x30
 8006130:	402a      	ands	r2, r5
 8006132:	9200      	str	r2, [sp, #0]
 8006134:	9a00      	ldr	r2, [sp, #0]
 8006136:	6b1a      	ldr	r2, [r3, #48]	; 0x30
 8006138:	4332      	orrs	r2, r6
 800613a:	631a      	str	r2, [r3, #48]	; 0x30
 800613c:	6b1b      	ldr	r3, [r3, #48]	; 0x30
 800613e:	9006      	str	r0, [sp, #24]
 8006140:	4033      	ands	r3, r6
 8006142:	480e      	ldr	r0, [pc, #56]	; (800617c <MX_TIM3_Init+0x134>)
 8006144:	9607      	str	r6, [sp, #28]
 8006146:	9301      	str	r3, [sp, #4]
 8006148:	9b01      	ldr	r3, [sp, #4]
 800614a:	950a      	str	r5, [sp, #40]	; 0x28
 800614c:	f7fb fb2e 	bl	80017ac <HAL_GPIO_Init>
 8006150:	f44f 6340 	mov.w	r3, #3072	; 0xc00
 8006154:	a906      	add	r1, sp, #24
 8006156:	4808      	ldr	r0, [pc, #32]	; (8006178 <MX_TIM3_Init+0x130>)
 8006158:	9607      	str	r6, [sp, #28]
 800615a:	950a      	str	r5, [sp, #40]	; 0x28
 800615c:	9306      	str	r3, [sp, #24]
 800615e:	e9cd 4408 	strd	r4, r4, [sp, #32]
 8006162:	f7fb fb23 	bl	80017ac <HAL_GPIO_Init>
 8006166:	b012      	add	sp, #72	; 0x48
 8006168:	bd70      	pop	{r4, r5, r6, pc}
 800616a:	bf00      	nop
 800616c:	20000c60 	.word	0x20000c60
 8006170:	40000400 	.word	0x40000400
 8006174:	40023800 	.word	0x40023800
 8006178:	40020400 	.word	0x40020400
 800617c:	40020000 	.word	0x40020000

08006180 <MX_TIM6_Init>:
 8006180:	4a10      	ldr	r2, [pc, #64]	; (80061c4 <MX_TIM6_Init+0x44>)
 8006182:	2300      	movs	r3, #0
 8006184:	210a      	movs	r1, #10
 8006186:	4610      	mov	r0, r2
 8006188:	b510      	push	{r4, lr}
 800618a:	4c0f      	ldr	r4, [pc, #60]	; (80061c8 <MX_TIM6_Init+0x48>)
 800618c:	b084      	sub	sp, #16
 800618e:	60d1      	str	r1, [r2, #12]
 8006190:	6014      	str	r4, [r2, #0]
 8006192:	6053      	str	r3, [r2, #4]
 8006194:	9301      	str	r3, [sp, #4]
 8006196:	6093      	str	r3, [r2, #8]
 8006198:	6193      	str	r3, [r2, #24]
 800619a:	e9cd 3302 	strd	r3, r3, [sp, #8]
 800619e:	f7fd fa3b 	bl	8003618 <HAL_TIM_Base_Init>
 80061a2:	b960      	cbnz	r0, 80061be <MX_TIM6_Init+0x3e>
 80061a4:	2220      	movs	r2, #32
 80061a6:	2300      	movs	r3, #0
 80061a8:	a901      	add	r1, sp, #4
 80061aa:	4806      	ldr	r0, [pc, #24]	; (80061c4 <MX_TIM6_Init+0x44>)
 80061ac:	9201      	str	r2, [sp, #4]
 80061ae:	9303      	str	r3, [sp, #12]
 80061b0:	f7fd fdb8 	bl	8003d24 <HAL_TIMEx_MasterConfigSynchronization>
 80061b4:	b108      	cbz	r0, 80061ba <MX_TIM6_Init+0x3a>
 80061b6:	f7ff fb31 	bl	800581c <Error_Handler>
 80061ba:	b004      	add	sp, #16
 80061bc:	bd10      	pop	{r4, pc}
 80061be:	f7ff fb2d 	bl	800581c <Error_Handler>
 80061c2:	e7ef      	b.n	80061a4 <MX_TIM6_Init+0x24>
 80061c4:	20000ca0 	.word	0x20000ca0
 80061c8:	40001000 	.word	0x40001000

080061cc <HAL_TIM_Base_MspInit>:
 80061cc:	6803      	ldr	r3, [r0, #0]
 80061ce:	b082      	sub	sp, #8
 80061d0:	f1b3 4f80 	cmp.w	r3, #1073741824	; 0x40000000
 80061d4:	d010      	beq.n	80061f8 <HAL_TIM_Base_MspInit+0x2c>
 80061d6:	4a0f      	ldr	r2, [pc, #60]	; (8006214 <HAL_TIM_Base_MspInit+0x48>)
 80061d8:	4293      	cmp	r3, r2
 80061da:	d001      	beq.n	80061e0 <HAL_TIM_Base_MspInit+0x14>
 80061dc:	b002      	add	sp, #8
 80061de:	4770      	bx	lr
 80061e0:	4b0d      	ldr	r3, [pc, #52]	; (8006218 <HAL_TIM_Base_MspInit+0x4c>)
 80061e2:	6c1a      	ldr	r2, [r3, #64]	; 0x40
 80061e4:	f042 0210 	orr.w	r2, r2, #16
 80061e8:	641a      	str	r2, [r3, #64]	; 0x40
 80061ea:	6c1b      	ldr	r3, [r3, #64]	; 0x40
 80061ec:	f003 0310 	and.w	r3, r3, #16
 80061f0:	9301      	str	r3, [sp, #4]
 80061f2:	9b01      	ldr	r3, [sp, #4]
 80061f4:	b002      	add	sp, #8
 80061f6:	4770      	bx	lr
 80061f8:	f503 330e 	add.w	r3, r3, #145408	; 0x23800
 80061fc:	6c1a      	ldr	r2, [r3, #64]	; 0x40
 80061fe:	f042 0201 	orr.w	r2, r2, #1
 8006202:	641a      	str	r2, [r3, #64]	; 0x40
 8006204:	6c1b      	ldr	r3, [r3, #64]	; 0x40
 8006206:	f003 0301 	and.w	r3, r3, #1
 800620a:	9300      	str	r3, [sp, #0]
 800620c:	9b00      	ldr	r3, [sp, #0]
 800620e:	b002      	add	sp, #8
 8006210:	4770      	bx	lr
 8006212:	bf00      	nop
 8006214:	40001000 	.word	0x40001000
 8006218:	40023800 	.word	0x40023800

0800621c <HAL_TIM_PWM_MspInit>:
 800621c:	6802      	ldr	r2, [r0, #0]
 800621e:	4b09      	ldr	r3, [pc, #36]	; (8006244 <HAL_TIM_PWM_MspInit+0x28>)
 8006220:	429a      	cmp	r2, r3
 8006222:	d000      	beq.n	8006226 <HAL_TIM_PWM_MspInit+0xa>
 8006224:	4770      	bx	lr
 8006226:	f503 330d 	add.w	r3, r3, #144384	; 0x23400
 800622a:	b082      	sub	sp, #8
 800622c:	6c1a      	ldr	r2, [r3, #64]	; 0x40
 800622e:	f042 0202 	orr.w	r2, r2, #2
 8006232:	641a      	str	r2, [r3, #64]	; 0x40
 8006234:	6c1b      	ldr	r3, [r3, #64]	; 0x40
 8006236:	f003 0302 	and.w	r3, r3, #2
 800623a:	9301      	str	r3, [sp, #4]
 800623c:	9b01      	ldr	r3, [sp, #4]
 800623e:	b002      	add	sp, #8
 8006240:	4770      	bx	lr
 8006242:	bf00      	nop
 8006244:	40000400 	.word	0x40000400

08006248 <MX_USART1_UART_Init>:
 8006248:	b538      	push	{r3, r4, r5, lr}
 800624a:	4b0c      	ldr	r3, [pc, #48]	; (800627c <MX_USART1_UART_Init+0x34>)
 800624c:	2200      	movs	r2, #0
 800624e:	f44f 34e1 	mov.w	r4, #115200	; 0x1c200
 8006252:	4d0b      	ldr	r5, [pc, #44]	; (8006280 <MX_USART1_UART_Init+0x38>)
 8006254:	210c      	movs	r1, #12
 8006256:	4618      	mov	r0, r3
 8006258:	611a      	str	r2, [r3, #16]
 800625a:	6159      	str	r1, [r3, #20]
 800625c:	e9c3 5400 	strd	r5, r4, [r3]
 8006260:	e9c3 2202 	strd	r2, r2, [r3, #8]
 8006264:	e9c3 2206 	strd	r2, r2, [r3, #24]
 8006268:	e9c3 2208 	strd	r2, r2, [r3, #32]
 800626c:	f7fd fe6e 	bl	8003f4c <HAL_UART_Init>
 8006270:	b900      	cbnz	r0, 8006274 <MX_USART1_UART_Init+0x2c>
 8006272:	bd38      	pop	{r3, r4, r5, pc}
 8006274:	e8bd 4038 	ldmia.w	sp!, {r3, r4, r5, lr}
 8006278:	f7ff bad0 	b.w	800581c <Error_Handler>
 800627c:	20000e40 	.word	0x20000e40
 8006280:	40011000 	.word	0x40011000

08006284 <MX_USART2_UART_Init>:
 8006284:	b538      	push	{r3, r4, r5, lr}
 8006286:	4b0c      	ldr	r3, [pc, #48]	; (80062b8 <MX_USART2_UART_Init+0x34>)
 8006288:	2200      	movs	r2, #0
 800628a:	f44f 34e1 	mov.w	r4, #115200	; 0x1c200
 800628e:	4d0b      	ldr	r5, [pc, #44]	; (80062bc <MX_USART2_UART_Init+0x38>)
 8006290:	210c      	movs	r1, #12
 8006292:	4618      	mov	r0, r3
 8006294:	611a      	str	r2, [r3, #16]
 8006296:	6159      	str	r1, [r3, #20]
 8006298:	e9c3 5400 	strd	r5, r4, [r3]
 800629c:	e9c3 2202 	strd	r2, r2, [r3, #8]
 80062a0:	e9c3 2206 	strd	r2, r2, [r3, #24]
 80062a4:	e9c3 2208 	strd	r2, r2, [r3, #32]
 80062a8:	f7fd fe50 	bl	8003f4c <HAL_UART_Init>
 80062ac:	b900      	cbnz	r0, 80062b0 <MX_USART2_UART_Init+0x2c>
 80062ae:	bd38      	pop	{r3, r4, r5, pc}
 80062b0:	e8bd 4038 	ldmia.w	sp!, {r3, r4, r5, lr}
 80062b4:	f7ff bab2 	b.w	800581c <Error_Handler>
 80062b8:	20000ec0 	.word	0x20000ec0
 80062bc:	40004400 	.word	0x40004400

080062c0 <HAL_UART_MspInit>:
 80062c0:	4a51      	ldr	r2, [pc, #324]	; (8006408 <HAL_UART_MspInit+0x148>)
 80062c2:	6803      	ldr	r3, [r0, #0]
 80062c4:	b5f0      	push	{r4, r5, r6, r7, lr}
 80062c6:	4293      	cmp	r3, r2
 80062c8:	b08b      	sub	sp, #44	; 0x2c
 80062ca:	f04f 0400 	mov.w	r4, #0
 80062ce:	4605      	mov	r5, r0
 80062d0:	e9cd 4405 	strd	r4, r4, [sp, #20]
 80062d4:	e9cd 4407 	strd	r4, r4, [sp, #28]
 80062d8:	9409      	str	r4, [sp, #36]	; 0x24
 80062da:	d004      	beq.n	80062e6 <HAL_UART_MspInit+0x26>
 80062dc:	4a4b      	ldr	r2, [pc, #300]	; (800640c <HAL_UART_MspInit+0x14c>)
 80062de:	4293      	cmp	r3, r2
 80062e0:	d054      	beq.n	800638c <HAL_UART_MspInit+0xcc>
 80062e2:	b00b      	add	sp, #44	; 0x2c
 80062e4:	bdf0      	pop	{r4, r5, r6, r7, pc}
 80062e6:	4b4a      	ldr	r3, [pc, #296]	; (8006410 <HAL_UART_MspInit+0x150>)
 80062e8:	2602      	movs	r6, #2
 80062ea:	2003      	movs	r0, #3
 80062ec:	f44f 67c0 	mov.w	r7, #1536	; 0x600
 80062f0:	6c5a      	ldr	r2, [r3, #68]	; 0x44
 80062f2:	a905      	add	r1, sp, #20
 80062f4:	f042 0210 	orr.w	r2, r2, #16
 80062f8:	645a      	str	r2, [r3, #68]	; 0x44
 80062fa:	6c5a      	ldr	r2, [r3, #68]	; 0x44
 80062fc:	f002 0210 	and.w	r2, r2, #16
 8006300:	9201      	str	r2, [sp, #4]
 8006302:	9a01      	ldr	r2, [sp, #4]
 8006304:	6b1a      	ldr	r2, [r3, #48]	; 0x30
 8006306:	f042 0201 	orr.w	r2, r2, #1
 800630a:	631a      	str	r2, [r3, #48]	; 0x30
 800630c:	2207      	movs	r2, #7
 800630e:	6b1b      	ldr	r3, [r3, #48]	; 0x30
 8006310:	9606      	str	r6, [sp, #24]
 8006312:	f003 0301 	and.w	r3, r3, #1
 8006316:	4e3f      	ldr	r6, [pc, #252]	; (8006414 <HAL_UART_MspInit+0x154>)
 8006318:	9008      	str	r0, [sp, #32]
 800631a:	9302      	str	r3, [sp, #8]
 800631c:	483e      	ldr	r0, [pc, #248]	; (8006418 <HAL_UART_MspInit+0x158>)
 800631e:	9b02      	ldr	r3, [sp, #8]
 8006320:	9209      	str	r2, [sp, #36]	; 0x24
 8006322:	9705      	str	r7, [sp, #20]
 8006324:	f7fb fa42 	bl	80017ac <HAL_GPIO_Init>
 8006328:	493c      	ldr	r1, [pc, #240]	; (800641c <HAL_UART_MspInit+0x15c>)
 800632a:	f04f 6200 	mov.w	r2, #134217728	; 0x8000000
 800632e:	f44f 6380 	mov.w	r3, #1024	; 0x400
 8006332:	4630      	mov	r0, r6
 8006334:	6274      	str	r4, [r6, #36]	; 0x24
 8006336:	6133      	str	r3, [r6, #16]
 8006338:	e9c6 4402 	strd	r4, r4, [r6, #8]
 800633c:	e9c6 4405 	strd	r4, r4, [r6, #20]
 8006340:	e9c6 4407 	strd	r4, r4, [r6, #28]
 8006344:	e9c6 1200 	strd	r1, r2, [r6]
 8006348:	f7fb f878 	bl	800143c <HAL_DMA_Init>
 800634c:	2800      	cmp	r0, #0
 800634e:	d154      	bne.n	80063fa <HAL_UART_MspInit+0x13a>
 8006350:	4c33      	ldr	r4, [pc, #204]	; (8006420 <HAL_UART_MspInit+0x160>)
 8006352:	2300      	movs	r3, #0
 8006354:	4833      	ldr	r0, [pc, #204]	; (8006424 <HAL_UART_MspInit+0x164>)
 8006356:	f04f 6700 	mov.w	r7, #134217728	; 0x8000000
 800635a:	2140      	movs	r1, #64	; 0x40
 800635c:	f44f 6280 	mov.w	r2, #1024	; 0x400
 8006360:	6020      	str	r0, [r4, #0]
 8006362:	4620      	mov	r0, r4
 8006364:	66ee      	str	r6, [r5, #108]	; 0x6c
 8006366:	63b5      	str	r5, [r6, #56]	; 0x38
 8006368:	6263      	str	r3, [r4, #36]	; 0x24
 800636a:	e9c4 7101 	strd	r7, r1, [r4, #4]
 800636e:	e9c4 3203 	strd	r3, r2, [r4, #12]
 8006372:	e9c4 3305 	strd	r3, r3, [r4, #20]
 8006376:	e9c4 3307 	strd	r3, r3, [r4, #28]
 800637a:	f7fb f85f 	bl	800143c <HAL_DMA_Init>
 800637e:	b108      	cbz	r0, 8006384 <HAL_UART_MspInit+0xc4>
 8006380:	f7ff fa4c 	bl	800581c <Error_Handler>
 8006384:	66ac      	str	r4, [r5, #104]	; 0x68
 8006386:	63a5      	str	r5, [r4, #56]	; 0x38
 8006388:	b00b      	add	sp, #44	; 0x2c
 800638a:	bdf0      	pop	{r4, r5, r6, r7, pc}
 800638c:	4b20      	ldr	r3, [pc, #128]	; (8006410 <HAL_UART_MspInit+0x150>)
 800638e:	2602      	movs	r6, #2
 8006390:	2003      	movs	r0, #3
 8006392:	270c      	movs	r7, #12
 8006394:	6c1a      	ldr	r2, [r3, #64]	; 0x40
 8006396:	a905      	add	r1, sp, #20
 8006398:	f442 3200 	orr.w	r2, r2, #131072	; 0x20000
 800639c:	641a      	str	r2, [r3, #64]	; 0x40
 800639e:	6c1a      	ldr	r2, [r3, #64]	; 0x40
 80063a0:	f402 3200 	and.w	r2, r2, #131072	; 0x20000
 80063a4:	9203      	str	r2, [sp, #12]
 80063a6:	9a03      	ldr	r2, [sp, #12]
 80063a8:	6b1a      	ldr	r2, [r3, #48]	; 0x30
 80063aa:	f042 0201 	orr.w	r2, r2, #1
 80063ae:	631a      	str	r2, [r3, #48]	; 0x30
 80063b0:	2207      	movs	r2, #7
 80063b2:	6b1b      	ldr	r3, [r3, #48]	; 0x30
 80063b4:	9606      	str	r6, [sp, #24]
 80063b6:	f003 0301 	and.w	r3, r3, #1
 80063ba:	4e1b      	ldr	r6, [pc, #108]	; (8006428 <HAL_UART_MspInit+0x168>)
 80063bc:	9008      	str	r0, [sp, #32]
 80063be:	9304      	str	r3, [sp, #16]
 80063c0:	4815      	ldr	r0, [pc, #84]	; (8006418 <HAL_UART_MspInit+0x158>)
 80063c2:	9b04      	ldr	r3, [sp, #16]
 80063c4:	9209      	str	r2, [sp, #36]	; 0x24
 80063c6:	9705      	str	r7, [sp, #20]
 80063c8:	f7fb f9f0 	bl	80017ac <HAL_GPIO_Init>
 80063cc:	4917      	ldr	r1, [pc, #92]	; (800642c <HAL_UART_MspInit+0x16c>)
 80063ce:	f04f 6200 	mov.w	r2, #134217728	; 0x8000000
 80063d2:	f44f 6380 	mov.w	r3, #1024	; 0x400
 80063d6:	4630      	mov	r0, r6
 80063d8:	6274      	str	r4, [r6, #36]	; 0x24
 80063da:	6133      	str	r3, [r6, #16]
 80063dc:	e9c6 4402 	strd	r4, r4, [r6, #8]
 80063e0:	e9c6 4405 	strd	r4, r4, [r6, #20]
 80063e4:	e9c6 4407 	strd	r4, r4, [r6, #28]
 80063e8:	e9c6 1200 	strd	r1, r2, [r6]
 80063ec:	f7fb f826 	bl	800143c <HAL_DMA_Init>
 80063f0:	b930      	cbnz	r0, 8006400 <HAL_UART_MspInit+0x140>
 80063f2:	66ee      	str	r6, [r5, #108]	; 0x6c
 80063f4:	63b5      	str	r5, [r6, #56]	; 0x38
 80063f6:	b00b      	add	sp, #44	; 0x2c
 80063f8:	bdf0      	pop	{r4, r5, r6, r7, pc}
 80063fa:	f7ff fa0f 	bl	800581c <Error_Handler>
 80063fe:	e7a7      	b.n	8006350 <HAL_UART_MspInit+0x90>
 8006400:	f7ff fa0c 	bl	800581c <Error_Handler>
 8006404:	e7f5      	b.n	80063f2 <HAL_UART_MspInit+0x132>
 8006406:	bf00      	nop
 8006408:	40011000 	.word	0x40011000
 800640c:	40004400 	.word	0x40004400
 8006410:	40023800 	.word	0x40023800
 8006414:	20000de0 	.word	0x20000de0
 8006418:	40020000 	.word	0x40020000
 800641c:	40026440 	.word	0x40026440
 8006420:	20000d80 	.word	0x20000d80
 8006424:	400264b8 	.word	0x400264b8
 8006428:	20000d20 	.word	0x20000d20
 800642c:	40026088 	.word	0x40026088

08006430 <Reset_Handler>:
 8006430:	f8df d034 	ldr.w	sp, [pc, #52]	; 8006468 <LoopFillZerobss+0x14>
 8006434:	2100      	movs	r1, #0
 8006436:	e003      	b.n	8006440 <LoopCopyDataInit>

08006438 <CopyDataInit>:
 8006438:	4b0c      	ldr	r3, [pc, #48]	; (800646c <LoopFillZerobss+0x18>)
 800643a:	585b      	ldr	r3, [r3, r1]
 800643c:	5043      	str	r3, [r0, r1]
 800643e:	3104      	adds	r1, #4

08006440 <LoopCopyDataInit>:
 8006440:	480b      	ldr	r0, [pc, #44]	; (8006470 <LoopFillZerobss+0x1c>)
 8006442:	4b0c      	ldr	r3, [pc, #48]	; (8006474 <LoopFillZerobss+0x20>)
 8006444:	1842      	adds	r2, r0, r1
 8006446:	429a      	cmp	r2, r3
 8006448:	d3f6      	bcc.n	8006438 <CopyDataInit>
 800644a:	4a0b      	ldr	r2, [pc, #44]	; (8006478 <LoopFillZerobss+0x24>)
 800644c:	e002      	b.n	8006454 <LoopFillZerobss>

0800644e <FillZerobss>:
 800644e:	2300      	movs	r3, #0
 8006450:	f842 3b04 	str.w	r3, [r2], #4

08006454 <LoopFillZerobss>:
 8006454:	4b09      	ldr	r3, [pc, #36]	; (800647c <LoopFillZerobss+0x28>)
 8006456:	429a      	cmp	r2, r3
 8006458:	d3f9      	bcc.n	800644e <FillZerobss>
 800645a:	f7ff fd0b 	bl	8005e74 <SystemInit>
 800645e:	f000 f81b 	bl	8006498 <__libc_init_array>
 8006462:	f7ff f90d 	bl	8005680 <main>
 8006466:	4770      	bx	lr
 8006468:	2003ffff 	.word	0x2003ffff
 800646c:	08006e0c 	.word	0x08006e0c
 8006470:	20000000 	.word	0x20000000
 8006474:	20000178 	.word	0x20000178
 8006478:	20000178 	.word	0x20000178
 800647c:	20000f44 	.word	0x20000f44

08006480 <ADC_IRQHandler>:
 8006480:	e7fe      	b.n	8006480 <ADC_IRQHandler>

08006482 <_ZdlPvj>:
 8006482:	f000 b800 	b.w	8006486 <_ZdlPv>

08006486 <_ZdlPv>:
 8006486:	f000 b82b 	b.w	80064e0 <free>
	...

0800648c <__errno>:
 800648c:	4b01      	ldr	r3, [pc, #4]	; (8006494 <__errno+0x8>)
 800648e:	6818      	ldr	r0, [r3, #0]
 8006490:	4770      	bx	lr
 8006492:	bf00      	nop
 8006494:	20000114 	.word	0x20000114

08006498 <__libc_init_array>:
 8006498:	b570      	push	{r4, r5, r6, lr}
 800649a:	4e0d      	ldr	r6, [pc, #52]	; (80064d0 <__libc_init_array+0x38>)
 800649c:	4c0d      	ldr	r4, [pc, #52]	; (80064d4 <__libc_init_array+0x3c>)
 800649e:	1ba4      	subs	r4, r4, r6
 80064a0:	10a4      	asrs	r4, r4, #2
 80064a2:	2500      	movs	r5, #0
 80064a4:	42a5      	cmp	r5, r4
 80064a6:	d109      	bne.n	80064bc <__libc_init_array+0x24>
 80064a8:	4e0b      	ldr	r6, [pc, #44]	; (80064d8 <__libc_init_array+0x40>)
 80064aa:	4c0c      	ldr	r4, [pc, #48]	; (80064dc <__libc_init_array+0x44>)
 80064ac:	f000 fc2e 	bl	8006d0c <_init>
 80064b0:	1ba4      	subs	r4, r4, r6
 80064b2:	10a4      	asrs	r4, r4, #2
 80064b4:	2500      	movs	r5, #0
 80064b6:	42a5      	cmp	r5, r4
 80064b8:	d105      	bne.n	80064c6 <__libc_init_array+0x2e>
 80064ba:	bd70      	pop	{r4, r5, r6, pc}
 80064bc:	f856 3025 	ldr.w	r3, [r6, r5, lsl #2]
 80064c0:	4798      	blx	r3
 80064c2:	3501      	adds	r5, #1
 80064c4:	e7ee      	b.n	80064a4 <__libc_init_array+0xc>
 80064c6:	f856 3025 	ldr.w	r3, [r6, r5, lsl #2]
 80064ca:	4798      	blx	r3
 80064cc:	3501      	adds	r5, #1
 80064ce:	e7f2      	b.n	80064b6 <__libc_init_array+0x1e>
 80064d0:	08006dfc 	.word	0x08006dfc
 80064d4:	08006dfc 	.word	0x08006dfc
 80064d8:	08006dfc 	.word	0x08006dfc
 80064dc:	08006e04 	.word	0x08006e04

080064e0 <free>:
 80064e0:	4b02      	ldr	r3, [pc, #8]	; (80064ec <free+0xc>)
 80064e2:	4601      	mov	r1, r0
 80064e4:	6818      	ldr	r0, [r3, #0]
 80064e6:	f000 b80b 	b.w	8006500 <_free_r>
 80064ea:	bf00      	nop
 80064ec:	20000114 	.word	0x20000114

080064f0 <memset>:
 80064f0:	4402      	add	r2, r0
 80064f2:	4603      	mov	r3, r0
 80064f4:	4293      	cmp	r3, r2
 80064f6:	d100      	bne.n	80064fa <memset+0xa>
 80064f8:	4770      	bx	lr
 80064fa:	f803 1b01 	strb.w	r1, [r3], #1
 80064fe:	e7f9      	b.n	80064f4 <memset+0x4>

08006500 <_free_r>:
 8006500:	b538      	push	{r3, r4, r5, lr}
 8006502:	4605      	mov	r5, r0
 8006504:	2900      	cmp	r1, #0
 8006506:	d045      	beq.n	8006594 <_free_r+0x94>
 8006508:	f851 3c04 	ldr.w	r3, [r1, #-4]
 800650c:	1f0c      	subs	r4, r1, #4
 800650e:	2b00      	cmp	r3, #0
 8006510:	bfb8      	it	lt
 8006512:	18e4      	addlt	r4, r4, r3
 8006514:	f000 f8cc 	bl	80066b0 <__malloc_lock>
 8006518:	4a1f      	ldr	r2, [pc, #124]	; (8006598 <_free_r+0x98>)
 800651a:	6813      	ldr	r3, [r2, #0]
 800651c:	4610      	mov	r0, r2
 800651e:	b933      	cbnz	r3, 800652e <_free_r+0x2e>
 8006520:	6063      	str	r3, [r4, #4]
 8006522:	6014      	str	r4, [r2, #0]
 8006524:	4628      	mov	r0, r5
 8006526:	e8bd 4038 	ldmia.w	sp!, {r3, r4, r5, lr}
 800652a:	f000 b8c2 	b.w	80066b2 <__malloc_unlock>
 800652e:	42a3      	cmp	r3, r4
 8006530:	d90c      	bls.n	800654c <_free_r+0x4c>
 8006532:	6821      	ldr	r1, [r4, #0]
 8006534:	1862      	adds	r2, r4, r1
 8006536:	4293      	cmp	r3, r2
 8006538:	bf04      	itt	eq
 800653a:	681a      	ldreq	r2, [r3, #0]
 800653c:	685b      	ldreq	r3, [r3, #4]
 800653e:	6063      	str	r3, [r4, #4]
 8006540:	bf04      	itt	eq
 8006542:	1852      	addeq	r2, r2, r1
 8006544:	6022      	streq	r2, [r4, #0]
 8006546:	6004      	str	r4, [r0, #0]
 8006548:	e7ec      	b.n	8006524 <_free_r+0x24>
 800654a:	4613      	mov	r3, r2
 800654c:	685a      	ldr	r2, [r3, #4]
 800654e:	b10a      	cbz	r2, 8006554 <_free_r+0x54>
 8006550:	42a2      	cmp	r2, r4
 8006552:	d9fa      	bls.n	800654a <_free_r+0x4a>
 8006554:	6819      	ldr	r1, [r3, #0]
 8006556:	1858      	adds	r0, r3, r1
 8006558:	42a0      	cmp	r0, r4
 800655a:	d10b      	bne.n	8006574 <_free_r+0x74>
 800655c:	6820      	ldr	r0, [r4, #0]
 800655e:	4401      	add	r1, r0
 8006560:	1858      	adds	r0, r3, r1
 8006562:	4282      	cmp	r2, r0
 8006564:	6019      	str	r1, [r3, #0]
 8006566:	d1dd      	bne.n	8006524 <_free_r+0x24>
 8006568:	6810      	ldr	r0, [r2, #0]
 800656a:	6852      	ldr	r2, [r2, #4]
 800656c:	605a      	str	r2, [r3, #4]
 800656e:	4401      	add	r1, r0
 8006570:	6019      	str	r1, [r3, #0]
 8006572:	e7d7      	b.n	8006524 <_free_r+0x24>
 8006574:	d902      	bls.n	800657c <_free_r+0x7c>
 8006576:	230c      	movs	r3, #12
 8006578:	602b      	str	r3, [r5, #0]
 800657a:	e7d3      	b.n	8006524 <_free_r+0x24>
 800657c:	6820      	ldr	r0, [r4, #0]
 800657e:	1821      	adds	r1, r4, r0
 8006580:	428a      	cmp	r2, r1
 8006582:	bf04      	itt	eq
 8006584:	6811      	ldreq	r1, [r2, #0]
 8006586:	6852      	ldreq	r2, [r2, #4]
 8006588:	6062      	str	r2, [r4, #4]
 800658a:	bf04      	itt	eq
 800658c:	1809      	addeq	r1, r1, r0
 800658e:	6021      	streq	r1, [r4, #0]
 8006590:	605c      	str	r4, [r3, #4]
 8006592:	e7c7      	b.n	8006524 <_free_r+0x24>
 8006594:	bd38      	pop	{r3, r4, r5, pc}
 8006596:	bf00      	nop
 8006598:	200001ec 	.word	0x200001ec

0800659c <_malloc_r>:
 800659c:	b570      	push	{r4, r5, r6, lr}
 800659e:	1ccd      	adds	r5, r1, #3
 80065a0:	f025 0503 	bic.w	r5, r5, #3
 80065a4:	3508      	adds	r5, #8
 80065a6:	2d0c      	cmp	r5, #12
 80065a8:	bf38      	it	cc
 80065aa:	250c      	movcc	r5, #12
 80065ac:	2d00      	cmp	r5, #0
 80065ae:	4606      	mov	r6, r0
 80065b0:	db01      	blt.n	80065b6 <_malloc_r+0x1a>
 80065b2:	42a9      	cmp	r1, r5
 80065b4:	d903      	bls.n	80065be <_malloc_r+0x22>
 80065b6:	230c      	movs	r3, #12
 80065b8:	6033      	str	r3, [r6, #0]
 80065ba:	2000      	movs	r0, #0
 80065bc:	bd70      	pop	{r4, r5, r6, pc}
 80065be:	f000 f877 	bl	80066b0 <__malloc_lock>
 80065c2:	4a21      	ldr	r2, [pc, #132]	; (8006648 <_malloc_r+0xac>)
 80065c4:	6814      	ldr	r4, [r2, #0]
 80065c6:	4621      	mov	r1, r4
 80065c8:	b991      	cbnz	r1, 80065f0 <_malloc_r+0x54>
 80065ca:	4c20      	ldr	r4, [pc, #128]	; (800664c <_malloc_r+0xb0>)
 80065cc:	6823      	ldr	r3, [r4, #0]
 80065ce:	b91b      	cbnz	r3, 80065d8 <_malloc_r+0x3c>
 80065d0:	4630      	mov	r0, r6
 80065d2:	f000 f83d 	bl	8006650 <_sbrk_r>
 80065d6:	6020      	str	r0, [r4, #0]
 80065d8:	4629      	mov	r1, r5
 80065da:	4630      	mov	r0, r6
 80065dc:	f000 f838 	bl	8006650 <_sbrk_r>
 80065e0:	1c43      	adds	r3, r0, #1
 80065e2:	d124      	bne.n	800662e <_malloc_r+0x92>
 80065e4:	230c      	movs	r3, #12
 80065e6:	6033      	str	r3, [r6, #0]
 80065e8:	4630      	mov	r0, r6
 80065ea:	f000 f862 	bl	80066b2 <__malloc_unlock>
 80065ee:	e7e4      	b.n	80065ba <_malloc_r+0x1e>
 80065f0:	680b      	ldr	r3, [r1, #0]
 80065f2:	1b5b      	subs	r3, r3, r5
 80065f4:	d418      	bmi.n	8006628 <_malloc_r+0x8c>
 80065f6:	2b0b      	cmp	r3, #11
 80065f8:	d90f      	bls.n	800661a <_malloc_r+0x7e>
 80065fa:	600b      	str	r3, [r1, #0]
 80065fc:	50cd      	str	r5, [r1, r3]
 80065fe:	18cc      	adds	r4, r1, r3
 8006600:	4630      	mov	r0, r6
 8006602:	f000 f856 	bl	80066b2 <__malloc_unlock>
 8006606:	f104 000b 	add.w	r0, r4, #11
 800660a:	1d23      	adds	r3, r4, #4
 800660c:	f020 0007 	bic.w	r0, r0, #7
 8006610:	1ac3      	subs	r3, r0, r3
 8006612:	d0d3      	beq.n	80065bc <_malloc_r+0x20>
 8006614:	425a      	negs	r2, r3
 8006616:	50e2      	str	r2, [r4, r3]
 8006618:	e7d0      	b.n	80065bc <_malloc_r+0x20>
 800661a:	428c      	cmp	r4, r1
 800661c:	684b      	ldr	r3, [r1, #4]
 800661e:	bf16      	itet	ne
 8006620:	6063      	strne	r3, [r4, #4]
 8006622:	6013      	streq	r3, [r2, #0]
 8006624:	460c      	movne	r4, r1
 8006626:	e7eb      	b.n	8006600 <_malloc_r+0x64>
 8006628:	460c      	mov	r4, r1
 800662a:	6849      	ldr	r1, [r1, #4]
 800662c:	e7cc      	b.n	80065c8 <_malloc_r+0x2c>
 800662e:	1cc4      	adds	r4, r0, #3
 8006630:	f024 0403 	bic.w	r4, r4, #3
 8006634:	42a0      	cmp	r0, r4
 8006636:	d005      	beq.n	8006644 <_malloc_r+0xa8>
 8006638:	1a21      	subs	r1, r4, r0
 800663a:	4630      	mov	r0, r6
 800663c:	f000 f808 	bl	8006650 <_sbrk_r>
 8006640:	3001      	adds	r0, #1
 8006642:	d0cf      	beq.n	80065e4 <_malloc_r+0x48>
 8006644:	6025      	str	r5, [r4, #0]
 8006646:	e7db      	b.n	8006600 <_malloc_r+0x64>
 8006648:	200001ec 	.word	0x200001ec
 800664c:	200001f0 	.word	0x200001f0

08006650 <_sbrk_r>:
 8006650:	b538      	push	{r3, r4, r5, lr}
 8006652:	4c06      	ldr	r4, [pc, #24]	; (800666c <_sbrk_r+0x1c>)
 8006654:	2300      	movs	r3, #0
 8006656:	4605      	mov	r5, r0
 8006658:	4608      	mov	r0, r1
 800665a:	6023      	str	r3, [r4, #0]
 800665c:	f7ff fbec 	bl	8005e38 <_sbrk>
 8006660:	1c43      	adds	r3, r0, #1
 8006662:	d102      	bne.n	800666a <_sbrk_r+0x1a>
 8006664:	6823      	ldr	r3, [r4, #0]
 8006666:	b103      	cbz	r3, 800666a <_sbrk_r+0x1a>
 8006668:	602b      	str	r3, [r5, #0]
 800666a:	bd38      	pop	{r3, r4, r5, pc}
 800666c:	20000f40 	.word	0x20000f40

08006670 <siprintf>:
 8006670:	b40e      	push	{r1, r2, r3}
 8006672:	b500      	push	{lr}
 8006674:	b09c      	sub	sp, #112	; 0x70
 8006676:	ab1d      	add	r3, sp, #116	; 0x74
 8006678:	9002      	str	r0, [sp, #8]
 800667a:	9006      	str	r0, [sp, #24]
 800667c:	f06f 4100 	mvn.w	r1, #2147483648	; 0x80000000
 8006680:	4809      	ldr	r0, [pc, #36]	; (80066a8 <siprintf+0x38>)
 8006682:	9107      	str	r1, [sp, #28]
 8006684:	9104      	str	r1, [sp, #16]
 8006686:	4909      	ldr	r1, [pc, #36]	; (80066ac <siprintf+0x3c>)
 8006688:	f853 2b04 	ldr.w	r2, [r3], #4
 800668c:	9105      	str	r1, [sp, #20]
 800668e:	6800      	ldr	r0, [r0, #0]
 8006690:	9301      	str	r3, [sp, #4]
 8006692:	a902      	add	r1, sp, #8
 8006694:	f000 f868 	bl	8006768 <_svfiprintf_r>
 8006698:	9b02      	ldr	r3, [sp, #8]
 800669a:	2200      	movs	r2, #0
 800669c:	701a      	strb	r2, [r3, #0]
 800669e:	b01c      	add	sp, #112	; 0x70
 80066a0:	f85d eb04 	ldr.w	lr, [sp], #4
 80066a4:	b003      	add	sp, #12
 80066a6:	4770      	bx	lr
 80066a8:	20000114 	.word	0x20000114
 80066ac:	ffff0208 	.word	0xffff0208

080066b0 <__malloc_lock>:
 80066b0:	4770      	bx	lr

080066b2 <__malloc_unlock>:
 80066b2:	4770      	bx	lr

080066b4 <__ssputs_r>:
 80066b4:	e92d 47f0 	stmdb	sp!, {r4, r5, r6, r7, r8, r9, sl, lr}
 80066b8:	688e      	ldr	r6, [r1, #8]
 80066ba:	429e      	cmp	r6, r3
 80066bc:	4682      	mov	sl, r0
 80066be:	460c      	mov	r4, r1
 80066c0:	4690      	mov	r8, r2
 80066c2:	4699      	mov	r9, r3
 80066c4:	d837      	bhi.n	8006736 <__ssputs_r+0x82>
 80066c6:	898a      	ldrh	r2, [r1, #12]
 80066c8:	f412 6f90 	tst.w	r2, #1152	; 0x480
 80066cc:	d031      	beq.n	8006732 <__ssputs_r+0x7e>
 80066ce:	6825      	ldr	r5, [r4, #0]
 80066d0:	6909      	ldr	r1, [r1, #16]
 80066d2:	1a6f      	subs	r7, r5, r1
 80066d4:	6965      	ldr	r5, [r4, #20]
 80066d6:	2302      	movs	r3, #2
 80066d8:	eb05 0545 	add.w	r5, r5, r5, lsl #1
 80066dc:	fb95 f5f3 	sdiv	r5, r5, r3
 80066e0:	f109 0301 	add.w	r3, r9, #1
 80066e4:	443b      	add	r3, r7
 80066e6:	429d      	cmp	r5, r3
 80066e8:	bf38      	it	cc
 80066ea:	461d      	movcc	r5, r3
 80066ec:	0553      	lsls	r3, r2, #21
 80066ee:	d530      	bpl.n	8006752 <__ssputs_r+0x9e>
 80066f0:	4629      	mov	r1, r5
 80066f2:	f7ff ff53 	bl	800659c <_malloc_r>
 80066f6:	4606      	mov	r6, r0
 80066f8:	b950      	cbnz	r0, 8006710 <__ssputs_r+0x5c>
 80066fa:	230c      	movs	r3, #12
 80066fc:	f8ca 3000 	str.w	r3, [sl]
 8006700:	89a3      	ldrh	r3, [r4, #12]
 8006702:	f043 0340 	orr.w	r3, r3, #64	; 0x40
 8006706:	81a3      	strh	r3, [r4, #12]
 8006708:	f04f 30ff 	mov.w	r0, #4294967295
 800670c:	e8bd 87f0 	ldmia.w	sp!, {r4, r5, r6, r7, r8, r9, sl, pc}
 8006710:	463a      	mov	r2, r7
 8006712:	6921      	ldr	r1, [r4, #16]
 8006714:	f000 faa8 	bl	8006c68 <memcpy>
 8006718:	89a3      	ldrh	r3, [r4, #12]
 800671a:	f423 6390 	bic.w	r3, r3, #1152	; 0x480
 800671e:	f043 0380 	orr.w	r3, r3, #128	; 0x80
 8006722:	81a3      	strh	r3, [r4, #12]
 8006724:	6126      	str	r6, [r4, #16]
 8006726:	6165      	str	r5, [r4, #20]
 8006728:	443e      	add	r6, r7
 800672a:	1bed      	subs	r5, r5, r7
 800672c:	6026      	str	r6, [r4, #0]
 800672e:	60a5      	str	r5, [r4, #8]
 8006730:	464e      	mov	r6, r9
 8006732:	454e      	cmp	r6, r9
 8006734:	d900      	bls.n	8006738 <__ssputs_r+0x84>
 8006736:	464e      	mov	r6, r9
 8006738:	4632      	mov	r2, r6
 800673a:	4641      	mov	r1, r8
 800673c:	6820      	ldr	r0, [r4, #0]
 800673e:	f000 fa9e 	bl	8006c7e <memmove>
 8006742:	68a3      	ldr	r3, [r4, #8]
 8006744:	1b9b      	subs	r3, r3, r6
 8006746:	60a3      	str	r3, [r4, #8]
 8006748:	6823      	ldr	r3, [r4, #0]
 800674a:	441e      	add	r6, r3
 800674c:	6026      	str	r6, [r4, #0]
 800674e:	2000      	movs	r0, #0
 8006750:	e7dc      	b.n	800670c <__ssputs_r+0x58>
 8006752:	462a      	mov	r2, r5
 8006754:	f000 faac 	bl	8006cb0 <_realloc_r>
 8006758:	4606      	mov	r6, r0
 800675a:	2800      	cmp	r0, #0
 800675c:	d1e2      	bne.n	8006724 <__ssputs_r+0x70>
 800675e:	6921      	ldr	r1, [r4, #16]
 8006760:	4650      	mov	r0, sl
 8006762:	f7ff fecd 	bl	8006500 <_free_r>
 8006766:	e7c8      	b.n	80066fa <__ssputs_r+0x46>

08006768 <_svfiprintf_r>:
 8006768:	e92d 4ff0 	stmdb	sp!, {r4, r5, r6, r7, r8, r9, sl, fp, lr}
 800676c:	461d      	mov	r5, r3
 800676e:	898b      	ldrh	r3, [r1, #12]
 8006770:	061f      	lsls	r7, r3, #24
 8006772:	b09d      	sub	sp, #116	; 0x74
 8006774:	4680      	mov	r8, r0
 8006776:	460c      	mov	r4, r1
 8006778:	4616      	mov	r6, r2
 800677a:	d50f      	bpl.n	800679c <_svfiprintf_r+0x34>
 800677c:	690b      	ldr	r3, [r1, #16]
 800677e:	b96b      	cbnz	r3, 800679c <_svfiprintf_r+0x34>
 8006780:	2140      	movs	r1, #64	; 0x40
 8006782:	f7ff ff0b 	bl	800659c <_malloc_r>
 8006786:	6020      	str	r0, [r4, #0]
 8006788:	6120      	str	r0, [r4, #16]
 800678a:	b928      	cbnz	r0, 8006798 <_svfiprintf_r+0x30>
 800678c:	230c      	movs	r3, #12
 800678e:	f8c8 3000 	str.w	r3, [r8]
 8006792:	f04f 30ff 	mov.w	r0, #4294967295
 8006796:	e0c8      	b.n	800692a <_svfiprintf_r+0x1c2>
 8006798:	2340      	movs	r3, #64	; 0x40
 800679a:	6163      	str	r3, [r4, #20]
 800679c:	2300      	movs	r3, #0
 800679e:	9309      	str	r3, [sp, #36]	; 0x24
 80067a0:	2320      	movs	r3, #32
 80067a2:	f88d 3029 	strb.w	r3, [sp, #41]	; 0x29
 80067a6:	2330      	movs	r3, #48	; 0x30
 80067a8:	f88d 302a 	strb.w	r3, [sp, #42]	; 0x2a
 80067ac:	9503      	str	r5, [sp, #12]
 80067ae:	f04f 0b01 	mov.w	fp, #1
 80067b2:	4637      	mov	r7, r6
 80067b4:	463d      	mov	r5, r7
 80067b6:	f815 3b01 	ldrb.w	r3, [r5], #1
 80067ba:	b10b      	cbz	r3, 80067c0 <_svfiprintf_r+0x58>
 80067bc:	2b25      	cmp	r3, #37	; 0x25
 80067be:	d13e      	bne.n	800683e <_svfiprintf_r+0xd6>
 80067c0:	ebb7 0a06 	subs.w	sl, r7, r6
 80067c4:	d00b      	beq.n	80067de <_svfiprintf_r+0x76>
 80067c6:	4653      	mov	r3, sl
 80067c8:	4632      	mov	r2, r6
 80067ca:	4621      	mov	r1, r4
 80067cc:	4640      	mov	r0, r8
 80067ce:	f7ff ff71 	bl	80066b4 <__ssputs_r>
 80067d2:	3001      	adds	r0, #1
 80067d4:	f000 80a4 	beq.w	8006920 <_svfiprintf_r+0x1b8>
 80067d8:	9b09      	ldr	r3, [sp, #36]	; 0x24
 80067da:	4453      	add	r3, sl
 80067dc:	9309      	str	r3, [sp, #36]	; 0x24
 80067de:	783b      	ldrb	r3, [r7, #0]
 80067e0:	2b00      	cmp	r3, #0
 80067e2:	f000 809d 	beq.w	8006920 <_svfiprintf_r+0x1b8>
 80067e6:	2300      	movs	r3, #0
 80067e8:	f04f 32ff 	mov.w	r2, #4294967295
 80067ec:	e9cd 2305 	strd	r2, r3, [sp, #20]
 80067f0:	9304      	str	r3, [sp, #16]
 80067f2:	9307      	str	r3, [sp, #28]
 80067f4:	f88d 3053 	strb.w	r3, [sp, #83]	; 0x53
 80067f8:	931a      	str	r3, [sp, #104]	; 0x68
 80067fa:	462f      	mov	r7, r5
 80067fc:	2205      	movs	r2, #5
 80067fe:	f817 1b01 	ldrb.w	r1, [r7], #1
 8006802:	4850      	ldr	r0, [pc, #320]	; (8006944 <_svfiprintf_r+0x1dc>)
 8006804:	f7f9 fd0c 	bl	8000220 <memchr>
 8006808:	9b04      	ldr	r3, [sp, #16]
 800680a:	b9d0      	cbnz	r0, 8006842 <_svfiprintf_r+0xda>
 800680c:	06d9      	lsls	r1, r3, #27
 800680e:	bf44      	itt	mi
 8006810:	2220      	movmi	r2, #32
 8006812:	f88d 2053 	strbmi.w	r2, [sp, #83]	; 0x53
 8006816:	071a      	lsls	r2, r3, #28
 8006818:	bf44      	itt	mi
 800681a:	222b      	movmi	r2, #43	; 0x2b
 800681c:	f88d 2053 	strbmi.w	r2, [sp, #83]	; 0x53
 8006820:	782a      	ldrb	r2, [r5, #0]
 8006822:	2a2a      	cmp	r2, #42	; 0x2a
 8006824:	d015      	beq.n	8006852 <_svfiprintf_r+0xea>
 8006826:	9a07      	ldr	r2, [sp, #28]
 8006828:	462f      	mov	r7, r5
 800682a:	2000      	movs	r0, #0
 800682c:	250a      	movs	r5, #10
 800682e:	4639      	mov	r1, r7
 8006830:	f811 3b01 	ldrb.w	r3, [r1], #1
 8006834:	3b30      	subs	r3, #48	; 0x30
 8006836:	2b09      	cmp	r3, #9
 8006838:	d94d      	bls.n	80068d6 <_svfiprintf_r+0x16e>
 800683a:	b1b8      	cbz	r0, 800686c <_svfiprintf_r+0x104>
 800683c:	e00f      	b.n	800685e <_svfiprintf_r+0xf6>
 800683e:	462f      	mov	r7, r5
 8006840:	e7b8      	b.n	80067b4 <_svfiprintf_r+0x4c>
 8006842:	4a40      	ldr	r2, [pc, #256]	; (8006944 <_svfiprintf_r+0x1dc>)
 8006844:	1a80      	subs	r0, r0, r2
 8006846:	fa0b f000 	lsl.w	r0, fp, r0
 800684a:	4318      	orrs	r0, r3
 800684c:	9004      	str	r0, [sp, #16]
 800684e:	463d      	mov	r5, r7
 8006850:	e7d3      	b.n	80067fa <_svfiprintf_r+0x92>
 8006852:	9a03      	ldr	r2, [sp, #12]
 8006854:	1d11      	adds	r1, r2, #4
 8006856:	6812      	ldr	r2, [r2, #0]
 8006858:	9103      	str	r1, [sp, #12]
 800685a:	2a00      	cmp	r2, #0
 800685c:	db01      	blt.n	8006862 <_svfiprintf_r+0xfa>
 800685e:	9207      	str	r2, [sp, #28]
 8006860:	e004      	b.n	800686c <_svfiprintf_r+0x104>
 8006862:	4252      	negs	r2, r2
 8006864:	f043 0302 	orr.w	r3, r3, #2
 8006868:	9207      	str	r2, [sp, #28]
 800686a:	9304      	str	r3, [sp, #16]
 800686c:	783b      	ldrb	r3, [r7, #0]
 800686e:	2b2e      	cmp	r3, #46	; 0x2e
 8006870:	d10c      	bne.n	800688c <_svfiprintf_r+0x124>
 8006872:	787b      	ldrb	r3, [r7, #1]
 8006874:	2b2a      	cmp	r3, #42	; 0x2a
 8006876:	d133      	bne.n	80068e0 <_svfiprintf_r+0x178>
 8006878:	9b03      	ldr	r3, [sp, #12]
 800687a:	1d1a      	adds	r2, r3, #4
 800687c:	681b      	ldr	r3, [r3, #0]
 800687e:	9203      	str	r2, [sp, #12]
 8006880:	2b00      	cmp	r3, #0
 8006882:	bfb8      	it	lt
 8006884:	f04f 33ff 	movlt.w	r3, #4294967295
 8006888:	3702      	adds	r7, #2
 800688a:	9305      	str	r3, [sp, #20]
 800688c:	4d2e      	ldr	r5, [pc, #184]	; (8006948 <_svfiprintf_r+0x1e0>)
 800688e:	7839      	ldrb	r1, [r7, #0]
 8006890:	2203      	movs	r2, #3
 8006892:	4628      	mov	r0, r5
 8006894:	f7f9 fcc4 	bl	8000220 <memchr>
 8006898:	b138      	cbz	r0, 80068aa <_svfiprintf_r+0x142>
 800689a:	2340      	movs	r3, #64	; 0x40
 800689c:	1b40      	subs	r0, r0, r5
 800689e:	fa03 f000 	lsl.w	r0, r3, r0
 80068a2:	9b04      	ldr	r3, [sp, #16]
 80068a4:	4303      	orrs	r3, r0
 80068a6:	3701      	adds	r7, #1
 80068a8:	9304      	str	r3, [sp, #16]
 80068aa:	7839      	ldrb	r1, [r7, #0]
 80068ac:	4827      	ldr	r0, [pc, #156]	; (800694c <_svfiprintf_r+0x1e4>)
 80068ae:	f88d 1028 	strb.w	r1, [sp, #40]	; 0x28
 80068b2:	2206      	movs	r2, #6
 80068b4:	1c7e      	adds	r6, r7, #1
 80068b6:	f7f9 fcb3 	bl	8000220 <memchr>
 80068ba:	2800      	cmp	r0, #0
 80068bc:	d038      	beq.n	8006930 <_svfiprintf_r+0x1c8>
 80068be:	4b24      	ldr	r3, [pc, #144]	; (8006950 <_svfiprintf_r+0x1e8>)
 80068c0:	bb13      	cbnz	r3, 8006908 <_svfiprintf_r+0x1a0>
 80068c2:	9b03      	ldr	r3, [sp, #12]
 80068c4:	3307      	adds	r3, #7
 80068c6:	f023 0307 	bic.w	r3, r3, #7
 80068ca:	3308      	adds	r3, #8
 80068cc:	9303      	str	r3, [sp, #12]
 80068ce:	9b09      	ldr	r3, [sp, #36]	; 0x24
 80068d0:	444b      	add	r3, r9
 80068d2:	9309      	str	r3, [sp, #36]	; 0x24
 80068d4:	e76d      	b.n	80067b2 <_svfiprintf_r+0x4a>
 80068d6:	fb05 3202 	mla	r2, r5, r2, r3
 80068da:	2001      	movs	r0, #1
 80068dc:	460f      	mov	r7, r1
 80068de:	e7a6      	b.n	800682e <_svfiprintf_r+0xc6>
 80068e0:	2300      	movs	r3, #0
 80068e2:	3701      	adds	r7, #1
 80068e4:	9305      	str	r3, [sp, #20]
 80068e6:	4619      	mov	r1, r3
 80068e8:	250a      	movs	r5, #10
 80068ea:	4638      	mov	r0, r7
 80068ec:	f810 2b01 	ldrb.w	r2, [r0], #1
 80068f0:	3a30      	subs	r2, #48	; 0x30
 80068f2:	2a09      	cmp	r2, #9
 80068f4:	d903      	bls.n	80068fe <_svfiprintf_r+0x196>
 80068f6:	2b00      	cmp	r3, #0
 80068f8:	d0c8      	beq.n	800688c <_svfiprintf_r+0x124>
 80068fa:	9105      	str	r1, [sp, #20]
 80068fc:	e7c6      	b.n	800688c <_svfiprintf_r+0x124>
 80068fe:	fb05 2101 	mla	r1, r5, r1, r2
 8006902:	2301      	movs	r3, #1
 8006904:	4607      	mov	r7, r0
 8006906:	e7f0      	b.n	80068ea <_svfiprintf_r+0x182>
 8006908:	ab03      	add	r3, sp, #12
 800690a:	9300      	str	r3, [sp, #0]
 800690c:	4622      	mov	r2, r4
 800690e:	4b11      	ldr	r3, [pc, #68]	; (8006954 <_svfiprintf_r+0x1ec>)
 8006910:	a904      	add	r1, sp, #16
 8006912:	4640      	mov	r0, r8
 8006914:	f3af 8000 	nop.w
 8006918:	f1b0 3fff 	cmp.w	r0, #4294967295
 800691c:	4681      	mov	r9, r0
 800691e:	d1d6      	bne.n	80068ce <_svfiprintf_r+0x166>
 8006920:	89a3      	ldrh	r3, [r4, #12]
 8006922:	065b      	lsls	r3, r3, #25
 8006924:	f53f af35 	bmi.w	8006792 <_svfiprintf_r+0x2a>
 8006928:	9809      	ldr	r0, [sp, #36]	; 0x24
 800692a:	b01d      	add	sp, #116	; 0x74
 800692c:	e8bd 8ff0 	ldmia.w	sp!, {r4, r5, r6, r7, r8, r9, sl, fp, pc}
 8006930:	ab03      	add	r3, sp, #12
 8006932:	9300      	str	r3, [sp, #0]
 8006934:	4622      	mov	r2, r4
 8006936:	4b07      	ldr	r3, [pc, #28]	; (8006954 <_svfiprintf_r+0x1ec>)
 8006938:	a904      	add	r1, sp, #16
 800693a:	4640      	mov	r0, r8
 800693c:	f000 f882 	bl	8006a44 <_printf_i>
 8006940:	e7ea      	b.n	8006918 <_svfiprintf_r+0x1b0>
 8006942:	bf00      	nop
 8006944:	08006dc0 	.word	0x08006dc0
 8006948:	08006dc6 	.word	0x08006dc6
 800694c:	08006dca 	.word	0x08006dca
 8006950:	00000000 	.word	0x00000000
 8006954:	080066b5 	.word	0x080066b5

08006958 <_printf_common>:
 8006958:	e92d 47f0 	stmdb	sp!, {r4, r5, r6, r7, r8, r9, sl, lr}
 800695c:	4691      	mov	r9, r2
 800695e:	461f      	mov	r7, r3
 8006960:	688a      	ldr	r2, [r1, #8]
 8006962:	690b      	ldr	r3, [r1, #16]
 8006964:	f8dd 8020 	ldr.w	r8, [sp, #32]
 8006968:	4293      	cmp	r3, r2
 800696a:	bfb8      	it	lt
 800696c:	4613      	movlt	r3, r2
 800696e:	f8c9 3000 	str.w	r3, [r9]
 8006972:	f891 2043 	ldrb.w	r2, [r1, #67]	; 0x43
 8006976:	4606      	mov	r6, r0
 8006978:	460c      	mov	r4, r1
 800697a:	b112      	cbz	r2, 8006982 <_printf_common+0x2a>
 800697c:	3301      	adds	r3, #1
 800697e:	f8c9 3000 	str.w	r3, [r9]
 8006982:	6823      	ldr	r3, [r4, #0]
 8006984:	0699      	lsls	r1, r3, #26
 8006986:	bf42      	ittt	mi
 8006988:	f8d9 3000 	ldrmi.w	r3, [r9]
 800698c:	3302      	addmi	r3, #2
 800698e:	f8c9 3000 	strmi.w	r3, [r9]
 8006992:	6825      	ldr	r5, [r4, #0]
 8006994:	f015 0506 	ands.w	r5, r5, #6
 8006998:	d107      	bne.n	80069aa <_printf_common+0x52>
 800699a:	f104 0a19 	add.w	sl, r4, #25
 800699e:	68e3      	ldr	r3, [r4, #12]
 80069a0:	f8d9 2000 	ldr.w	r2, [r9]
 80069a4:	1a9b      	subs	r3, r3, r2
 80069a6:	42ab      	cmp	r3, r5
 80069a8:	dc28      	bgt.n	80069fc <_printf_common+0xa4>
 80069aa:	f894 3043 	ldrb.w	r3, [r4, #67]	; 0x43
 80069ae:	6822      	ldr	r2, [r4, #0]
 80069b0:	3300      	adds	r3, #0
 80069b2:	bf18      	it	ne
 80069b4:	2301      	movne	r3, #1
 80069b6:	0692      	lsls	r2, r2, #26
 80069b8:	d42d      	bmi.n	8006a16 <_printf_common+0xbe>
 80069ba:	f104 0243 	add.w	r2, r4, #67	; 0x43
 80069be:	4639      	mov	r1, r7
 80069c0:	4630      	mov	r0, r6
 80069c2:	47c0      	blx	r8
 80069c4:	3001      	adds	r0, #1
 80069c6:	d020      	beq.n	8006a0a <_printf_common+0xb2>
 80069c8:	6823      	ldr	r3, [r4, #0]
 80069ca:	68e5      	ldr	r5, [r4, #12]
 80069cc:	f8d9 2000 	ldr.w	r2, [r9]
 80069d0:	f003 0306 	and.w	r3, r3, #6
 80069d4:	2b04      	cmp	r3, #4
 80069d6:	bf08      	it	eq
 80069d8:	1aad      	subeq	r5, r5, r2
 80069da:	68a3      	ldr	r3, [r4, #8]
 80069dc:	6922      	ldr	r2, [r4, #16]
 80069de:	bf0c      	ite	eq
 80069e0:	ea25 75e5 	biceq.w	r5, r5, r5, asr #31
 80069e4:	2500      	movne	r5, #0
 80069e6:	4293      	cmp	r3, r2
 80069e8:	bfc4      	itt	gt
 80069ea:	1a9b      	subgt	r3, r3, r2
 80069ec:	18ed      	addgt	r5, r5, r3
 80069ee:	f04f 0900 	mov.w	r9, #0
 80069f2:	341a      	adds	r4, #26
 80069f4:	454d      	cmp	r5, r9
 80069f6:	d11a      	bne.n	8006a2e <_printf_common+0xd6>
 80069f8:	2000      	movs	r0, #0
 80069fa:	e008      	b.n	8006a0e <_printf_common+0xb6>
 80069fc:	2301      	movs	r3, #1
 80069fe:	4652      	mov	r2, sl
 8006a00:	4639      	mov	r1, r7
 8006a02:	4630      	mov	r0, r6
 8006a04:	47c0      	blx	r8
 8006a06:	3001      	adds	r0, #1
 8006a08:	d103      	bne.n	8006a12 <_printf_common+0xba>
 8006a0a:	f04f 30ff 	mov.w	r0, #4294967295
 8006a0e:	e8bd 87f0 	ldmia.w	sp!, {r4, r5, r6, r7, r8, r9, sl, pc}
 8006a12:	3501      	adds	r5, #1
 8006a14:	e7c3      	b.n	800699e <_printf_common+0x46>
 8006a16:	18e1      	adds	r1, r4, r3
 8006a18:	1c5a      	adds	r2, r3, #1
 8006a1a:	2030      	movs	r0, #48	; 0x30
 8006a1c:	f881 0043 	strb.w	r0, [r1, #67]	; 0x43
 8006a20:	4422      	add	r2, r4
 8006a22:	f894 1045 	ldrb.w	r1, [r4, #69]	; 0x45
 8006a26:	f882 1043 	strb.w	r1, [r2, #67]	; 0x43
 8006a2a:	3302      	adds	r3, #2
 8006a2c:	e7c5      	b.n	80069ba <_printf_common+0x62>
 8006a2e:	2301      	movs	r3, #1
 8006a30:	4622      	mov	r2, r4
 8006a32:	4639      	mov	r1, r7
 8006a34:	4630      	mov	r0, r6
 8006a36:	47c0      	blx	r8
 8006a38:	3001      	adds	r0, #1
 8006a3a:	d0e6      	beq.n	8006a0a <_printf_common+0xb2>
 8006a3c:	f109 0901 	add.w	r9, r9, #1
 8006a40:	e7d8      	b.n	80069f4 <_printf_common+0x9c>
	...

08006a44 <_printf_i>:
 8006a44:	e92d 43f0 	stmdb	sp!, {r4, r5, r6, r7, r8, r9, lr}
 8006a48:	f101 0c43 	add.w	ip, r1, #67	; 0x43
 8006a4c:	460c      	mov	r4, r1
 8006a4e:	7e09      	ldrb	r1, [r1, #24]
 8006a50:	b085      	sub	sp, #20
 8006a52:	296e      	cmp	r1, #110	; 0x6e
 8006a54:	4617      	mov	r7, r2
 8006a56:	4606      	mov	r6, r0
 8006a58:	4698      	mov	r8, r3
 8006a5a:	9a0c      	ldr	r2, [sp, #48]	; 0x30
 8006a5c:	f000 80b3 	beq.w	8006bc6 <_printf_i+0x182>
 8006a60:	d822      	bhi.n	8006aa8 <_printf_i+0x64>
 8006a62:	2963      	cmp	r1, #99	; 0x63
 8006a64:	d036      	beq.n	8006ad4 <_printf_i+0x90>
 8006a66:	d80a      	bhi.n	8006a7e <_printf_i+0x3a>
 8006a68:	2900      	cmp	r1, #0
 8006a6a:	f000 80b9 	beq.w	8006be0 <_printf_i+0x19c>
 8006a6e:	2958      	cmp	r1, #88	; 0x58
 8006a70:	f000 8083 	beq.w	8006b7a <_printf_i+0x136>
 8006a74:	f104 0542 	add.w	r5, r4, #66	; 0x42
 8006a78:	f884 1042 	strb.w	r1, [r4, #66]	; 0x42
 8006a7c:	e032      	b.n	8006ae4 <_printf_i+0xa0>
 8006a7e:	2964      	cmp	r1, #100	; 0x64
 8006a80:	d001      	beq.n	8006a86 <_printf_i+0x42>
 8006a82:	2969      	cmp	r1, #105	; 0x69
 8006a84:	d1f6      	bne.n	8006a74 <_printf_i+0x30>
 8006a86:	6820      	ldr	r0, [r4, #0]
 8006a88:	6813      	ldr	r3, [r2, #0]
 8006a8a:	0605      	lsls	r5, r0, #24
 8006a8c:	f103 0104 	add.w	r1, r3, #4
 8006a90:	d52a      	bpl.n	8006ae8 <_printf_i+0xa4>
 8006a92:	681b      	ldr	r3, [r3, #0]
 8006a94:	6011      	str	r1, [r2, #0]
 8006a96:	2b00      	cmp	r3, #0
 8006a98:	da03      	bge.n	8006aa2 <_printf_i+0x5e>
 8006a9a:	222d      	movs	r2, #45	; 0x2d
 8006a9c:	425b      	negs	r3, r3
 8006a9e:	f884 2043 	strb.w	r2, [r4, #67]	; 0x43
 8006aa2:	486f      	ldr	r0, [pc, #444]	; (8006c60 <_printf_i+0x21c>)
 8006aa4:	220a      	movs	r2, #10
 8006aa6:	e039      	b.n	8006b1c <_printf_i+0xd8>
 8006aa8:	2973      	cmp	r1, #115	; 0x73
 8006aaa:	f000 809d 	beq.w	8006be8 <_printf_i+0x1a4>
 8006aae:	d808      	bhi.n	8006ac2 <_printf_i+0x7e>
 8006ab0:	296f      	cmp	r1, #111	; 0x6f
 8006ab2:	d020      	beq.n	8006af6 <_printf_i+0xb2>
 8006ab4:	2970      	cmp	r1, #112	; 0x70
 8006ab6:	d1dd      	bne.n	8006a74 <_printf_i+0x30>
 8006ab8:	6823      	ldr	r3, [r4, #0]
 8006aba:	f043 0320 	orr.w	r3, r3, #32
 8006abe:	6023      	str	r3, [r4, #0]
 8006ac0:	e003      	b.n	8006aca <_printf_i+0x86>
 8006ac2:	2975      	cmp	r1, #117	; 0x75
 8006ac4:	d017      	beq.n	8006af6 <_printf_i+0xb2>
 8006ac6:	2978      	cmp	r1, #120	; 0x78
 8006ac8:	d1d4      	bne.n	8006a74 <_printf_i+0x30>
 8006aca:	2378      	movs	r3, #120	; 0x78
 8006acc:	f884 3045 	strb.w	r3, [r4, #69]	; 0x45
 8006ad0:	4864      	ldr	r0, [pc, #400]	; (8006c64 <_printf_i+0x220>)
 8006ad2:	e055      	b.n	8006b80 <_printf_i+0x13c>
 8006ad4:	6813      	ldr	r3, [r2, #0]
 8006ad6:	1d19      	adds	r1, r3, #4
 8006ad8:	681b      	ldr	r3, [r3, #0]
 8006ada:	6011      	str	r1, [r2, #0]
 8006adc:	f104 0542 	add.w	r5, r4, #66	; 0x42
 8006ae0:	f884 3042 	strb.w	r3, [r4, #66]	; 0x42
 8006ae4:	2301      	movs	r3, #1
 8006ae6:	e08c      	b.n	8006c02 <_printf_i+0x1be>
 8006ae8:	681b      	ldr	r3, [r3, #0]
 8006aea:	6011      	str	r1, [r2, #0]
 8006aec:	f010 0f40 	tst.w	r0, #64	; 0x40
 8006af0:	bf18      	it	ne
 8006af2:	b21b      	sxthne	r3, r3
 8006af4:	e7cf      	b.n	8006a96 <_printf_i+0x52>
 8006af6:	6813      	ldr	r3, [r2, #0]
 8006af8:	6825      	ldr	r5, [r4, #0]
 8006afa:	1d18      	adds	r0, r3, #4
 8006afc:	6010      	str	r0, [r2, #0]
 8006afe:	0628      	lsls	r0, r5, #24
 8006b00:	d501      	bpl.n	8006b06 <_printf_i+0xc2>
 8006b02:	681b      	ldr	r3, [r3, #0]
 8006b04:	e002      	b.n	8006b0c <_printf_i+0xc8>
 8006b06:	0668      	lsls	r0, r5, #25
 8006b08:	d5fb      	bpl.n	8006b02 <_printf_i+0xbe>
 8006b0a:	881b      	ldrh	r3, [r3, #0]
 8006b0c:	4854      	ldr	r0, [pc, #336]	; (8006c60 <_printf_i+0x21c>)
 8006b0e:	296f      	cmp	r1, #111	; 0x6f
 8006b10:	bf14      	ite	ne
 8006b12:	220a      	movne	r2, #10
 8006b14:	2208      	moveq	r2, #8
 8006b16:	2100      	movs	r1, #0
 8006b18:	f884 1043 	strb.w	r1, [r4, #67]	; 0x43
 8006b1c:	6865      	ldr	r5, [r4, #4]
 8006b1e:	60a5      	str	r5, [r4, #8]
 8006b20:	2d00      	cmp	r5, #0
 8006b22:	f2c0 8095 	blt.w	8006c50 <_printf_i+0x20c>
 8006b26:	6821      	ldr	r1, [r4, #0]
 8006b28:	f021 0104 	bic.w	r1, r1, #4
 8006b2c:	6021      	str	r1, [r4, #0]
 8006b2e:	2b00      	cmp	r3, #0
 8006b30:	d13d      	bne.n	8006bae <_printf_i+0x16a>
 8006b32:	2d00      	cmp	r5, #0
 8006b34:	f040 808e 	bne.w	8006c54 <_printf_i+0x210>
 8006b38:	4665      	mov	r5, ip
 8006b3a:	2a08      	cmp	r2, #8
 8006b3c:	d10b      	bne.n	8006b56 <_printf_i+0x112>
 8006b3e:	6823      	ldr	r3, [r4, #0]
 8006b40:	07db      	lsls	r3, r3, #31
 8006b42:	d508      	bpl.n	8006b56 <_printf_i+0x112>
 8006b44:	6923      	ldr	r3, [r4, #16]
 8006b46:	6862      	ldr	r2, [r4, #4]
 8006b48:	429a      	cmp	r2, r3
 8006b4a:	bfde      	ittt	le
 8006b4c:	2330      	movle	r3, #48	; 0x30
 8006b4e:	f805 3c01 	strble.w	r3, [r5, #-1]
 8006b52:	f105 35ff 	addle.w	r5, r5, #4294967295
 8006b56:	ebac 0305 	sub.w	r3, ip, r5
 8006b5a:	6123      	str	r3, [r4, #16]
 8006b5c:	f8cd 8000 	str.w	r8, [sp]
 8006b60:	463b      	mov	r3, r7
 8006b62:	aa03      	add	r2, sp, #12
 8006b64:	4621      	mov	r1, r4
 8006b66:	4630      	mov	r0, r6
 8006b68:	f7ff fef6 	bl	8006958 <_printf_common>
 8006b6c:	3001      	adds	r0, #1
 8006b6e:	d14d      	bne.n	8006c0c <_printf_i+0x1c8>
 8006b70:	f04f 30ff 	mov.w	r0, #4294967295
 8006b74:	b005      	add	sp, #20
 8006b76:	e8bd 83f0 	ldmia.w	sp!, {r4, r5, r6, r7, r8, r9, pc}
 8006b7a:	4839      	ldr	r0, [pc, #228]	; (8006c60 <_printf_i+0x21c>)
 8006b7c:	f884 1045 	strb.w	r1, [r4, #69]	; 0x45
 8006b80:	6813      	ldr	r3, [r2, #0]
 8006b82:	6821      	ldr	r1, [r4, #0]
 8006b84:	1d1d      	adds	r5, r3, #4
 8006b86:	681b      	ldr	r3, [r3, #0]
 8006b88:	6015      	str	r5, [r2, #0]
 8006b8a:	060a      	lsls	r2, r1, #24
 8006b8c:	d50b      	bpl.n	8006ba6 <_printf_i+0x162>
 8006b8e:	07ca      	lsls	r2, r1, #31
 8006b90:	bf44      	itt	mi
 8006b92:	f041 0120 	orrmi.w	r1, r1, #32
 8006b96:	6021      	strmi	r1, [r4, #0]
 8006b98:	b91b      	cbnz	r3, 8006ba2 <_printf_i+0x15e>
 8006b9a:	6822      	ldr	r2, [r4, #0]
 8006b9c:	f022 0220 	bic.w	r2, r2, #32
 8006ba0:	6022      	str	r2, [r4, #0]
 8006ba2:	2210      	movs	r2, #16
 8006ba4:	e7b7      	b.n	8006b16 <_printf_i+0xd2>
 8006ba6:	064d      	lsls	r5, r1, #25
 8006ba8:	bf48      	it	mi
 8006baa:	b29b      	uxthmi	r3, r3
 8006bac:	e7ef      	b.n	8006b8e <_printf_i+0x14a>
 8006bae:	4665      	mov	r5, ip
 8006bb0:	fbb3 f1f2 	udiv	r1, r3, r2
 8006bb4:	fb02 3311 	mls	r3, r2, r1, r3
 8006bb8:	5cc3      	ldrb	r3, [r0, r3]
 8006bba:	f805 3d01 	strb.w	r3, [r5, #-1]!
 8006bbe:	460b      	mov	r3, r1
 8006bc0:	2900      	cmp	r1, #0
 8006bc2:	d1f5      	bne.n	8006bb0 <_printf_i+0x16c>
 8006bc4:	e7b9      	b.n	8006b3a <_printf_i+0xf6>
 8006bc6:	6813      	ldr	r3, [r2, #0]
 8006bc8:	6825      	ldr	r5, [r4, #0]
 8006bca:	6961      	ldr	r1, [r4, #20]
 8006bcc:	1d18      	adds	r0, r3, #4
 8006bce:	6010      	str	r0, [r2, #0]
 8006bd0:	0628      	lsls	r0, r5, #24
 8006bd2:	681b      	ldr	r3, [r3, #0]
 8006bd4:	d501      	bpl.n	8006bda <_printf_i+0x196>
 8006bd6:	6019      	str	r1, [r3, #0]
 8006bd8:	e002      	b.n	8006be0 <_printf_i+0x19c>
 8006bda:	066a      	lsls	r2, r5, #25
 8006bdc:	d5fb      	bpl.n	8006bd6 <_printf_i+0x192>
 8006bde:	8019      	strh	r1, [r3, #0]
 8006be0:	2300      	movs	r3, #0
 8006be2:	6123      	str	r3, [r4, #16]
 8006be4:	4665      	mov	r5, ip
 8006be6:	e7b9      	b.n	8006b5c <_printf_i+0x118>
 8006be8:	6813      	ldr	r3, [r2, #0]
 8006bea:	1d19      	adds	r1, r3, #4
 8006bec:	6011      	str	r1, [r2, #0]
 8006bee:	681d      	ldr	r5, [r3, #0]
 8006bf0:	6862      	ldr	r2, [r4, #4]
 8006bf2:	2100      	movs	r1, #0
 8006bf4:	4628      	mov	r0, r5
 8006bf6:	f7f9 fb13 	bl	8000220 <memchr>
 8006bfa:	b108      	cbz	r0, 8006c00 <_printf_i+0x1bc>
 8006bfc:	1b40      	subs	r0, r0, r5
 8006bfe:	6060      	str	r0, [r4, #4]
 8006c00:	6863      	ldr	r3, [r4, #4]
 8006c02:	6123      	str	r3, [r4, #16]
 8006c04:	2300      	movs	r3, #0
 8006c06:	f884 3043 	strb.w	r3, [r4, #67]	; 0x43
 8006c0a:	e7a7      	b.n	8006b5c <_printf_i+0x118>
 8006c0c:	6923      	ldr	r3, [r4, #16]
 8006c0e:	462a      	mov	r2, r5
 8006c10:	4639      	mov	r1, r7
 8006c12:	4630      	mov	r0, r6
 8006c14:	47c0      	blx	r8
 8006c16:	3001      	adds	r0, #1
 8006c18:	d0aa      	beq.n	8006b70 <_printf_i+0x12c>
 8006c1a:	6823      	ldr	r3, [r4, #0]
 8006c1c:	079b      	lsls	r3, r3, #30
 8006c1e:	d413      	bmi.n	8006c48 <_printf_i+0x204>
 8006c20:	68e0      	ldr	r0, [r4, #12]
 8006c22:	9b03      	ldr	r3, [sp, #12]
 8006c24:	4298      	cmp	r0, r3
 8006c26:	bfb8      	it	lt
 8006c28:	4618      	movlt	r0, r3
 8006c2a:	e7a3      	b.n	8006b74 <_printf_i+0x130>
 8006c2c:	2301      	movs	r3, #1
 8006c2e:	464a      	mov	r2, r9
 8006c30:	4639      	mov	r1, r7
 8006c32:	4630      	mov	r0, r6
 8006c34:	47c0      	blx	r8
 8006c36:	3001      	adds	r0, #1
 8006c38:	d09a      	beq.n	8006b70 <_printf_i+0x12c>
 8006c3a:	3501      	adds	r5, #1
 8006c3c:	68e3      	ldr	r3, [r4, #12]
 8006c3e:	9a03      	ldr	r2, [sp, #12]
 8006c40:	1a9b      	subs	r3, r3, r2
 8006c42:	42ab      	cmp	r3, r5
 8006c44:	dcf2      	bgt.n	8006c2c <_printf_i+0x1e8>
 8006c46:	e7eb      	b.n	8006c20 <_printf_i+0x1dc>
 8006c48:	2500      	movs	r5, #0
 8006c4a:	f104 0919 	add.w	r9, r4, #25
 8006c4e:	e7f5      	b.n	8006c3c <_printf_i+0x1f8>
 8006c50:	2b00      	cmp	r3, #0
 8006c52:	d1ac      	bne.n	8006bae <_printf_i+0x16a>
 8006c54:	7803      	ldrb	r3, [r0, #0]
 8006c56:	f884 3042 	strb.w	r3, [r4, #66]	; 0x42
 8006c5a:	f104 0542 	add.w	r5, r4, #66	; 0x42
 8006c5e:	e76c      	b.n	8006b3a <_printf_i+0xf6>
 8006c60:	08006dd1 	.word	0x08006dd1
 8006c64:	08006de2 	.word	0x08006de2

08006c68 <memcpy>:
 8006c68:	b510      	push	{r4, lr}
 8006c6a:	1e43      	subs	r3, r0, #1
 8006c6c:	440a      	add	r2, r1
 8006c6e:	4291      	cmp	r1, r2
 8006c70:	d100      	bne.n	8006c74 <memcpy+0xc>
 8006c72:	bd10      	pop	{r4, pc}
 8006c74:	f811 4b01 	ldrb.w	r4, [r1], #1
 8006c78:	f803 4f01 	strb.w	r4, [r3, #1]!
 8006c7c:	e7f7      	b.n	8006c6e <memcpy+0x6>

08006c7e <memmove>:
 8006c7e:	4288      	cmp	r0, r1
 8006c80:	b510      	push	{r4, lr}
 8006c82:	eb01 0302 	add.w	r3, r1, r2
 8006c86:	d807      	bhi.n	8006c98 <memmove+0x1a>
 8006c88:	1e42      	subs	r2, r0, #1
 8006c8a:	4299      	cmp	r1, r3
 8006c8c:	d00a      	beq.n	8006ca4 <memmove+0x26>
 8006c8e:	f811 4b01 	ldrb.w	r4, [r1], #1
 8006c92:	f802 4f01 	strb.w	r4, [r2, #1]!
 8006c96:	e7f8      	b.n	8006c8a <memmove+0xc>
 8006c98:	4283      	cmp	r3, r0
 8006c9a:	d9f5      	bls.n	8006c88 <memmove+0xa>
 8006c9c:	1881      	adds	r1, r0, r2
 8006c9e:	1ad2      	subs	r2, r2, r3
 8006ca0:	42d3      	cmn	r3, r2
 8006ca2:	d100      	bne.n	8006ca6 <memmove+0x28>
 8006ca4:	bd10      	pop	{r4, pc}
 8006ca6:	f813 4d01 	ldrb.w	r4, [r3, #-1]!
 8006caa:	f801 4d01 	strb.w	r4, [r1, #-1]!
 8006cae:	e7f7      	b.n	8006ca0 <memmove+0x22>

08006cb0 <_realloc_r>:
 8006cb0:	b5f8      	push	{r3, r4, r5, r6, r7, lr}
 8006cb2:	4607      	mov	r7, r0
 8006cb4:	4614      	mov	r4, r2
 8006cb6:	460e      	mov	r6, r1
 8006cb8:	b921      	cbnz	r1, 8006cc4 <_realloc_r+0x14>
 8006cba:	4611      	mov	r1, r2
 8006cbc:	e8bd 40f8 	ldmia.w	sp!, {r3, r4, r5, r6, r7, lr}
 8006cc0:	f7ff bc6c 	b.w	800659c <_malloc_r>
 8006cc4:	b922      	cbnz	r2, 8006cd0 <_realloc_r+0x20>
 8006cc6:	f7ff fc1b 	bl	8006500 <_free_r>
 8006cca:	4625      	mov	r5, r4
 8006ccc:	4628      	mov	r0, r5
 8006cce:	bdf8      	pop	{r3, r4, r5, r6, r7, pc}
 8006cd0:	f000 f814 	bl	8006cfc <_malloc_usable_size_r>
 8006cd4:	42a0      	cmp	r0, r4
 8006cd6:	d20f      	bcs.n	8006cf8 <_realloc_r+0x48>
 8006cd8:	4621      	mov	r1, r4
 8006cda:	4638      	mov	r0, r7
 8006cdc:	f7ff fc5e 	bl	800659c <_malloc_r>
 8006ce0:	4605      	mov	r5, r0
 8006ce2:	2800      	cmp	r0, #0
 8006ce4:	d0f2      	beq.n	8006ccc <_realloc_r+0x1c>
 8006ce6:	4631      	mov	r1, r6
 8006ce8:	4622      	mov	r2, r4
 8006cea:	f7ff ffbd 	bl	8006c68 <memcpy>
 8006cee:	4631      	mov	r1, r6
 8006cf0:	4638      	mov	r0, r7
 8006cf2:	f7ff fc05 	bl	8006500 <_free_r>
 8006cf6:	e7e9      	b.n	8006ccc <_realloc_r+0x1c>
 8006cf8:	4635      	mov	r5, r6
 8006cfa:	e7e7      	b.n	8006ccc <_realloc_r+0x1c>

08006cfc <_malloc_usable_size_r>:
 8006cfc:	f851 3c04 	ldr.w	r3, [r1, #-4]
 8006d00:	1f18      	subs	r0, r3, #4
 8006d02:	2b00      	cmp	r3, #0
 8006d04:	bfbc      	itt	lt
 8006d06:	580b      	ldrlt	r3, [r1, r0]
 8006d08:	18c0      	addlt	r0, r0, r3
 8006d0a:	4770      	bx	lr

08006d0c <_init>:
 8006d0c:	b5f8      	push	{r3, r4, r5, r6, r7, lr}
 8006d0e:	bf00      	nop
 8006d10:	bcf8      	pop	{r3, r4, r5, r6, r7}
 8006d12:	bc08      	pop	{r3}
 8006d14:	469e      	mov	lr, r3
 8006d16:	4770      	bx	lr

08006d18 <_fini>:
 8006d18:	b5f8      	push	{r3, r4, r5, r6, r7, lr}
 8006d1a:	bf00      	nop
 8006d1c:	bcf8      	pop	{r3, r4, r5, r6, r7}
 8006d1e:	bc08      	pop	{r3}
 8006d20:	469e      	mov	lr, r3
 8006d22:	4770      	bx	lr
